ARM GAS  /cygdrive/c/DOCUME~1/mkwapisz/LOCALS~1/Temp/ccrgByGA.s 			page 1


   1              		.code	16
   2              		.file	"speaker.c"
   3              		.section	.debug_abbrev,"",%progbits
   4              	.Ldebug_abbrev0:
   5              		.section	.debug_info,"",%progbits
   6              	.Ldebug_info0:
   7              		.section	.debug_line,"",%progbits
   8              	.Ldebug_line0:
   9 0000 E8000000 		.text
   9      02008200 
   9      00000201 
   9      FB0E0D00 
   9      01010101 
  10              	.Ltext0:
  11              		.align	2
  12              		.global	initSpiker
  13              		.code 16
  14              		.thumb_func
  15              		.type	initSpiker, %function
  16              	initSpiker:
  17              	.LFB2:
  18              		.file 1 "speaker/speaker.c"
   1:speaker/speaker.c **** #include "speaker.h"
   2:speaker/speaker.c **** 
   3:speaker/speaker.c **** static tU8 wave_stream_buf[512 * 1];//1 sectors
   4:speaker/speaker.c **** 
   5:speaker/speaker.c **** WORD bytesReaded;
   6:speaker/speaker.c **** FRESULT rc;
   7:speaker/speaker.c **** 
   8:speaker/speaker.c **** WAVEHEADER wh;
   9:speaker/speaker.c **** FmtChunk ws1;
  10:speaker/speaker.c **** DataChunk ws2;
  11:speaker/speaker.c **** FATFS fatfs; /* File system object */
  12:speaker/speaker.c **** FRESULT rcv;
  13:speaker/speaker.c **** 
  14:speaker/speaker.c **** tBool initSpiker(void) {
  19              		.loc 1 14 0
  20 0000 30B5     		push	{r4, r5, lr}
  21              	.LCFI0:
  15:speaker/speaker.c **** 	bytesReaded = 0;
  22              		.loc 1 15 0
  23 0002 524D     		ldr	r5, .L7
  16:speaker/speaker.c **** 
  17:speaker/speaker.c **** 	tU32 i = 0;
  18:speaker/speaker.c **** 
  19:speaker/speaker.c **** 	//	printf("read data\n");
  20:speaker/speaker.c **** 	rc = pf_read(wave_stream_buf, sizeof(wave_stream_buf), &bytesReaded);
  24              		.loc 1 20 0
  25 0004 524C     		ldr	r4, .L7+4
  26              		.loc 1 15 0
  27 0006 0023     		mov	r3, #0
  28              		.loc 1 20 0
  29 0008 8021     		mov	r1, #128
  30              		.loc 1 15 0
  31 000a 2B80     		strh	r3, [r5]
  32              		.loc 1 20 0
  33 000c 201C     		mov	r0, r4
ARM GAS  /cygdrive/c/DOCUME~1/mkwapisz/LOCALS~1/Temp/ccrgByGA.s 			page 2


  34 000e 8900     		lsl	r1, r1, #2
  35 0010 2A1C     		mov	r2, r5
  36 0012 FFF7FEFF 		bl	pf_read
  37 0016 4F4B     		ldr	r3, .L7+8
  38 0018 1860     		str	r0, [r3]
  21:speaker/speaker.c **** 
  22:speaker/speaker.c **** 	if (rc || !bytesReaded)
  39              		.loc 1 22 0
  40 001a 0028     		cmp	r0, #0
  41 001c 00D0     		beq	.LCB22
  42 001e 90E0     		b	.L2	@long jump
  43              	.LCB22:
  44 0020 2B88     		ldrh	r3, [r5]
  45 0022 002B     		cmp	r3, #0
  46 0024 00D1     		bne	.LCB25
  47 0026 8CE0     		b	.L2	@long jump
  48              	.LCB25:
  23:speaker/speaker.c **** 		return FALSE;
  24:speaker/speaker.c **** 
  25:speaker/speaker.c **** 	//	printf("fill structs\n");
  26:speaker/speaker.c **** 	//wave header
  27:speaker/speaker.c **** 	wh.chunkId = wave_stream_buf[i++] << 24;
  28:speaker/speaker.c **** 	wh.chunkId += wave_stream_buf[i++] << 16;
  29:speaker/speaker.c **** 	wh.chunkId += wave_stream_buf[i++] << 8;
  30:speaker/speaker.c **** 	wh.chunkId += wave_stream_buf[i++];
  49              		.loc 1 30 0
  50 0028 2278     		ldrb	r2, [r4]
  51 002a 6378     		ldrb	r3, [r4, #1]
  52 002c 1206     		lsl	r2, r2, #24
  53 002e 1B04     		lsl	r3, r3, #16
  54 0030 A178     		ldrb	r1, [r4, #2]
  55 0032 D218     		add	r2, r2, r3
  56 0034 E378     		ldrb	r3, [r4, #3]
  57 0036 4848     		ldr	r0, .L7+12
  58 0038 D218     		add	r2, r2, r3
  59 003a 0902     		lsl	r1, r1, #8
  60 003c 8918     		add	r1, r1, r2
  61 003e 0160     		str	r1, [r0]
  31:speaker/speaker.c **** 
  32:speaker/speaker.c **** 	wh.chunkSize = wave_stream_buf[i++];
  33:speaker/speaker.c **** 	wh.chunkSize += wave_stream_buf[i++] << 8;
  34:speaker/speaker.c **** 	wh.chunkSize += wave_stream_buf[i++] << 16;
  35:speaker/speaker.c **** 	wh.chunkSize += wave_stream_buf[i++] << 24;
  62              		.loc 1 35 0
  63 0040 6379     		ldrb	r3, [r4, #5]
  64 0042 2179     		ldrb	r1, [r4, #4]
  65 0044 1B02     		lsl	r3, r3, #8
  66 0046 E279     		ldrb	r2, [r4, #7]
  67 0048 C918     		add	r1, r1, r3
  68 004a A379     		ldrb	r3, [r4, #6]
  69 004c 1206     		lsl	r2, r2, #24
  70 004e 1B04     		lsl	r3, r3, #16
  71 0050 D218     		add	r2, r2, r3
  72 0052 8918     		add	r1, r1, r2
  73 0054 4160     		str	r1, [r0, #4]
  36:speaker/speaker.c **** 
  37:speaker/speaker.c **** 	wh.format = wave_stream_buf[i++] << 24;
ARM GAS  /cygdrive/c/DOCUME~1/mkwapisz/LOCALS~1/Temp/ccrgByGA.s 			page 3


  38:speaker/speaker.c **** 	wh.format += wave_stream_buf[i++] << 16;
  39:speaker/speaker.c **** 	wh.format += wave_stream_buf[i++] << 8;
  40:speaker/speaker.c **** 	wh.format += wave_stream_buf[i++];
  74              		.loc 1 40 0
  75 0056 227A     		ldrb	r2, [r4, #8]
  76 0058 637A     		ldrb	r3, [r4, #9]
  77 005a 1206     		lsl	r2, r2, #24
  78 005c 1B04     		lsl	r3, r3, #16
  79 005e A17A     		ldrb	r1, [r4, #10]
  80 0060 D218     		add	r2, r2, r3
  81 0062 E37A     		ldrb	r3, [r4, #11]
  82 0064 0902     		lsl	r1, r1, #8
  83 0066 D218     		add	r2, r2, r3
  84 0068 8918     		add	r1, r1, r2
  85 006a 8160     		str	r1, [r0, #8]
  41:speaker/speaker.c **** 
  42:speaker/speaker.c **** 	ws1.subChunkId = wave_stream_buf[i++] << 24;
  43:speaker/speaker.c **** 	ws1.subChunkId += wave_stream_buf[i++] << 16;
  44:speaker/speaker.c **** 	ws1.subChunkId += wave_stream_buf[i++] << 8;
  45:speaker/speaker.c **** 	ws1.subChunkId += wave_stream_buf[i++];
  86              		.loc 1 45 0
  87 006c 227B     		ldrb	r2, [r4, #12]
  88 006e 637B     		ldrb	r3, [r4, #13]
  89 0070 1206     		lsl	r2, r2, #24
  90 0072 1B04     		lsl	r3, r3, #16
  91 0074 A17B     		ldrb	r1, [r4, #14]
  92 0076 D218     		add	r2, r2, r3
  93 0078 E37B     		ldrb	r3, [r4, #15]
  94 007a 3848     		ldr	r0, .L7+16
  95 007c D218     		add	r2, r2, r3
  96 007e 0902     		lsl	r1, r1, #8
  97 0080 8918     		add	r1, r1, r2
  98 0082 0160     		str	r1, [r0]
  46:speaker/speaker.c **** 
  47:speaker/speaker.c **** 	ws1.subChunkSize = wave_stream_buf[i++];
  48:speaker/speaker.c **** 	ws1.subChunkSize += wave_stream_buf[i++] << 8;
  49:speaker/speaker.c **** 	ws1.subChunkSize += wave_stream_buf[i++] << 16;
  50:speaker/speaker.c **** 	ws1.subChunkSize += wave_stream_buf[i++] << 24;
  99              		.loc 1 50 0
 100 0084 637C     		ldrb	r3, [r4, #17]
 101 0086 217C     		ldrb	r1, [r4, #16]
 102 0088 1B02     		lsl	r3, r3, #8
 103 008a E27C     		ldrb	r2, [r4, #19]
 104 008c C918     		add	r1, r1, r3
 105 008e A37C     		ldrb	r3, [r4, #18]
 106 0090 1206     		lsl	r2, r2, #24
 107 0092 1B04     		lsl	r3, r3, #16
 108 0094 D218     		add	r2, r2, r3
 109 0096 8918     		add	r1, r1, r2
 110 0098 4160     		str	r1, [r0, #4]
  51:speaker/speaker.c **** 
  52:speaker/speaker.c **** 	ws1.audioFormat = wave_stream_buf[i++];
  53:speaker/speaker.c **** 	ws1.audioFormat += wave_stream_buf[i++] << 8;
 111              		.loc 1 53 0
 112 009a 637D     		ldrb	r3, [r4, #21]
 113 009c 227D     		ldrb	r2, [r4, #20]
 114 009e 1B02     		lsl	r3, r3, #8
ARM GAS  /cygdrive/c/DOCUME~1/mkwapisz/LOCALS~1/Temp/ccrgByGA.s 			page 4


 115 00a0 D218     		add	r2, r2, r3
 116 00a2 0281     		strh	r2, [r0, #8]
  54:speaker/speaker.c **** 
  55:speaker/speaker.c **** 	ws1.numChannels = wave_stream_buf[i++];
  56:speaker/speaker.c **** 	ws1.numChannels += wave_stream_buf[i++] << 8;
 117              		.loc 1 56 0
 118 00a4 E37D     		ldrb	r3, [r4, #23]
 119 00a6 A27D     		ldrb	r2, [r4, #22]
 120 00a8 1B02     		lsl	r3, r3, #8
 121 00aa D218     		add	r2, r2, r3
 122 00ac C260     		str	r2, [r0, #12]
  57:speaker/speaker.c **** 
  58:speaker/speaker.c **** 	ws1.sampleRate = wave_stream_buf[i++];
  59:speaker/speaker.c **** 	ws1.sampleRate += wave_stream_buf[i++] << 8;
  60:speaker/speaker.c **** 	ws1.sampleRate += wave_stream_buf[i++] << 16;
  61:speaker/speaker.c **** 	ws1.sampleRate += wave_stream_buf[i++] << 24;
 123              		.loc 1 61 0
 124 00ae 637E     		ldrb	r3, [r4, #25]
 125 00b0 217E     		ldrb	r1, [r4, #24]
 126 00b2 1B02     		lsl	r3, r3, #8
 127 00b4 C918     		add	r1, r1, r3
 128 00b6 E27E     		ldrb	r2, [r4, #27]
 129 00b8 A37E     		ldrb	r3, [r4, #26]
 130 00ba 1206     		lsl	r2, r2, #24
 131 00bc 1B04     		lsl	r3, r3, #16
 132 00be D218     		add	r2, r2, r3
 133 00c0 8918     		add	r1, r1, r2
 134 00c2 0161     		str	r1, [r0, #16]
  62:speaker/speaker.c **** 
  63:speaker/speaker.c **** 	ws1.byteRate = wave_stream_buf[i++];
  64:speaker/speaker.c **** 	ws1.byteRate += wave_stream_buf[i++] << 8;
  65:speaker/speaker.c **** 	ws1.byteRate += wave_stream_buf[i++] << 16;
  66:speaker/speaker.c **** 	ws1.byteRate += wave_stream_buf[i++] << 24;
 135              		.loc 1 66 0
 136 00c4 637F     		ldrb	r3, [r4, #29]
 137 00c6 217F     		ldrb	r1, [r4, #28]
 138 00c8 1B02     		lsl	r3, r3, #8
 139 00ca E27F     		ldrb	r2, [r4, #31]
 140 00cc C918     		add	r1, r1, r3
 141 00ce A37F     		ldrb	r3, [r4, #30]
 142 00d0 1206     		lsl	r2, r2, #24
 143 00d2 1B04     		lsl	r3, r3, #16
 144 00d4 D218     		add	r2, r2, r3
 145 00d6 8918     		add	r1, r1, r2
 146 00d8 4161     		str	r1, [r0, #20]
  67:speaker/speaker.c **** 
  68:speaker/speaker.c **** 	ws1.blockAlign = wave_stream_buf[i++];
  69:speaker/speaker.c **** 	ws1.blockAlign += wave_stream_buf[i++] << 8;
 147              		.loc 1 69 0
 148 00da 631C     		add	r3, r4, #1
 149 00dc DA7F     		ldrb	r2, [r3, #31]
 150 00de A31C     		add	r3, r4, #2
 151 00e0 DB7F     		ldrb	r3, [r3, #31]
 152 00e2 1B02     		lsl	r3, r3, #8
 153 00e4 D218     		add	r2, r2, r3
 154 00e6 8261     		str	r2, [r0, #24]
  70:speaker/speaker.c **** 
ARM GAS  /cygdrive/c/DOCUME~1/mkwapisz/LOCALS~1/Temp/ccrgByGA.s 			page 5


  71:speaker/speaker.c **** 	ws1.bitsPerSample = wave_stream_buf[i++];
  72:speaker/speaker.c **** 	ws1.bitsPerSample += wave_stream_buf[i++] << 8;
 155              		.loc 1 72 0
 156 00e8 E31C     		add	r3, r4, #3
 157 00ea DA7F     		ldrb	r2, [r3, #31]
 158 00ec 231D     		add	r3, r4, #4
 159 00ee DB7F     		ldrb	r3, [r3, #31]
 160 00f0 1B02     		lsl	r3, r3, #8
 161 00f2 D218     		add	r2, r2, r3
 162 00f4 C261     		str	r2, [r0, #28]
  73:speaker/speaker.c **** 
  74:speaker/speaker.c **** 
  75:speaker/speaker.c **** 	ws2.subChunkId = wave_stream_buf[i++] << 24;
  76:speaker/speaker.c **** 	ws2.subChunkId += wave_stream_buf[i++] << 16;
  77:speaker/speaker.c **** 	ws2.subChunkId += wave_stream_buf[i++] << 8;
  78:speaker/speaker.c **** 	ws2.subChunkId += wave_stream_buf[i++];
 163              		.loc 1 78 0
 164 00f6 E31D     		add	r3, r4, #7
 165 00f8 D97F     		ldrb	r1, [r3, #31]
 166 00fa 631D     		add	r3, r4, #5
 167 00fc DA7F     		ldrb	r2, [r3, #31]
 168 00fe A31D     		add	r3, r4, #6
 169 0100 DB7F     		ldrb	r3, [r3, #31]
 170 0102 1206     		lsl	r2, r2, #24
 171 0104 1B04     		lsl	r3, r3, #16
 172 0106 D218     		add	r2, r2, r3
 173 0108 231C     		mov	r3, r4
 174 010a 0833     		add	r3, r3, #8
 175 010c DB7F     		ldrb	r3, [r3, #31]
 176 010e 1448     		ldr	r0, .L7+20
 177 0110 D218     		add	r2, r2, r3
 178 0112 0902     		lsl	r1, r1, #8
 179 0114 8918     		add	r1, r1, r2
 180 0116 0160     		str	r1, [r0]
  79:speaker/speaker.c **** 
  80:speaker/speaker.c **** 	ws2.subChunkSize = wave_stream_buf[i++];
  81:speaker/speaker.c **** 	ws2.subChunkSize += wave_stream_buf[i++] << 8;
  82:speaker/speaker.c **** 	ws2.subChunkSize += wave_stream_buf[i++] << 16;
  83:speaker/speaker.c **** 	ws2.subChunkSize += wave_stream_buf[i++] << 24;
 181              		.loc 1 83 0
 182 0118 231C     		mov	r3, r4
 183 011a 2833     		add	r3, r3, #40
 184 011c 1978     		ldrb	r1, [r3]
 185 011e 0133     		add	r3, r3, #1
 186 0120 1B78     		ldrb	r3, [r3]
 187 0122 1B02     		lsl	r3, r3, #8
 188 0124 C918     		add	r1, r1, r3
 189 0126 231C     		mov	r3, r4
 190 0128 2B33     		add	r3, r3, #43
 191 012a 1A78     		ldrb	r2, [r3]
 192 012c 013B     		sub	r3, r3, #1
 193 012e 1B78     		ldrb	r3, [r3]
 194 0130 1206     		lsl	r2, r2, #24
 195 0132 1B04     		lsl	r3, r3, #16
 196 0134 D218     		add	r2, r2, r3
 197 0136 8918     		add	r1, r1, r2
  84:speaker/speaker.c **** 
ARM GAS  /cygdrive/c/DOCUME~1/mkwapisz/LOCALS~1/Temp/ccrgByGA.s 			page 6


  85:speaker/speaker.c **** 	ws2.byteToOmmit = i;
 198              		.loc 1 85 0
 199 0138 2C23     		mov	r3, #44
 200              		.loc 1 83 0
 201 013a 4160     		str	r1, [r0, #4]
 202              		.loc 1 85 0
 203 013c 8360     		str	r3, [r0, #8]
 204 013e 0120     		mov	r0, #1
 205 0140 00E0     		b	.L5
 206              	.L2:
  86:speaker/speaker.c **** 
  87:speaker/speaker.c **** 	return TRUE;
 207              		.loc 1 87 0
 208 0142 0020     		mov	r0, #0
 209              	.L5:
  88:speaker/speaker.c **** }
 210              		.loc 1 88 0
 211              		@ sp needed for prologue
 212 0144 30BC     		pop	{r4, r5}
 213 0146 02BC     		pop	{r1}
 214 0148 0847     		bx	r1
 215              	.L8:
 216 014a 0000     		.align	2
 217              	.L7:
 218 014c 00000000 		.word	bytesReaded
 219 0150 0D000000 		.word	wave_stream_buf
 220 0154 00000000 		.word	rc
 221 0158 00000000 		.word	wh
 222 015c 00000000 		.word	ws1
 223 0160 00000000 		.word	ws2
 224              	.LFE2:
 225              		.size	initSpiker, .-initSpiker
 226              		.global	__umoddi3
 227              		.global	__udivsi3
 228              		.align	2
 229              		.global	play
 230              		.code 16
 231              		.thumb_func
 232              		.type	play, %function
 233              	play:
 234              	.LFB3:
  89:speaker/speaker.c **** 
  90:speaker/speaker.c **** #define BUFFSIZE 512 * 5 //wielkość bufora
  91:speaker/speaker.c **** #define BUFFCOUNT 2 //ilość buforów
  92:speaker/speaker.c **** tU8 buffer[BUFFCOUNT][BUFFSIZE]; //bufor na próbki
  93:speaker/speaker.c **** 
  94:speaker/speaker.c **** tU8 bufferPlayed = 0; //numer bufora z którego są aktualnie odczytywane dane
  95:speaker/speaker.c **** tU8 bufferToDownload = 0; //numer bufora który należy uzupełnić
  96:speaker/speaker.c **** tU16 sample = 0; //dana próbka z bufora
  97:speaker/speaker.c **** unsigned long long totalPlayed = 0; //ilość oftworzonych próbek
  98:speaker/speaker.c **** tBool refil = FALSE; //czy bufor pusty
  99:speaker/speaker.c **** 
 100:speaker/speaker.c **** tBool play() {
 235              		.loc 1 100 0
 236 0164 70B5     		push	{r4, r5, r6, lr}
 237              	.LCFI1:
 101:speaker/speaker.c **** 	bufferPlayed = 0;
ARM GAS  /cygdrive/c/DOCUME~1/mkwapisz/LOCALS~1/Temp/ccrgByGA.s 			page 7


 238              		.loc 1 101 0
 239 0166 514B     		ldr	r3, .L32
 240 0168 0021     		mov	r1, #0
 241 016a 1970     		strb	r1, [r3]
 102:speaker/speaker.c **** 	bufferToDownload = 0;
 242              		.loc 1 102 0
 243 016c 504B     		ldr	r3, .L32+4
 244 016e 1970     		strb	r1, [r3]
 103:speaker/speaker.c **** 	sample = 0;
 245              		.loc 1 103 0
 246 0170 504B     		ldr	r3, .L32+8
 104:speaker/speaker.c **** 	totalPlayed = 0;
 247              		.loc 1 104 0
 248 0172 514A     		ldr	r2, .L32+12
 249              		.loc 1 103 0
 250 0174 1980     		strh	r1, [r3]
 251              		.loc 1 104 0
 252 0176 0023     		mov	r3, #0
 253 0178 0024     		mov	r4, #0
 254 017a 1360     		str	r3, [r2]
 255 017c 5460     		str	r4, [r2, #4]
 105:speaker/speaker.c **** 	refil = FALSE;
 256              		.loc 1 105 0
 257 017e 4F4A     		ldr	r2, .L32+16
 258 0180 0023     		mov	r3, #0
 259 0182 1370     		strb	r3, [r2]
 106:speaker/speaker.c **** 
 107:speaker/speaker.c **** 	bytesReaded = 0;
 260              		.loc 1 107 0
 261 0184 4E4C     		ldr	r4, .L32+20
 108:speaker/speaker.c **** 
 109:speaker/speaker.c **** 	tU32 i = 0;
 110:speaker/speaker.c **** 	pf_lseek(ws2.byteToOmmit);
 262              		.loc 1 110 0
 263 0186 4F4B     		ldr	r3, .L32+24
 264              		.loc 1 107 0
 265 0188 2180     		strh	r1, [r4]
 266              		.loc 1 110 0
 267 018a 9868     		ldr	r0, [r3, #8]
 268 018c FFF7FEFF 		bl	pf_lseek
 111:speaker/speaker.c **** 
 112:speaker/speaker.c **** 	//wypełniamy na sam początek czymś
 113:speaker/speaker.c **** 	do {
 114:speaker/speaker.c **** 		rc = pf_read(buffer[i], sizeof(buffer[i]), &bytesReaded);
 269              		.loc 1 114 0
 270 0190 4D4D     		ldr	r5, .L32+28
 271 0192 A021     		mov	r1, #160
 272 0194 281C     		mov	r0, r5
 273 0196 0901     		lsl	r1, r1, #4
 274 0198 221C     		mov	r2, r4
 275 019a FFF7FEFF 		bl	pf_read
 276 019e 4B4E     		ldr	r6, .L32+32
 277 01a0 3060     		str	r0, [r6]
 115:speaker/speaker.c **** 		i++;
 116:speaker/speaker.c **** 	} while (i < BUFFCOUNT && !rc && bytesReaded);
 278              		.loc 1 116 0
 279 01a2 0028     		cmp	r0, #0
ARM GAS  /cygdrive/c/DOCUME~1/mkwapisz/LOCALS~1/Temp/ccrgByGA.s 			page 8


 280 01a4 0AD0     		beq	.L29
 281 01a6 70E0     		b	.L30
 282              	.L12:
 283              		.loc 1 114 0
 284 01a8 A023     		mov	r3, #160
 285 01aa 1B01     		lsl	r3, r3, #4
 286 01ac A021     		mov	r1, #160
 287 01ae E818     		add	r0, r5, r3
 288 01b0 0901     		lsl	r1, r1, #4
 289 01b2 221C     		mov	r2, r4
 290 01b4 FFF7FEFF 		bl	pf_read
 291 01b8 3060     		str	r0, [r6]
 292 01ba 66E0     		b	.L30
 293              	.L29:
 294              		.loc 1 116 0
 295 01bc 2388     		ldrh	r3, [r4]
 296 01be 002B     		cmp	r3, #0
 297 01c0 F2D1     		bne	.L12
 298 01c2 62E0     		b	.L30
 299              	.L13:
 117:speaker/speaker.c **** 
 118:speaker/speaker.c **** 	tU32 uplynelo = 0;
 119:speaker/speaker.c **** 	tU32 czasCalkowity = ws2.subChunkSize / ws1.byteRate;
 120:speaker/speaker.c **** 	//ilość próbek przez prędkosć odtwarzania
 121:speaker/speaker.c **** 	tU32 pozostalo = 0;
 122:speaker/speaker.c **** 
 123:speaker/speaker.c **** 	while (totalPlayed < ws2.subChunkSize) {
 124:speaker/speaker.c **** 		if (sample >= (BUFFSIZE)) {
 300              		.loc 1 124 0
 301 01c4 3B4E     		ldr	r6, .L32+8
 302 01c6 424B     		ldr	r3, .L32+36
 303 01c8 3288     		ldrh	r2, [r6]
 304 01ca 9A42     		cmp	r2, r3
 305 01cc 0AD9     		bls	.L14
 125:speaker/speaker.c **** 			sample = 0;
 126:speaker/speaker.c **** 			bufferToDownload = bufferPlayed++;
 306              		.loc 1 126 0
 307 01ce 3749     		ldr	r1, .L32
 308              		.loc 1 125 0
 309 01d0 0023     		mov	r3, #0
 310              		.loc 1 126 0
 311 01d2 374A     		ldr	r2, .L32+4
 312              		.loc 1 125 0
 313 01d4 3380     		strh	r3, [r6]
 314              		.loc 1 126 0
 315 01d6 0B78     		ldrb	r3, [r1]
 316 01d8 1370     		strb	r3, [r2]
 317 01da 0133     		add	r3, r3, #1
 127:speaker/speaker.c **** 			refil = TRUE;
 318              		.loc 1 127 0
 319 01dc 374A     		ldr	r2, .L32+16
 320              		.loc 1 126 0
 321 01de 0B70     		strb	r3, [r1]
 322              		.loc 1 127 0
 323 01e0 0123     		mov	r3, #1
 324 01e2 1370     		strb	r3, [r2]
 325              	.L14:
ARM GAS  /cygdrive/c/DOCUME~1/mkwapisz/LOCALS~1/Temp/ccrgByGA.s 			page 9


 128:speaker/speaker.c **** 		}
 129:speaker/speaker.c **** 		if (bufferPlayed >= BUFFCOUNT)
 326              		.loc 1 129 0
 327 01e4 314A     		ldr	r2, .L32
 328 01e6 1378     		ldrb	r3, [r2]
 329 01e8 012B     		cmp	r3, #1
 330 01ea 01D9     		bls	.L16
 130:speaker/speaker.c **** 			bufferPlayed = 0;
 331              		.loc 1 130 0
 332 01ec 0023     		mov	r3, #0
 333 01ee 1370     		strb	r3, [r2]
 334              	.L16:
 131:speaker/speaker.c **** 
 132:speaker/speaker.c **** 		if (ws1.bitsPerSample == 8)
 335              		.loc 1 132 0
 336 01f0 384B     		ldr	r3, .L32+40
 337 01f2 DB69     		ldr	r3, [r3, #28]
 338 01f4 082B     		cmp	r3, #8
 339 01f6 08D1     		bne	.L18
 133:speaker/speaker.c **** 			DACR = buffer[bufferPlayed][sample++] << 5;
 340              		.loc 1 133 0
 341 01f8 1278     		ldrb	r2, [r2]
 342 01fa 9300     		lsl	r3, r2, #2
 343 01fc 3248     		ldr	r0, .L32+28
 344 01fe 9B18     		add	r3, r3, r2
 345 0200 3188     		ldrh	r1, [r6]
 346 0202 5B02     		lsl	r3, r3, #9
 347 0204 1B18     		add	r3, r3, r0
 348 0206 5B5C     		ldrb	r3, [r3, r1]
 349 0208 0BE0     		b	.L31
 350              	.L18:
 134:speaker/speaker.c **** 		else if (ws1.bitsPerSample == 16)
 351              		.loc 1 134 0
 352 020a 102B     		cmp	r3, #16
 353 020c 0ED1     		bne	.L20
 135:speaker/speaker.c **** 			DACR = ((buffer[bufferPlayed][sample++] << 8)
 354              		.loc 1 135 0
 355 020e 1278     		ldrb	r2, [r2]
 356 0210 9300     		lsl	r3, r2, #2
 357 0212 9B18     		add	r3, r3, r2
 358 0214 2C48     		ldr	r0, .L32+28
 359 0216 3188     		ldrh	r1, [r6]
 360 0218 5B02     		lsl	r3, r3, #9
 361 021a 1B18     		add	r3, r3, r0
 362 021c 5A5C     		ldrb	r2, [r3, r1]
 363 021e 1302     		lsl	r3, r2, #8
 364 0220 9B18     		add	r3, r3, r2
 365              	.L31:
 366 0222 2D4A     		ldr	r2, .L32+44
 367 0224 5B01     		lsl	r3, r3, #5
 368 0226 0131     		add	r1, r1, #1
 369 0228 1360     		str	r3, [r2]
 370 022a 3180     		strh	r1, [r6]
 371              	.L20:
 136:speaker/speaker.c **** 					+ (buffer[bufferPlayed][sample++])) << 5;
 137:speaker/speaker.c **** 
 138:speaker/speaker.c **** 		if (refil) { //uzupełnij bufor nawet jak zapauzowane
ARM GAS  /cygdrive/c/DOCUME~1/mkwapisz/LOCALS~1/Temp/ccrgByGA.s 			page 10


 372              		.loc 1 138 0
 373 022c 234E     		ldr	r6, .L32+16
 374 022e 3378     		ldrb	r3, [r6]
 375 0230 002B     		cmp	r3, #0
 376 0232 10D0     		beq	.L22
 139:speaker/speaker.c **** 			rc = pf_read(buffer[bufferToDownload],
 377              		.loc 1 139 0
 378 0234 1E4B     		ldr	r3, .L32+4
 379 0236 1B78     		ldrb	r3, [r3]
 380 0238 9800     		lsl	r0, r3, #2
 381 023a C018     		add	r0, r0, r3
 382 023c 224B     		ldr	r3, .L32+28
 383 023e 4002     		lsl	r0, r0, #9
 384 0240 A021     		mov	r1, #160
 385 0242 C018     		add	r0, r0, r3
 386 0244 1E4A     		ldr	r2, .L32+20
 387 0246 0901     		lsl	r1, r1, #4
 388 0248 FFF7FEFF 		bl	pf_read
 389 024c 1F4B     		ldr	r3, .L32+32
 390 024e 1860     		str	r0, [r3]
 140:speaker/speaker.c **** 					sizeof(buffer[bufferToDownload]), &bytesReaded);
 141:speaker/speaker.c **** 			refil = FALSE;
 391              		.loc 1 141 0
 392 0250 0023     		mov	r3, #0
 393 0252 3370     		strb	r3, [r6]
 394 0254 10E0     		b	.L24
 395              	.L22:
 142:speaker/speaker.c **** 		} else if (refil == FALSE) {
 143:speaker/speaker.c **** 			if (totalPlayed % ws1.byteRate != 0)
 396              		.loc 1 143 0
 397 0256 1F4B     		ldr	r3, .L32+40
 398 0258 5E69     		ldr	r6, [r3, #20]
 399 025a 201C     		mov	r0, r4
 400 025c 321C     		mov	r2, r6
 401 025e 0023     		mov	r3, #0
 402 0260 291C     		mov	r1, r5
 403 0262 FFF7FEFF 		bl	__umoddi3
 404 0266 0843     		orr	r0, r1
 405 0268 06D0     		beq	.L24
 144:speaker/speaker.c **** 				sleep(1000000 / (ws1.byteRate + 2500));
 406              		.loc 1 144 0
 407 026a 1C4B     		ldr	r3, .L32+48
 408 026c 1C48     		ldr	r0, .L32+52
 409 026e F118     		add	r1, r6, r3
 410 0270 FFF7FEFF 		bl	__udivsi3
 411 0274 FFF7FEFF 		bl	sleep
 412              	.L24:
 145:speaker/speaker.c **** 			//trzeba przyśpieszyć mimo wszystko o jakieś 2500 próbek
 146:speaker/speaker.c **** 			//ekran bowiem daje za duże opóźnienia :/ i tak to nie jest
 147:speaker/speaker.c **** 			//doskonałe
 148:speaker/speaker.c **** 			//gdy odczyt z karty, to on służy za opóxnienie, więc nie czekaj
 149:speaker/speaker.c **** 
 150:speaker/speaker.c **** 		}
 151:speaker/speaker.c **** 		totalPlayed++;
 413              		.loc 1 151 0
 414 0278 0F4B     		ldr	r3, .L32+12
 415 027a 1968     		ldr	r1, [r3]
ARM GAS  /cygdrive/c/DOCUME~1/mkwapisz/LOCALS~1/Temp/ccrgByGA.s 			page 11


 416 027c 5A68     		ldr	r2, [r3, #4]
 417 027e 0124     		mov	r4, #1
 418 0280 0025     		mov	r5, #0
 419 0282 0919     		add	r1, r1, r4
 420 0284 6A41     		adc	r2, r2, r5
 421 0286 1960     		str	r1, [r3]
 422 0288 5A60     		str	r2, [r3, #4]
 423              	.L30:
 424              		.loc 1 123 0
 425 028a 0B4B     		ldr	r3, .L32+12
 426 028c 1C68     		ldr	r4, [r3]
 427 028e 5D68     		ldr	r5, [r3, #4]
 428 0290 0C4B     		ldr	r3, .L32+24
 429 0292 0022     		mov	r2, #0
 430 0294 5968     		ldr	r1, [r3, #4]
 431 0296 AA42     		cmp	r2, r5
 432 0298 94D8     		bhi	.L13
 433 029a 9542     		cmp	r5, r2
 434 029c 01D1     		bne	.L27
 435 029e A142     		cmp	r1, r4
 436 02a0 90D8     		bhi	.L13
 437              	.L27:
 152:speaker/speaker.c **** 	}
 153:speaker/speaker.c **** 	return TRUE;
 154:speaker/speaker.c **** }
 438              		.loc 1 154 0
 439 02a2 0120     		mov	r0, #1
 440              		@ sp needed for prologue
 441 02a4 70BC     		pop	{r4, r5, r6}
 442 02a6 02BC     		pop	{r1}
 443 02a8 0847     		bx	r1
 444              	.L33:
 445 02aa 0000     		.align	2
 446              	.L32:
 447 02ac 00000000 		.word	bufferPlayed
 448 02b0 00000000 		.word	bufferToDownload
 449 02b4 00000000 		.word	sample
 450 02b8 00000000 		.word	totalPlayed
 451 02bc 00000000 		.word	refil
 452 02c0 00000000 		.word	bytesReaded
 453 02c4 00000000 		.word	ws2
 454 02c8 00000000 		.word	buffer
 455 02cc 00000000 		.word	rc
 456 02d0 FF090000 		.word	2559
 457 02d4 00000000 		.word	ws1
 458 02d8 00C006E0 		.word	-536428544
 459 02dc C4090000 		.word	2500
 460 02e0 40420F00 		.word	1000000
 461              	.LFE3:
 462              		.size	play, .-play
 463              		.section	.rodata.str1.4,"aMS",%progbits,1
 464              		.align	2
 465              	.LC31:
 466 0000 6275752E 		.ascii	"buu.wav\000"
 466      77617600 
 467              		.text
 468              		.align	2
ARM GAS  /cygdrive/c/DOCUME~1/mkwapisz/LOCALS~1/Temp/ccrgByGA.s 			page 12


 469              		.global	playBuu
 470              		.code 16
 471              		.thumb_func
 472              		.type	playBuu, %function
 473              	playBuu:
 474              	.LFB4:
 155:speaker/speaker.c **** 
 156:speaker/speaker.c **** void playBuu() {
 475              		.loc 1 156 0
 476 02e4 10B5     		push	{r4, lr}
 477              	.LCFI2:
 157:speaker/speaker.c **** 	rcv = pf_mount(&fatfs);
 478              		.loc 1 157 0
 479 02e6 0C48     		ldr	r0, .L39
 480 02e8 FFF7FEFF 		bl	pf_mount
 481 02ec 0B4C     		ldr	r4, .L39+4
 482 02ee 2060     		str	r0, [r4]
 158:speaker/speaker.c **** 	rcv = pf_open("buu.wav");
 483              		.loc 1 158 0
 484 02f0 0B48     		ldr	r0, .L39+8
 485 02f2 FFF7FEFF 		bl	pf_open
 486 02f6 2060     		str	r0, [r4]
 159:speaker/speaker.c **** 	if (rcv == FR_OK) {
 487              		.loc 1 159 0
 488 02f8 0028     		cmp	r0, #0
 489 02fa 05D1     		bne	.L35
 160:speaker/speaker.c **** 		if (initSpiker()) { //inicjacja nagłówków wave{
 490              		.loc 1 160 0
 491 02fc FFF7FEFF 		bl	initSpiker
 492 0300 0028     		cmp	r0, #0
 493 0302 01D0     		beq	.L35
 161:speaker/speaker.c **** 			if (play()) {
 494              		.loc 1 161 0
 495 0304 FFF7FEFF 		bl	play
 496              	.L35:
 162:speaker/speaker.c **** 
 163:speaker/speaker.c **** 			}
 164:speaker/speaker.c **** 		}
 165:speaker/speaker.c **** 	}
 166:speaker/speaker.c **** 	rcv = pf_mount(0);
 497              		.loc 1 166 0
 498 0308 0020     		mov	r0, #0
 499 030a FFF7FEFF 		bl	pf_mount
 500 030e 034B     		ldr	r3, .L39+4
 167:speaker/speaker.c **** }
 501              		.loc 1 167 0
 502              		@ sp needed for prologue
 503              		.loc 1 166 0
 504 0310 1860     		str	r0, [r3]
 505              		.loc 1 167 0
 506 0312 10BC     		pop	{r4}
 507 0314 01BC     		pop	{r0}
 508 0316 0047     		bx	r0
 509              	.L40:
 510              		.align	2
 511              	.L39:
 512 0318 00000000 		.word	fatfs
ARM GAS  /cygdrive/c/DOCUME~1/mkwapisz/LOCALS~1/Temp/ccrgByGA.s 			page 13


 513 031c 00000000 		.word	rcv
 514 0320 00000000 		.word	.LC31
 515              	.LFE4:
 516              		.size	playBuu, .-playBuu
 517              		.global	bufferPlayed
 518              		.bss
 519              		.type	bufferPlayed, %object
 520              		.size	bufferPlayed, 1
 521              	bufferPlayed:
 522 0000 00       		.space	1
 523              		.global	bufferToDownload
 524              		.type	bufferToDownload, %object
 525              		.size	bufferToDownload, 1
 526              	bufferToDownload:
 527 0001 00       		.space	1
 528              		.global	sample
 529              		.align	1
 530              		.type	sample, %object
 531              		.size	sample, 2
 532              	sample:
 533 0002 0000     		.space	2
 534              		.global	totalPlayed
 535              		.align	2
 536              		.type	totalPlayed, %object
 537              		.size	totalPlayed, 8
 538              	totalPlayed:
 539 0004 00000000 		.space	8
 539      00000000 
 540              		.global	refil
 541              		.type	refil, %object
 542              		.size	refil, 1
 543              	refil:
 544 000c 00       		.space	1
 545              	wave_stream_buf:
 546 000d 00000000 		.space	512
 546      00000000 
 546      00000000 
 546      00000000 
 546      00000000 
 547              		.comm	bytesReaded,2,2
 548              		.comm	rc,4,4
 549              		.comm	wh,12,4
 550              		.comm	ws1,32,4
 551              		.comm	ws2,12,4
 552              		.comm	fatfs,48,4
 553              		.comm	rcv,4,4
 554              		.comm	buffer,5120,1
 555 020d 000000   		.section	.debug_frame,"",%progbits
 556              	.Lframe0:
 557 0000 0C000000 		.4byte	.LECIE0-.LSCIE0
 558              	.LSCIE0:
 559 0004 FFFFFFFF 		.4byte	0xffffffff
 560 0008 01       		.byte	0x1
 561 0009 00       		.ascii	"\000"
 562 000a 01       		.uleb128 0x1
 563 000b 7C       		.sleb128 -4
 564 000c 0E       		.byte	0xe
ARM GAS  /cygdrive/c/DOCUME~1/mkwapisz/LOCALS~1/Temp/ccrgByGA.s 			page 14


 565 000d 0C       		.byte	0xc
 566 000e 0D       		.uleb128 0xd
 567 000f 00       		.uleb128 0x0
 568              		.align	2
 569              	.LECIE0:
 570              	.LSFDE0:
 571 0010 18000000 		.4byte	.LEFDE0-.LASFDE0
 572              	.LASFDE0:
 573 0014 00000000 		.4byte	.Lframe0
 574 0018 00000000 		.4byte	.LFB2
 575 001c 64010000 		.4byte	.LFE2-.LFB2
 576 0020 42       		.byte	0x4
 577              		.4byte	.LCFI0-.LFB2
 578 0021 0E       		.byte	0xe
 579 0022 0C       		.uleb128 0xc
 580 0023 84       		.byte	0x84
 581 0024 03       		.uleb128 0x3
 582 0025 85       		.byte	0x85
 583 0026 02       		.uleb128 0x2
 584 0027 8E       		.byte	0x8e
 585 0028 01       		.uleb128 0x1
 586 0029 000000   		.align	2
 587              	.LEFDE0:
 588              	.LSFDE2:
 589 002c 18000000 		.4byte	.LEFDE2-.LASFDE2
 590              	.LASFDE2:
 591 0030 00000000 		.4byte	.Lframe0
 592 0034 64010000 		.4byte	.LFB3
 593 0038 80010000 		.4byte	.LFE3-.LFB3
 594 003c 42       		.byte	0x4
 595              		.4byte	.LCFI1-.LFB3
 596 003d 0E       		.byte	0xe
 597 003e 10       		.uleb128 0x10
 598 003f 84       		.byte	0x84
 599 0040 04       		.uleb128 0x4
 600 0041 85       		.byte	0x85
 601 0042 03       		.uleb128 0x3
 602 0043 86       		.byte	0x86
 603 0044 02       		.uleb128 0x2
 604 0045 8E       		.byte	0x8e
 605 0046 01       		.uleb128 0x1
 606 0047 00       		.align	2
 607              	.LEFDE2:
 608              	.LSFDE4:
 609 0048 14000000 		.4byte	.LEFDE4-.LASFDE4
 610              	.LASFDE4:
 611 004c 00000000 		.4byte	.Lframe0
 612 0050 E4020000 		.4byte	.LFB4
 613 0054 40000000 		.4byte	.LFE4-.LFB4
 614 0058 42       		.byte	0x4
 615              		.4byte	.LCFI2-.LFB4
 616 0059 0E       		.byte	0xe
 617 005a 08       		.uleb128 0x8
 618 005b 84       		.byte	0x84
 619 005c 02       		.uleb128 0x2
 620 005d 8E       		.byte	0x8e
 621 005e 01       		.uleb128 0x1
ARM GAS  /cygdrive/c/DOCUME~1/mkwapisz/LOCALS~1/Temp/ccrgByGA.s 			page 15


 622 005f 00       		.align	2
 623              	.LEFDE4:
 624              		.file 2 "speaker/../timer/../startup/general.h"
 625              		.file 3 "speaker/../sd/integer.h"
 626              		.file 4 "speaker/../sd/pff.h"
 627              		.file 5 "speaker/speaker.h"
 628              		.text
 629              	.Letext0:
 630              		.section	.debug_loc,"",%progbits
 631              	.Ldebug_loc0:
 632              	.LLST0:
 633 0000 00000000 		.4byte	.LFB2-.Ltext0
 634 0004 02000000 		.4byte	.LCFI0-.Ltext0
 635 0008 0100     		.2byte	0x1
 636 000a 5D       		.byte	0x5d
 637 000b 02000000 		.4byte	.LCFI0-.Ltext0
 638 000f 64010000 		.4byte	.LFE2-.Ltext0
 639 0013 0200     		.2byte	0x2
 640 0015 7D       		.byte	0x7d
 641 0016 0C       		.sleb128 12
 642 0017 00000000 		.4byte	0x0
 643 001b 00000000 		.4byte	0x0
 644              	.LLST1:
 645 001f 64010000 		.4byte	.LFB3-.Ltext0
 646 0023 66010000 		.4byte	.LCFI1-.Ltext0
 647 0027 0100     		.2byte	0x1
 648 0029 5D       		.byte	0x5d
 649 002a 66010000 		.4byte	.LCFI1-.Ltext0
 650 002e E4020000 		.4byte	.LFE3-.Ltext0
 651 0032 0200     		.2byte	0x2
 652 0034 7D       		.byte	0x7d
 653 0035 10       		.sleb128 16
 654 0036 00000000 		.4byte	0x0
 655 003a 00000000 		.4byte	0x0
 656              	.LLST2:
 657 003e E4020000 		.4byte	.LFB4-.Ltext0
 658 0042 E6020000 		.4byte	.LCFI2-.Ltext0
 659 0046 0100     		.2byte	0x1
 660 0048 5D       		.byte	0x5d
 661 0049 E6020000 		.4byte	.LCFI2-.Ltext0
 662 004d 24030000 		.4byte	.LFE4-.Ltext0
 663 0051 0200     		.2byte	0x2
 664 0053 7D       		.byte	0x7d
 665 0054 08       		.sleb128 8
 666 0055 00000000 		.4byte	0x0
 667 0059 00000000 		.4byte	0x0
 668              		.section	.debug_info
 669 0000 9A040000 		.4byte	0x49a
 670 0004 0200     		.2byte	0x2
 671 0006 00000000 		.4byte	.Ldebug_abbrev0
 672 000a 04       		.byte	0x4
 673 000b 01       		.uleb128 0x1
 674 000c 00000000 		.4byte	.Ldebug_line0
 675 0010 24030000 		.4byte	.Letext0
 676 0014 00000000 		.4byte	.Ltext0
 677 0018 E8000000 		.4byte	.LASF69
 678 001c 01       		.byte	0x1
ARM GAS  /cygdrive/c/DOCUME~1/mkwapisz/LOCALS~1/Temp/ccrgByGA.s 			page 16


 679 001d 44020000 		.4byte	.LASF70
 680 0021 78000000 		.4byte	.LASF71
 681 0025 02       		.uleb128 0x2
 682 0026 696E7400 		.ascii	"int\000"
 683 002a 04       		.byte	0x4
 684 002b 05       		.byte	0x5
 685 002c 03       		.uleb128 0x3
 686 002d B5010000 		.4byte	.LASF0
 687 0031 04       		.byte	0x4
 688 0032 07       		.byte	0x7
 689 0033 03       		.uleb128 0x3
 690 0034 92010000 		.4byte	.LASF1
 691 0038 01       		.byte	0x1
 692 0039 06       		.byte	0x6
 693 003a 03       		.uleb128 0x3
 694 003b 7A010000 		.4byte	.LASF2
 695 003f 01       		.byte	0x1
 696 0040 08       		.byte	0x8
 697 0041 04       		.uleb128 0x4
 698 0042 9F000000 		.4byte	.LASF5
 699 0046 03       		.byte	0x3
 700 0047 15       		.byte	0x15
 701 0048 3A000000 		.4byte	0x3a
 702 004c 03       		.uleb128 0x3
 703 004d 4A000000 		.4byte	.LASF3
 704 0051 02       		.byte	0x2
 705 0052 05       		.byte	0x5
 706 0053 03       		.uleb128 0x3
 707 0054 DB010000 		.4byte	.LASF4
 708 0058 02       		.byte	0x2
 709 0059 07       		.byte	0x7
 710 005a 04       		.uleb128 0x4
 711 005b B9000000 		.4byte	.LASF6
 712 005f 03       		.byte	0x3
 713 0060 1A       		.byte	0x1a
 714 0061 53000000 		.4byte	0x53
 715 0065 03       		.uleb128 0x3
 716 0066 2A010000 		.4byte	.LASF7
 717 006a 04       		.byte	0x4
 718 006b 05       		.byte	0x5
 719 006c 03       		.uleb128 0x3
 720 006d 63020000 		.4byte	.LASF8
 721 0071 04       		.byte	0x4
 722 0072 07       		.byte	0x7
 723 0073 04       		.uleb128 0x4
 724 0074 69010000 		.4byte	.LASF9
 725 0078 03       		.byte	0x3
 726 0079 20       		.byte	0x20
 727 007a 6C000000 		.4byte	0x6c
 728 007e 05       		.uleb128 0x5
 729 007f 5D010000 		.4byte	0x15d
 730 0083 39000000 		.4byte	.LASF72
 731 0087 30       		.byte	0x30
 732 0088 04       		.byte	0x4
 733 0089 45       		.byte	0x45
 734 008a 06       		.uleb128 0x6
 735 008b 21000000 		.4byte	.LASF10
ARM GAS  /cygdrive/c/DOCUME~1/mkwapisz/LOCALS~1/Temp/ccrgByGA.s 			page 17


 736 008f 04       		.byte	0x4
 737 0090 46       		.byte	0x46
 738 0091 41000000 		.4byte	0x41
 739 0095 02       		.byte	0x2
 740 0096 23       		.byte	0x23
 741 0097 00       		.uleb128 0x0
 742 0098 06       		.uleb128 0x6
 743 0099 3D010000 		.4byte	.LASF11
 744 009d 04       		.byte	0x4
 745 009e 47       		.byte	0x47
 746 009f 41000000 		.4byte	0x41
 747 00a3 02       		.byte	0x2
 748 00a4 23       		.byte	0x23
 749 00a5 01       		.uleb128 0x1
 750 00a6 06       		.uleb128 0x6
 751 00a7 13010000 		.4byte	.LASF12
 752 00ab 04       		.byte	0x4
 753 00ac 48       		.byte	0x48
 754 00ad 41000000 		.4byte	0x41
 755 00b1 02       		.byte	0x2
 756 00b2 23       		.byte	0x23
 757 00b3 02       		.uleb128 0x2
 758 00b4 06       		.uleb128 0x6
 759 00b5 75020000 		.4byte	.LASF13
 760 00b9 04       		.byte	0x4
 761 00ba 49       		.byte	0x49
 762 00bb 41000000 		.4byte	0x41
 763 00bf 02       		.byte	0x2
 764 00c0 23       		.byte	0x23
 765 00c1 03       		.uleb128 0x3
 766 00c2 06       		.uleb128 0x6
 767 00c3 A4000000 		.4byte	.LASF14
 768 00c7 04       		.byte	0x4
 769 00c8 4A       		.byte	0x4a
 770 00c9 5A000000 		.4byte	0x5a
 771 00cd 02       		.byte	0x2
 772 00ce 23       		.byte	0x23
 773 00cf 04       		.uleb128 0x4
 774 00d0 07       		.uleb128 0x7
 775 00d1 62756600 		.ascii	"buf\000"
 776 00d5 04       		.byte	0x4
 777 00d6 4B       		.byte	0x4b
 778 00d7 5D010000 		.4byte	0x15d
 779 00db 02       		.byte	0x2
 780 00dc 23       		.byte	0x23
 781 00dd 08       		.uleb128 0x8
 782 00de 06       		.uleb128 0x6
 783 00df 6E000000 		.4byte	.LASF15
 784 00e3 04       		.byte	0x4
 785 00e4 4C       		.byte	0x4c
 786 00e5 73000000 		.4byte	0x73
 787 00e9 02       		.byte	0x2
 788 00ea 23       		.byte	0x23
 789 00eb 0C       		.uleb128 0xc
 790 00ec 06       		.uleb128 0x6
 791 00ed F3010000 		.4byte	.LASF16
 792 00f1 04       		.byte	0x4
ARM GAS  /cygdrive/c/DOCUME~1/mkwapisz/LOCALS~1/Temp/ccrgByGA.s 			page 18


 793 00f2 4D       		.byte	0x4d
 794 00f3 73000000 		.4byte	0x73
 795 00f7 02       		.byte	0x2
 796 00f8 23       		.byte	0x23
 797 00f9 10       		.uleb128 0x10
 798 00fa 06       		.uleb128 0x6
 799 00fb 49010000 		.4byte	.LASF17
 800 00ff 04       		.byte	0x4
 801 0100 4E       		.byte	0x4e
 802 0101 73000000 		.4byte	0x73
 803 0105 02       		.byte	0x2
 804 0106 23       		.byte	0x23
 805 0107 14       		.uleb128 0x14
 806 0108 06       		.uleb128 0x6
 807 0109 96000000 		.4byte	.LASF18
 808 010d 04       		.byte	0x4
 809 010e 4F       		.byte	0x4f
 810 010f 73000000 		.4byte	0x73
 811 0113 02       		.byte	0x2
 812 0114 23       		.byte	0x23
 813 0115 18       		.uleb128 0x18
 814 0116 06       		.uleb128 0x6
 815 0117 CA010000 		.4byte	.LASF19
 816 011b 04       		.byte	0x4
 817 011c 50       		.byte	0x50
 818 011d 73000000 		.4byte	0x73
 819 0121 02       		.byte	0x2
 820 0122 23       		.byte	0x23
 821 0123 1C       		.uleb128 0x1c
 822 0124 06       		.uleb128 0x6
 823 0125 94020000 		.4byte	.LASF20
 824 0129 04       		.byte	0x4
 825 012a 51       		.byte	0x51
 826 012b 73000000 		.4byte	0x73
 827 012f 02       		.byte	0x2
 828 0130 23       		.byte	0x23
 829 0131 20       		.uleb128 0x20
 830 0132 06       		.uleb128 0x6
 831 0133 09010000 		.4byte	.LASF21
 832 0137 04       		.byte	0x4
 833 0138 52       		.byte	0x52
 834 0139 73000000 		.4byte	0x73
 835 013d 02       		.byte	0x2
 836 013e 23       		.byte	0x23
 837 013f 24       		.uleb128 0x24
 838 0140 06       		.uleb128 0x6
 839 0141 D4020000 		.4byte	.LASF22
 840 0145 04       		.byte	0x4
 841 0146 53       		.byte	0x53
 842 0147 73000000 		.4byte	0x73
 843 014b 02       		.byte	0x2
 844 014c 23       		.byte	0x23
 845 014d 28       		.uleb128 0x28
 846 014e 06       		.uleb128 0x6
 847 014f 43010000 		.4byte	.LASF23
 848 0153 04       		.byte	0x4
 849 0154 54       		.byte	0x54
ARM GAS  /cygdrive/c/DOCUME~1/mkwapisz/LOCALS~1/Temp/ccrgByGA.s 			page 19


 850 0155 73000000 		.4byte	0x73
 851 0159 02       		.byte	0x2
 852 015a 23       		.byte	0x23
 853 015b 2C       		.uleb128 0x2c
 854 015c 00       		.byte	0x0
 855 015d 08       		.uleb128 0x8
 856 015e 04       		.byte	0x4
 857 015f 41000000 		.4byte	0x41
 858 0163 04       		.uleb128 0x4
 859 0164 5D020000 		.4byte	.LASF24
 860 0168 04       		.byte	0x4
 861 0169 55       		.byte	0x55
 862 016a 7E000000 		.4byte	0x7e
 863 016e 03       		.uleb128 0x3
 864 016f 63020000 		.4byte	.LASF8
 865 0173 04       		.byte	0x4
 866 0174 07       		.byte	0x7
 867 0175 03       		.uleb128 0x3
 868 0176 EE010000 		.4byte	.LASF25
 869 017a 01       		.byte	0x1
 870 017b 08       		.byte	0x8
 871 017c 09       		.uleb128 0x9
 872 017d B5010000 		.4byte	0x1b5
 873 0181 04       		.byte	0x4
 874 0182 04       		.byte	0x4
 875 0183 6D       		.byte	0x6d
 876 0184 0A       		.uleb128 0xa
 877 0185 BE000000 		.4byte	.LASF26
 878 0189 00       		.sleb128 0
 879 018a 0A       		.uleb128 0xa
 880 018b C4000000 		.4byte	.LASF27
 881 018f 01       		.sleb128 1
 882 0190 0A       		.uleb128 0xa
 883 0191 51010000 		.4byte	.LASF28
 884 0195 02       		.sleb128 2
 885 0196 0A       		.uleb128 0xa
 886 0197 89020000 		.4byte	.LASF29
 887 019b 03       		.sleb128 3
 888 019c 0A       		.uleb128 0xa
 889 019d 6F010000 		.4byte	.LASF30
 890 01a1 04       		.sleb128 4
 891 01a2 0A       		.uleb128 0xa
 892 01a3 54000000 		.4byte	.LASF31
 893 01a7 05       		.sleb128 5
 894 01a8 0A       		.uleb128 0xa
 895 01a9 1C020000 		.4byte	.LASF32
 896 01ad 06       		.sleb128 6
 897 01ae 0A       		.uleb128 0xa
 898 01af 10000000 		.4byte	.LASF33
 899 01b3 07       		.sleb128 7
 900 01b4 00       		.byte	0x0
 901 01b5 04       		.uleb128 0x4
 902 01b6 DF020000 		.4byte	.LASF34
 903 01ba 04       		.byte	0x4
 904 01bb 76       		.byte	0x76
 905 01bc 7C010000 		.4byte	0x17c
 906 01c0 03       		.uleb128 0x3
ARM GAS  /cygdrive/c/DOCUME~1/mkwapisz/LOCALS~1/Temp/ccrgByGA.s 			page 20


 907 01c1 F4000000 		.4byte	.LASF35
 908 01c5 08       		.byte	0x8
 909 01c6 05       		.byte	0x5
 910 01c7 03       		.uleb128 0x3
 911 01c8 9E010000 		.4byte	.LASF36
 912 01cc 08       		.byte	0x8
 913 01cd 07       		.byte	0x7
 914 01ce 0B       		.uleb128 0xb
 915 01cf 74553800 		.ascii	"tU8\000"
 916 01d3 02       		.byte	0x2
 917 01d4 46       		.byte	0x46
 918 01d5 3A000000 		.4byte	0x3a
 919 01d9 04       		.uleb128 0x4
 920 01da 17020000 		.4byte	.LASF37
 921 01de 02       		.byte	0x2
 922 01df 47       		.byte	0x47
 923 01e0 53000000 		.4byte	0x53
 924 01e4 04       		.uleb128 0x4
 925 01e5 AE000000 		.4byte	.LASF38
 926 01e9 02       		.byte	0x2
 927 01ea 48       		.byte	0x48
 928 01eb 2C000000 		.4byte	0x2c
 929 01ef 04       		.uleb128 0x4
 930 01f0 00000000 		.4byte	.LASF39
 931 01f4 02       		.byte	0x2
 932 01f5 4C       		.byte	0x4c
 933 01f6 3A000000 		.4byte	0x3a
 934 01fa 0C       		.uleb128 0xc
 935 01fb 2D020000 		.4byte	0x22d
 936 01ff 0C       		.byte	0xc
 937 0200 05       		.byte	0x5
 938 0201 11       		.byte	0x11
 939 0202 06       		.uleb128 0x6
 940 0203 C2010000 		.4byte	.LASF40
 941 0207 05       		.byte	0x5
 942 0208 12       		.byte	0x12
 943 0209 E4010000 		.4byte	0x1e4
 944 020d 02       		.byte	0x2
 945 020e 23       		.byte	0x23
 946 020f 00       		.uleb128 0x0
 947 0210 06       		.uleb128 0x6
 948 0211 88010000 		.4byte	.LASF41
 949 0215 05       		.byte	0x5
 950 0216 13       		.byte	0x13
 951 0217 E4010000 		.4byte	0x1e4
 952 021b 02       		.byte	0x2
 953 021c 23       		.byte	0x23
 954 021d 04       		.uleb128 0x4
 955 021e 06       		.uleb128 0x6
 956 021f D4010000 		.4byte	.LASF42
 957 0223 05       		.byte	0x5
 958 0224 14       		.byte	0x14
 959 0225 E4010000 		.4byte	0x1e4
 960 0229 02       		.byte	0x2
 961 022a 23       		.byte	0x23
 962 022b 08       		.uleb128 0x8
 963 022c 00       		.byte	0x0
ARM GAS  /cygdrive/c/DOCUME~1/mkwapisz/LOCALS~1/Temp/ccrgByGA.s 			page 21


 964 022d 04       		.uleb128 0x4
 965 022e 5E010000 		.4byte	.LASF43
 966 0232 05       		.byte	0x5
 967 0233 15       		.byte	0x15
 968 0234 FA010000 		.4byte	0x1fa
 969 0238 0C       		.uleb128 0xc
 970 0239 B1020000 		.4byte	0x2b1
 971 023d 20       		.byte	0x20
 972 023e 05       		.byte	0x5
 973 023f 17       		.byte	0x17
 974 0240 06       		.uleb128 0x6
 975 0241 F8020000 		.4byte	.LASF44
 976 0245 05       		.byte	0x5
 977 0246 18       		.byte	0x18
 978 0247 E4010000 		.4byte	0x1e4
 979 024b 02       		.byte	0x2
 980 024c 23       		.byte	0x23
 981 024d 00       		.uleb128 0x0
 982 024e 06       		.uleb128 0x6
 983 024f C7020000 		.4byte	.LASF45
 984 0253 05       		.byte	0x5
 985 0254 19       		.byte	0x19
 986 0255 E4010000 		.4byte	0x1e4
 987 0259 02       		.byte	0x2
 988 025a 23       		.byte	0x23
 989 025b 04       		.uleb128 0x4
 990 025c 06       		.uleb128 0x6
 991 025d 18010000 		.4byte	.LASF46
 992 0261 05       		.byte	0x5
 993 0262 1A       		.byte	0x1a
 994 0263 D9010000 		.4byte	0x1d9
 995 0267 02       		.byte	0x2
 996 0268 23       		.byte	0x23
 997 0269 08       		.uleb128 0x8
 998 026a 06       		.uleb128 0x6
 999 026b D0000000 		.4byte	.LASF47
 1000 026f 05       		.byte	0x5
 1001 0270 1B       		.byte	0x1b
 1002 0271 E4010000 		.4byte	0x1e4
 1003 0275 02       		.byte	0x2
 1004 0276 23       		.byte	0x23
 1005 0277 0C       		.uleb128 0xc
 1006 0278 06       		.uleb128 0x6
 1007 0279 2B020000 		.4byte	.LASF48
 1008 027d 05       		.byte	0x5
 1009 027e 1C       		.byte	0x1c
 1010 027f E4010000 		.4byte	0x1e4
 1011 0283 02       		.byte	0x2
 1012 0284 23       		.byte	0x23
 1013 0285 10       		.uleb128 0x10
 1014 0286 06       		.uleb128 0x6
 1015 0287 E7020000 		.4byte	.LASF49
 1016 028b 05       		.byte	0x5
 1017 028c 1D       		.byte	0x1d
 1018 028d E4010000 		.4byte	0x1e4
 1019 0291 02       		.byte	0x2
 1020 0292 23       		.byte	0x23
ARM GAS  /cygdrive/c/DOCUME~1/mkwapisz/LOCALS~1/Temp/ccrgByGA.s 			page 22


 1021 0293 14       		.uleb128 0x14
 1022 0294 06       		.uleb128 0x6
 1023 0295 0C020000 		.4byte	.LASF50
 1024 0299 05       		.byte	0x5
 1025 029a 1E       		.byte	0x1e
 1026 029b E4010000 		.4byte	0x1e4
 1027 029f 02       		.byte	0x2
 1028 02a0 23       		.byte	0x23
 1029 02a1 18       		.uleb128 0x18
 1030 02a2 06       		.uleb128 0x6
 1031 02a3 7B020000 		.4byte	.LASF51
 1032 02a7 05       		.byte	0x5
 1033 02a8 1F       		.byte	0x1f
 1034 02a9 E4010000 		.4byte	0x1e4
 1035 02ad 02       		.byte	0x2
 1036 02ae 23       		.byte	0x23
 1037 02af 1C       		.uleb128 0x1c
 1038 02b0 00       		.byte	0x0
 1039 02b1 04       		.uleb128 0x4
 1040 02b2 B1020000 		.4byte	.LASF52
 1041 02b6 05       		.byte	0x5
 1042 02b7 20       		.byte	0x20
 1043 02b8 38020000 		.4byte	0x238
 1044 02bc 0C       		.uleb128 0xc
 1045 02bd EF020000 		.4byte	0x2ef
 1046 02c1 0C       		.byte	0xc
 1047 02c2 05       		.byte	0x5
 1048 02c3 23       		.byte	0x23
 1049 02c4 06       		.uleb128 0x6
 1050 02c5 F8020000 		.4byte	.LASF44
 1051 02c9 05       		.byte	0x5
 1052 02ca 24       		.byte	0x24
 1053 02cb E4010000 		.4byte	0x1e4
 1054 02cf 02       		.byte	0x2
 1055 02d0 23       		.byte	0x23
 1056 02d1 00       		.uleb128 0x0
 1057 02d2 06       		.uleb128 0x6
 1058 02d3 C7020000 		.4byte	.LASF45
 1059 02d7 05       		.byte	0x5
 1060 02d8 25       		.byte	0x25
 1061 02d9 E4010000 		.4byte	0x1e4
 1062 02dd 02       		.byte	0x2
 1063 02de 23       		.byte	0x23
 1064 02df 04       		.uleb128 0x4
 1065 02e0 06       		.uleb128 0x6
 1066 02e1 DC000000 		.4byte	.LASF53
 1067 02e5 05       		.byte	0x5
 1068 02e6 26       		.byte	0x26
 1069 02e7 E4010000 		.4byte	0x1e4
 1070 02eb 02       		.byte	0x2
 1071 02ec 23       		.byte	0x23
 1072 02ed 08       		.uleb128 0x8
 1073 02ee 00       		.byte	0x0
 1074 02ef 04       		.uleb128 0x4
 1075 02f0 33010000 		.4byte	.LASF54
 1076 02f4 05       		.byte	0x5
 1077 02f5 27       		.byte	0x27
ARM GAS  /cygdrive/c/DOCUME~1/mkwapisz/LOCALS~1/Temp/ccrgByGA.s 			page 23


 1078 02f6 BC020000 		.4byte	0x2bc
 1079 02fa 0D       		.uleb128 0xd
 1080 02fb 21030000 		.4byte	0x321
 1081 02ff 01       		.byte	0x1
 1082 0300 9A020000 		.4byte	.LASF55
 1083 0304 01       		.byte	0x1
 1084 0305 0E       		.byte	0xe
 1085 0306 01       		.byte	0x1
 1086 0307 EF010000 		.4byte	0x1ef
 1087 030b 00000000 		.4byte	.LFB2
 1088 030f 64010000 		.4byte	.LFE2
 1089 0313 00000000 		.4byte	.LLST0
 1090 0317 0E       		.uleb128 0xe
 1091 0318 6900     		.ascii	"i\000"
 1092 031a 01       		.byte	0x1
 1093 031b 11       		.byte	0x11
 1094 031c E4010000 		.4byte	0x1e4
 1095 0320 00       		.byte	0x0
 1096 0321 0F       		.uleb128 0xf
 1097 0322 68030000 		.4byte	0x368
 1098 0326 01       		.byte	0x1
 1099 0327 CF010000 		.4byte	.LASF56
 1100 032b 01       		.byte	0x1
 1101 032c 64       		.byte	0x64
 1102 032d EF010000 		.4byte	0x1ef
 1103 0331 64010000 		.4byte	.LFB3
 1104 0335 E4020000 		.4byte	.LFE3
 1105 0339 1F000000 		.4byte	.LLST1
 1106 033d 0E       		.uleb128 0xe
 1107 033e 6900     		.ascii	"i\000"
 1108 0340 01       		.byte	0x1
 1109 0341 6D       		.byte	0x6d
 1110 0342 E4010000 		.4byte	0x1e4
 1111 0346 10       		.uleb128 0x10
 1112 0347 41000000 		.4byte	.LASF57
 1113 034b 01       		.byte	0x1
 1114 034c 76       		.byte	0x76
 1115 034d E4010000 		.4byte	0x1e4
 1116 0351 10       		.uleb128 0x10
 1117 0352 36020000 		.4byte	.LASF58
 1118 0356 01       		.byte	0x1
 1119 0357 77       		.byte	0x77
 1120 0358 E4010000 		.4byte	0x1e4
 1121 035c 10       		.uleb128 0x10
 1122 035d 06000000 		.4byte	.LASF59
 1123 0361 01       		.byte	0x1
 1124 0362 79       		.byte	0x79
 1125 0363 E4010000 		.4byte	0x1e4
 1126 0367 00       		.byte	0x0
 1127 0368 11       		.uleb128 0x11
 1128 0369 01       		.byte	0x1
 1129 036a F0020000 		.4byte	.LASF73
 1130 036e 01       		.byte	0x1
 1131 036f 9C       		.byte	0x9c
 1132 0370 E4020000 		.4byte	.LFB4
 1133 0374 24030000 		.4byte	.LFE4
 1134 0378 3E000000 		.4byte	.LLST2
ARM GAS  /cygdrive/c/DOCUME~1/mkwapisz/LOCALS~1/Temp/ccrgByGA.s 			page 24


 1135 037c 12       		.uleb128 0x12
 1136 037d 8D030000 		.4byte	0x38d
 1137 0381 CE010000 		.4byte	0x1ce
 1138 0385 13       		.uleb128 0x13
 1139 0386 6E010000 		.4byte	0x16e
 1140 038a FF01     		.2byte	0x1ff
 1141 038c 00       		.byte	0x0
 1142 038d 14       		.uleb128 0x14
 1143 038e 29000000 		.4byte	.LASF60
 1144 0392 01       		.byte	0x1
 1145 0393 03       		.byte	0x3
 1146 0394 7C030000 		.4byte	0x37c
 1147 0398 05       		.byte	0x5
 1148 0399 03       		.byte	0x3
 1149 039a 0D000000 		.4byte	wave_stream_buf
 1150 039e 15       		.uleb128 0x15
 1151 039f A5020000 		.4byte	.LASF61
 1152 03a3 01       		.byte	0x1
 1153 03a4 05       		.byte	0x5
 1154 03a5 5A000000 		.4byte	0x5a
 1155 03a9 01       		.byte	0x1
 1156 03aa 05       		.byte	0x5
 1157 03ab 03       		.byte	0x3
 1158 03ac 00000000 		.4byte	bytesReaded
 1159 03b0 16       		.uleb128 0x16
 1160 03b1 726300   		.ascii	"rc\000"
 1161 03b4 01       		.byte	0x1
 1162 03b5 06       		.byte	0x6
 1163 03b6 B5010000 		.4byte	0x1b5
 1164 03ba 01       		.byte	0x1
 1165 03bb 05       		.byte	0x5
 1166 03bc 03       		.byte	0x3
 1167 03bd 00000000 		.4byte	rc
 1168 03c1 16       		.uleb128 0x16
 1169 03c2 776800   		.ascii	"wh\000"
 1170 03c5 01       		.byte	0x1
 1171 03c6 08       		.byte	0x8
 1172 03c7 2D020000 		.4byte	0x22d
 1173 03cb 01       		.byte	0x1
 1174 03cc 05       		.byte	0x5
 1175 03cd 03       		.byte	0x3
 1176 03ce 00000000 		.4byte	wh
 1177 03d2 16       		.uleb128 0x16
 1178 03d3 77733100 		.ascii	"ws1\000"
 1179 03d7 01       		.byte	0x1
 1180 03d8 09       		.byte	0x9
 1181 03d9 B1020000 		.4byte	0x2b1
 1182 03dd 01       		.byte	0x1
 1183 03de 05       		.byte	0x5
 1184 03df 03       		.byte	0x3
 1185 03e0 00000000 		.4byte	ws1
 1186 03e4 16       		.uleb128 0x16
 1187 03e5 77733200 		.ascii	"ws2\000"
 1188 03e9 01       		.byte	0x1
 1189 03ea 0A       		.byte	0xa
 1190 03eb EF020000 		.4byte	0x2ef
 1191 03ef 01       		.byte	0x1
ARM GAS  /cygdrive/c/DOCUME~1/mkwapisz/LOCALS~1/Temp/ccrgByGA.s 			page 25


 1192 03f0 05       		.byte	0x5
 1193 03f1 03       		.byte	0x3
 1194 03f2 00000000 		.4byte	ws2
 1195 03f6 15       		.uleb128 0x15
 1196 03f7 B3000000 		.4byte	.LASF62
 1197 03fb 01       		.byte	0x1
 1198 03fc 0B       		.byte	0xb
 1199 03fd 63010000 		.4byte	0x163
 1200 0401 01       		.byte	0x1
 1201 0402 05       		.byte	0x5
 1202 0403 03       		.byte	0x3
 1203 0404 00000000 		.4byte	fatfs
 1204 0408 16       		.uleb128 0x16
 1205 0409 72637600 		.ascii	"rcv\000"
 1206 040d 01       		.byte	0x1
 1207 040e 0C       		.byte	0xc
 1208 040f B5010000 		.4byte	0x1b5
 1209 0413 01       		.byte	0x1
 1210 0414 05       		.byte	0x5
 1211 0415 03       		.byte	0x3
 1212 0416 00000000 		.4byte	rcv
 1213 041a 12       		.uleb128 0x12
 1214 041b 31040000 		.4byte	0x431
 1215 041f CE010000 		.4byte	0x1ce
 1216 0423 17       		.uleb128 0x17
 1217 0424 6E010000 		.4byte	0x16e
 1218 0428 01       		.byte	0x1
 1219 0429 13       		.uleb128 0x13
 1220 042a 6E010000 		.4byte	0x16e
 1221 042e FF09     		.2byte	0x9ff
 1222 0430 00       		.byte	0x0
 1223 0431 15       		.uleb128 0x15
 1224 0432 56020000 		.4byte	.LASF63
 1225 0436 01       		.byte	0x1
 1226 0437 5C       		.byte	0x5c
 1227 0438 1A040000 		.4byte	0x41a
 1228 043c 01       		.byte	0x1
 1229 043d 05       		.byte	0x5
 1230 043e 03       		.byte	0x3
 1231 043f 00000000 		.4byte	buffer
 1232 0443 15       		.uleb128 0x15
 1233 0444 BA020000 		.4byte	.LASF64
 1234 0448 01       		.byte	0x1
 1235 0449 5E       		.byte	0x5e
 1236 044a CE010000 		.4byte	0x1ce
 1237 044e 01       		.byte	0x1
 1238 044f 05       		.byte	0x5
 1239 0450 03       		.byte	0x3
 1240 0451 00000000 		.4byte	bufferPlayed
 1241 0455 15       		.uleb128 0x15
 1242 0456 FB010000 		.4byte	.LASF65
 1243 045a 01       		.byte	0x1
 1244 045b 5F       		.byte	0x5f
 1245 045c CE010000 		.4byte	0x1ce
 1246 0460 01       		.byte	0x1
 1247 0461 05       		.byte	0x5
 1248 0462 03       		.byte	0x3
ARM GAS  /cygdrive/c/DOCUME~1/mkwapisz/LOCALS~1/Temp/ccrgByGA.s 			page 26


 1249 0463 00000000 		.4byte	bufferToDownload
 1250 0467 15       		.uleb128 0x15
 1251 0468 02010000 		.4byte	.LASF66
 1252 046c 01       		.byte	0x1
 1253 046d 60       		.byte	0x60
 1254 046e D9010000 		.4byte	0x1d9
 1255 0472 01       		.byte	0x1
 1256 0473 05       		.byte	0x5
 1257 0474 03       		.byte	0x3
 1258 0475 00000000 		.4byte	sample
 1259 0479 15       		.uleb128 0x15
 1260 047a 62000000 		.4byte	.LASF67
 1261 047e 01       		.byte	0x1
 1262 047f 61       		.byte	0x61
 1263 0480 C7010000 		.4byte	0x1c7
 1264 0484 01       		.byte	0x1
 1265 0485 05       		.byte	0x5
 1266 0486 03       		.byte	0x3
 1267 0487 00000000 		.4byte	totalPlayed
 1268 048b 15       		.uleb128 0x15
 1269 048c 24010000 		.4byte	.LASF68
 1270 0490 01       		.byte	0x1
 1271 0491 62       		.byte	0x62
 1272 0492 EF010000 		.4byte	0x1ef
 1273 0496 01       		.byte	0x1
 1274 0497 05       		.byte	0x5
 1275 0498 03       		.byte	0x3
 1276 0499 00000000 		.4byte	refil
 1277 049d 00       		.byte	0x0
 1278              		.section	.debug_abbrev
 1279 0000 01       		.uleb128 0x1
 1280 0001 11       		.uleb128 0x11
 1281 0002 01       		.byte	0x1
 1282 0003 10       		.uleb128 0x10
 1283 0004 06       		.uleb128 0x6
 1284 0005 12       		.uleb128 0x12
 1285 0006 01       		.uleb128 0x1
 1286 0007 11       		.uleb128 0x11
 1287 0008 01       		.uleb128 0x1
 1288 0009 25       		.uleb128 0x25
 1289 000a 0E       		.uleb128 0xe
 1290 000b 13       		.uleb128 0x13
 1291 000c 0B       		.uleb128 0xb
 1292 000d 03       		.uleb128 0x3
 1293 000e 0E       		.uleb128 0xe
 1294 000f 1B       		.uleb128 0x1b
 1295 0010 0E       		.uleb128 0xe
 1296 0011 00       		.byte	0x0
 1297 0012 00       		.byte	0x0
 1298 0013 02       		.uleb128 0x2
 1299 0014 24       		.uleb128 0x24
 1300 0015 00       		.byte	0x0
 1301 0016 03       		.uleb128 0x3
 1302 0017 08       		.uleb128 0x8
 1303 0018 0B       		.uleb128 0xb
 1304 0019 0B       		.uleb128 0xb
 1305 001a 3E       		.uleb128 0x3e
ARM GAS  /cygdrive/c/DOCUME~1/mkwapisz/LOCALS~1/Temp/ccrgByGA.s 			page 27


 1306 001b 0B       		.uleb128 0xb
 1307 001c 00       		.byte	0x0
 1308 001d 00       		.byte	0x0
 1309 001e 03       		.uleb128 0x3
 1310 001f 24       		.uleb128 0x24
 1311 0020 00       		.byte	0x0
 1312 0021 03       		.uleb128 0x3
 1313 0022 0E       		.uleb128 0xe
 1314 0023 0B       		.uleb128 0xb
 1315 0024 0B       		.uleb128 0xb
 1316 0025 3E       		.uleb128 0x3e
 1317 0026 0B       		.uleb128 0xb
 1318 0027 00       		.byte	0x0
 1319 0028 00       		.byte	0x0
 1320 0029 04       		.uleb128 0x4
 1321 002a 16       		.uleb128 0x16
 1322 002b 00       		.byte	0x0
 1323 002c 03       		.uleb128 0x3
 1324 002d 0E       		.uleb128 0xe
 1325 002e 3A       		.uleb128 0x3a
 1326 002f 0B       		.uleb128 0xb
 1327 0030 3B       		.uleb128 0x3b
 1328 0031 0B       		.uleb128 0xb
 1329 0032 49       		.uleb128 0x49
 1330 0033 13       		.uleb128 0x13
 1331 0034 00       		.byte	0x0
 1332 0035 00       		.byte	0x0
 1333 0036 05       		.uleb128 0x5
 1334 0037 13       		.uleb128 0x13
 1335 0038 01       		.byte	0x1
 1336 0039 01       		.uleb128 0x1
 1337 003a 13       		.uleb128 0x13
 1338 003b 03       		.uleb128 0x3
 1339 003c 0E       		.uleb128 0xe
 1340 003d 0B       		.uleb128 0xb
 1341 003e 0B       		.uleb128 0xb
 1342 003f 3A       		.uleb128 0x3a
 1343 0040 0B       		.uleb128 0xb
 1344 0041 3B       		.uleb128 0x3b
 1345 0042 0B       		.uleb128 0xb
 1346 0043 00       		.byte	0x0
 1347 0044 00       		.byte	0x0
 1348 0045 06       		.uleb128 0x6
 1349 0046 0D       		.uleb128 0xd
 1350 0047 00       		.byte	0x0
 1351 0048 03       		.uleb128 0x3
 1352 0049 0E       		.uleb128 0xe
 1353 004a 3A       		.uleb128 0x3a
 1354 004b 0B       		.uleb128 0xb
 1355 004c 3B       		.uleb128 0x3b
 1356 004d 0B       		.uleb128 0xb
 1357 004e 49       		.uleb128 0x49
 1358 004f 13       		.uleb128 0x13
 1359 0050 38       		.uleb128 0x38
 1360 0051 0A       		.uleb128 0xa
 1361 0052 00       		.byte	0x0
 1362 0053 00       		.byte	0x0
ARM GAS  /cygdrive/c/DOCUME~1/mkwapisz/LOCALS~1/Temp/ccrgByGA.s 			page 28


 1363 0054 07       		.uleb128 0x7
 1364 0055 0D       		.uleb128 0xd
 1365 0056 00       		.byte	0x0
 1366 0057 03       		.uleb128 0x3
 1367 0058 08       		.uleb128 0x8
 1368 0059 3A       		.uleb128 0x3a
 1369 005a 0B       		.uleb128 0xb
 1370 005b 3B       		.uleb128 0x3b
 1371 005c 0B       		.uleb128 0xb
 1372 005d 49       		.uleb128 0x49
 1373 005e 13       		.uleb128 0x13
 1374 005f 38       		.uleb128 0x38
 1375 0060 0A       		.uleb128 0xa
 1376 0061 00       		.byte	0x0
 1377 0062 00       		.byte	0x0
 1378 0063 08       		.uleb128 0x8
 1379 0064 0F       		.uleb128 0xf
 1380 0065 00       		.byte	0x0
 1381 0066 0B       		.uleb128 0xb
 1382 0067 0B       		.uleb128 0xb
 1383 0068 49       		.uleb128 0x49
 1384 0069 13       		.uleb128 0x13
 1385 006a 00       		.byte	0x0
 1386 006b 00       		.byte	0x0
 1387 006c 09       		.uleb128 0x9
 1388 006d 04       		.uleb128 0x4
 1389 006e 01       		.byte	0x1
 1390 006f 01       		.uleb128 0x1
 1391 0070 13       		.uleb128 0x13
 1392 0071 0B       		.uleb128 0xb
 1393 0072 0B       		.uleb128 0xb
 1394 0073 3A       		.uleb128 0x3a
 1395 0074 0B       		.uleb128 0xb
 1396 0075 3B       		.uleb128 0x3b
 1397 0076 0B       		.uleb128 0xb
 1398 0077 00       		.byte	0x0
 1399 0078 00       		.byte	0x0
 1400 0079 0A       		.uleb128 0xa
 1401 007a 28       		.uleb128 0x28
 1402 007b 00       		.byte	0x0
 1403 007c 03       		.uleb128 0x3
 1404 007d 0E       		.uleb128 0xe
 1405 007e 1C       		.uleb128 0x1c
 1406 007f 0D       		.uleb128 0xd
 1407 0080 00       		.byte	0x0
 1408 0081 00       		.byte	0x0
 1409 0082 0B       		.uleb128 0xb
 1410 0083 16       		.uleb128 0x16
 1411 0084 00       		.byte	0x0
 1412 0085 03       		.uleb128 0x3
 1413 0086 08       		.uleb128 0x8
 1414 0087 3A       		.uleb128 0x3a
 1415 0088 0B       		.uleb128 0xb
 1416 0089 3B       		.uleb128 0x3b
 1417 008a 0B       		.uleb128 0xb
 1418 008b 49       		.uleb128 0x49
 1419 008c 13       		.uleb128 0x13
ARM GAS  /cygdrive/c/DOCUME~1/mkwapisz/LOCALS~1/Temp/ccrgByGA.s 			page 29


 1420 008d 00       		.byte	0x0
 1421 008e 00       		.byte	0x0
 1422 008f 0C       		.uleb128 0xc
 1423 0090 13       		.uleb128 0x13
 1424 0091 01       		.byte	0x1
 1425 0092 01       		.uleb128 0x1
 1426 0093 13       		.uleb128 0x13
 1427 0094 0B       		.uleb128 0xb
 1428 0095 0B       		.uleb128 0xb
 1429 0096 3A       		.uleb128 0x3a
 1430 0097 0B       		.uleb128 0xb
 1431 0098 3B       		.uleb128 0x3b
 1432 0099 0B       		.uleb128 0xb
 1433 009a 00       		.byte	0x0
 1434 009b 00       		.byte	0x0
 1435 009c 0D       		.uleb128 0xd
 1436 009d 2E       		.uleb128 0x2e
 1437 009e 01       		.byte	0x1
 1438 009f 01       		.uleb128 0x1
 1439 00a0 13       		.uleb128 0x13
 1440 00a1 3F       		.uleb128 0x3f
 1441 00a2 0C       		.uleb128 0xc
 1442 00a3 03       		.uleb128 0x3
 1443 00a4 0E       		.uleb128 0xe
 1444 00a5 3A       		.uleb128 0x3a
 1445 00a6 0B       		.uleb128 0xb
 1446 00a7 3B       		.uleb128 0x3b
 1447 00a8 0B       		.uleb128 0xb
 1448 00a9 27       		.uleb128 0x27
 1449 00aa 0C       		.uleb128 0xc
 1450 00ab 49       		.uleb128 0x49
 1451 00ac 13       		.uleb128 0x13
 1452 00ad 11       		.uleb128 0x11
 1453 00ae 01       		.uleb128 0x1
 1454 00af 12       		.uleb128 0x12
 1455 00b0 01       		.uleb128 0x1
 1456 00b1 40       		.uleb128 0x40
 1457 00b2 06       		.uleb128 0x6
 1458 00b3 00       		.byte	0x0
 1459 00b4 00       		.byte	0x0
 1460 00b5 0E       		.uleb128 0xe
 1461 00b6 34       		.uleb128 0x34
 1462 00b7 00       		.byte	0x0
 1463 00b8 03       		.uleb128 0x3
 1464 00b9 08       		.uleb128 0x8
 1465 00ba 3A       		.uleb128 0x3a
 1466 00bb 0B       		.uleb128 0xb
 1467 00bc 3B       		.uleb128 0x3b
 1468 00bd 0B       		.uleb128 0xb
 1469 00be 49       		.uleb128 0x49
 1470 00bf 13       		.uleb128 0x13
 1471 00c0 00       		.byte	0x0
 1472 00c1 00       		.byte	0x0
 1473 00c2 0F       		.uleb128 0xf
 1474 00c3 2E       		.uleb128 0x2e
 1475 00c4 01       		.byte	0x1
 1476 00c5 01       		.uleb128 0x1
ARM GAS  /cygdrive/c/DOCUME~1/mkwapisz/LOCALS~1/Temp/ccrgByGA.s 			page 30


 1477 00c6 13       		.uleb128 0x13
 1478 00c7 3F       		.uleb128 0x3f
 1479 00c8 0C       		.uleb128 0xc
 1480 00c9 03       		.uleb128 0x3
 1481 00ca 0E       		.uleb128 0xe
 1482 00cb 3A       		.uleb128 0x3a
 1483 00cc 0B       		.uleb128 0xb
 1484 00cd 3B       		.uleb128 0x3b
 1485 00ce 0B       		.uleb128 0xb
 1486 00cf 49       		.uleb128 0x49
 1487 00d0 13       		.uleb128 0x13
 1488 00d1 11       		.uleb128 0x11
 1489 00d2 01       		.uleb128 0x1
 1490 00d3 12       		.uleb128 0x12
 1491 00d4 01       		.uleb128 0x1
 1492 00d5 40       		.uleb128 0x40
 1493 00d6 06       		.uleb128 0x6
 1494 00d7 00       		.byte	0x0
 1495 00d8 00       		.byte	0x0
 1496 00d9 10       		.uleb128 0x10
 1497 00da 34       		.uleb128 0x34
 1498 00db 00       		.byte	0x0
 1499 00dc 03       		.uleb128 0x3
 1500 00dd 0E       		.uleb128 0xe
 1501 00de 3A       		.uleb128 0x3a
 1502 00df 0B       		.uleb128 0xb
 1503 00e0 3B       		.uleb128 0x3b
 1504 00e1 0B       		.uleb128 0xb
 1505 00e2 49       		.uleb128 0x49
 1506 00e3 13       		.uleb128 0x13
 1507 00e4 00       		.byte	0x0
 1508 00e5 00       		.byte	0x0
 1509 00e6 11       		.uleb128 0x11
 1510 00e7 2E       		.uleb128 0x2e
 1511 00e8 00       		.byte	0x0
 1512 00e9 3F       		.uleb128 0x3f
 1513 00ea 0C       		.uleb128 0xc
 1514 00eb 03       		.uleb128 0x3
 1515 00ec 0E       		.uleb128 0xe
 1516 00ed 3A       		.uleb128 0x3a
 1517 00ee 0B       		.uleb128 0xb
 1518 00ef 3B       		.uleb128 0x3b
 1519 00f0 0B       		.uleb128 0xb
 1520 00f1 11       		.uleb128 0x11
 1521 00f2 01       		.uleb128 0x1
 1522 00f3 12       		.uleb128 0x12
 1523 00f4 01       		.uleb128 0x1
 1524 00f5 40       		.uleb128 0x40
 1525 00f6 06       		.uleb128 0x6
 1526 00f7 00       		.byte	0x0
 1527 00f8 00       		.byte	0x0
 1528 00f9 12       		.uleb128 0x12
 1529 00fa 01       		.uleb128 0x1
 1530 00fb 01       		.byte	0x1
 1531 00fc 01       		.uleb128 0x1
 1532 00fd 13       		.uleb128 0x13
 1533 00fe 49       		.uleb128 0x49
ARM GAS  /cygdrive/c/DOCUME~1/mkwapisz/LOCALS~1/Temp/ccrgByGA.s 			page 31


 1534 00ff 13       		.uleb128 0x13
 1535 0100 00       		.byte	0x0
 1536 0101 00       		.byte	0x0
 1537 0102 13       		.uleb128 0x13
 1538 0103 21       		.uleb128 0x21
 1539 0104 00       		.byte	0x0
 1540 0105 49       		.uleb128 0x49
 1541 0106 13       		.uleb128 0x13
 1542 0107 2F       		.uleb128 0x2f
 1543 0108 05       		.uleb128 0x5
 1544 0109 00       		.byte	0x0
 1545 010a 00       		.byte	0x0
 1546 010b 14       		.uleb128 0x14
 1547 010c 34       		.uleb128 0x34
 1548 010d 00       		.byte	0x0
 1549 010e 03       		.uleb128 0x3
 1550 010f 0E       		.uleb128 0xe
 1551 0110 3A       		.uleb128 0x3a
 1552 0111 0B       		.uleb128 0xb
 1553 0112 3B       		.uleb128 0x3b
 1554 0113 0B       		.uleb128 0xb
 1555 0114 49       		.uleb128 0x49
 1556 0115 13       		.uleb128 0x13
 1557 0116 02       		.uleb128 0x2
 1558 0117 0A       		.uleb128 0xa
 1559 0118 00       		.byte	0x0
 1560 0119 00       		.byte	0x0
 1561 011a 15       		.uleb128 0x15
 1562 011b 34       		.uleb128 0x34
 1563 011c 00       		.byte	0x0
 1564 011d 03       		.uleb128 0x3
 1565 011e 0E       		.uleb128 0xe
 1566 011f 3A       		.uleb128 0x3a
 1567 0120 0B       		.uleb128 0xb
 1568 0121 3B       		.uleb128 0x3b
 1569 0122 0B       		.uleb128 0xb
 1570 0123 49       		.uleb128 0x49
 1571 0124 13       		.uleb128 0x13
 1572 0125 3F       		.uleb128 0x3f
 1573 0126 0C       		.uleb128 0xc
 1574 0127 02       		.uleb128 0x2
 1575 0128 0A       		.uleb128 0xa
 1576 0129 00       		.byte	0x0
 1577 012a 00       		.byte	0x0
 1578 012b 16       		.uleb128 0x16
 1579 012c 34       		.uleb128 0x34
 1580 012d 00       		.byte	0x0
 1581 012e 03       		.uleb128 0x3
 1582 012f 08       		.uleb128 0x8
 1583 0130 3A       		.uleb128 0x3a
 1584 0131 0B       		.uleb128 0xb
 1585 0132 3B       		.uleb128 0x3b
 1586 0133 0B       		.uleb128 0xb
 1587 0134 49       		.uleb128 0x49
 1588 0135 13       		.uleb128 0x13
 1589 0136 3F       		.uleb128 0x3f
 1590 0137 0C       		.uleb128 0xc
ARM GAS  /cygdrive/c/DOCUME~1/mkwapisz/LOCALS~1/Temp/ccrgByGA.s 			page 32


 1591 0138 02       		.uleb128 0x2
 1592 0139 0A       		.uleb128 0xa
 1593 013a 00       		.byte	0x0
 1594 013b 00       		.byte	0x0
 1595 013c 17       		.uleb128 0x17
 1596 013d 21       		.uleb128 0x21
 1597 013e 00       		.byte	0x0
 1598 013f 49       		.uleb128 0x49
 1599 0140 13       		.uleb128 0x13
 1600 0141 2F       		.uleb128 0x2f
 1601 0142 0B       		.uleb128 0xb
 1602 0143 00       		.byte	0x0
 1603 0144 00       		.byte	0x0
 1604 0145 00       		.byte	0x0
 1605              		.section	.debug_pubnames,"",%progbits
 1606 0000 C8000000 		.4byte	0xc8
 1607 0004 0200     		.2byte	0x2
 1608 0006 00000000 		.4byte	.Ldebug_info0
 1609 000a 9E040000 		.4byte	0x49e
 1610 000e FA020000 		.4byte	0x2fa
 1611 0012 696E6974 		.ascii	"initSpiker\000"
 1611      5370696B 
 1611      657200
 1612 001d 21030000 		.4byte	0x321
 1613 0021 706C6179 		.ascii	"play\000"
 1613      00
 1614 0026 68030000 		.4byte	0x368
 1615 002a 706C6179 		.ascii	"playBuu\000"
 1615      42757500 
 1616 0032 9E030000 		.4byte	0x39e
 1617 0036 62797465 		.ascii	"bytesReaded\000"
 1617      73526561 
 1617      64656400 
 1618 0042 B0030000 		.4byte	0x3b0
 1619 0046 726300   		.ascii	"rc\000"
 1620 0049 C1030000 		.4byte	0x3c1
 1621 004d 776800   		.ascii	"wh\000"
 1622 0050 D2030000 		.4byte	0x3d2
 1623 0054 77733100 		.ascii	"ws1\000"
 1624 0058 E4030000 		.4byte	0x3e4
 1625 005c 77733200 		.ascii	"ws2\000"
 1626 0060 F6030000 		.4byte	0x3f6
 1627 0064 66617466 		.ascii	"fatfs\000"
 1627      7300
 1628 006a 08040000 		.4byte	0x408
 1629 006e 72637600 		.ascii	"rcv\000"
 1630 0072 31040000 		.4byte	0x431
 1631 0076 62756666 		.ascii	"buffer\000"
 1631      657200
 1632 007d 43040000 		.4byte	0x443
 1633 0081 62756666 		.ascii	"bufferPlayed\000"
 1633      6572506C 
 1633      61796564 
 1633      00
 1634 008e 55040000 		.4byte	0x455
 1635 0092 62756666 		.ascii	"bufferToDownload\000"
 1635      6572546F 
ARM GAS  /cygdrive/c/DOCUME~1/mkwapisz/LOCALS~1/Temp/ccrgByGA.s 			page 33


 1635      446F776E 
 1635      6C6F6164 
 1635      00
 1636 00a3 67040000 		.4byte	0x467
 1637 00a7 73616D70 		.ascii	"sample\000"
 1637      6C6500
 1638 00ae 79040000 		.4byte	0x479
 1639 00b2 746F7461 		.ascii	"totalPlayed\000"
 1639      6C506C61 
 1639      79656400 
 1640 00be 8B040000 		.4byte	0x48b
 1641 00c2 72656669 		.ascii	"refil\000"
 1641      6C00
 1642 00c8 00000000 		.4byte	0x0
 1643              		.section	.debug_aranges,"",%progbits
 1644 0000 1C000000 		.4byte	0x1c
 1645 0004 0200     		.2byte	0x2
 1646 0006 00000000 		.4byte	.Ldebug_info0
 1647 000a 04       		.byte	0x4
 1648 000b 00       		.byte	0x0
 1649 000c 0000     		.2byte	0x0
 1650 000e 0000     		.2byte	0x0
 1651 0010 00000000 		.4byte	.Ltext0
 1652 0014 24030000 		.4byte	.Letext0-.Ltext0
 1653 0018 00000000 		.4byte	0x0
 1654 001c 00000000 		.4byte	0x0
 1655              		.section	.debug_str,"MS",%progbits,1
 1656              	.LASF39:
 1657 0000 74426F6F 		.ascii	"tBool\000"
 1657      6C00
 1658              	.LASF59:
 1659 0006 706F7A6F 		.ascii	"pozostalo\000"
 1659      7374616C 
 1659      6F00
 1660              	.LASF33:
 1661 0010 46525F4E 		.ascii	"FR_NO_FILESYSTEM\000"
 1661      4F5F4649 
 1661      4C455359 
 1661      5354454D 
 1661      00
 1662              	.LASF10:
 1663 0021 66735F74 		.ascii	"fs_type\000"
 1663      79706500 
 1664              	.LASF60:
 1665 0029 77617665 		.ascii	"wave_stream_buf\000"
 1665      5F737472 
 1665      65616D5F 
 1665      62756600 
 1666              	.LASF72:
 1667 0039 5F464154 		.ascii	"_FATFS_\000"
 1667      46535F00 
 1668              	.LASF57:
 1669 0041 75706C79 		.ascii	"uplynelo\000"
 1669      6E656C6F 
 1669      00
 1670              	.LASF3:
 1671 004a 73686F72 		.ascii	"short int\000"
ARM GAS  /cygdrive/c/DOCUME~1/mkwapisz/LOCALS~1/Temp/ccrgByGA.s 			page 34


 1671      7420696E 
 1671      7400
 1672              	.LASF31:
 1673 0054 46525F4E 		.ascii	"FR_NOT_OPENED\000"
 1673      4F545F4F 
 1673      50454E45 
 1673      4400
 1674              	.LASF67:
 1675 0062 746F7461 		.ascii	"totalPlayed\000"
 1675      6C506C61 
 1675      79656400 
 1676              	.LASF15:
 1677 006e 6D61785F 		.ascii	"max_clust\000"
 1677      636C7573 
 1677      7400
 1678              	.LASF71:
 1679 0078 2F637967 		.ascii	"/cygdrive/z/IntergatedSystems\000"
 1679      64726976 
 1679      652F7A2F 
 1679      496E7465 
 1679      72676174 
 1680              	.LASF18:
 1681 0096 64617461 		.ascii	"database\000"
 1681      62617365 
 1681      00
 1682              	.LASF5:
 1683 009f 42595445 		.ascii	"BYTE\000"
 1683      00
 1684              	.LASF14:
 1685 00a4 6E5F726F 		.ascii	"n_rootdir\000"
 1685      6F746469 
 1685      7200
 1686              	.LASF38:
 1687 00ae 74553332 		.ascii	"tU32\000"
 1687      00
 1688              	.LASF62:
 1689 00b3 66617466 		.ascii	"fatfs\000"
 1689      7300
 1690              	.LASF6:
 1691 00b9 574F5244 		.ascii	"WORD\000"
 1691      00
 1692              	.LASF26:
 1693 00be 46525F4F 		.ascii	"FR_OK\000"
 1693      4B00
 1694              	.LASF27:
 1695 00c4 46525F44 		.ascii	"FR_DISK_ERR\000"
 1695      49534B5F 
 1695      45525200 
 1696              	.LASF47:
 1697 00d0 6E756D43 		.ascii	"numChannels\000"
 1697      68616E6E 
 1697      656C7300 
 1698              	.LASF53:
 1699 00dc 62797465 		.ascii	"byteToOmmit\000"
 1699      546F4F6D 
 1699      6D697400 
 1700              	.LASF69:
ARM GAS  /cygdrive/c/DOCUME~1/mkwapisz/LOCALS~1/Temp/ccrgByGA.s 			page 35


 1701 00e8 474E5520 		.ascii	"GNU C 4.1.1\000"
 1701      4320342E 
 1701      312E3100 
 1702              	.LASF35:
 1703 00f4 6C6F6E67 		.ascii	"long long int\000"
 1703      206C6F6E 
 1703      6720696E 
 1703      7400
 1704              	.LASF66:
 1705 0102 73616D70 		.ascii	"sample\000"
 1705      6C6500
 1706              	.LASF21:
 1707 0109 6F72675F 		.ascii	"org_clust\000"
 1707      636C7573 
 1707      7400
 1708              	.LASF12:
 1709 0113 666C6167 		.ascii	"flag\000"
 1709      00
 1710              	.LASF46:
 1711 0118 61756469 		.ascii	"audioFormat\000"
 1711      6F466F72 
 1711      6D617400 
 1712              	.LASF68:
 1713 0124 72656669 		.ascii	"refil\000"
 1713      6C00
 1714              	.LASF7:
 1715 012a 6C6F6E67 		.ascii	"long int\000"
 1715      20696E74 
 1715      00
 1716              	.LASF54:
 1717 0133 44617461 		.ascii	"DataChunk\000"
 1717      4368756E 
 1717      6B00
 1718              	.LASF11:
 1719 013d 6373697A 		.ascii	"csize\000"
 1719      6500
 1720              	.LASF23:
 1721 0143 64736563 		.ascii	"dsect\000"
 1721      7400
 1722              	.LASF17:
 1723 0149 64697262 		.ascii	"dirbase\000"
 1723      61736500 
 1724              	.LASF28:
 1725 0151 46525F4E 		.ascii	"FR_NOT_READY\000"
 1725      4F545F52 
 1725      45414459 
 1725      00
 1726              	.LASF43:
 1727 015e 57415645 		.ascii	"WAVEHEADER\000"
 1727      48454144 
 1727      455200
 1728              	.LASF9:
 1729 0169 44574F52 		.ascii	"DWORD\000"
 1729      4400
 1730              	.LASF30:
 1731 016f 46525F4E 		.ascii	"FR_NO_PATH\000"
 1731      4F5F5041 
ARM GAS  /cygdrive/c/DOCUME~1/mkwapisz/LOCALS~1/Temp/ccrgByGA.s 			page 36


 1731      544800
 1732              	.LASF2:
 1733 017a 756E7369 		.ascii	"unsigned char\000"
 1733      676E6564 
 1733      20636861 
 1733      7200
 1734              	.LASF41:
 1735 0188 6368756E 		.ascii	"chunkSize\000"
 1735      6B53697A 
 1735      6500
 1736              	.LASF1:
 1737 0192 7369676E 		.ascii	"signed char\000"
 1737      65642063 
 1737      68617200 
 1738              	.LASF36:
 1739 019e 6C6F6E67 		.ascii	"long long unsigned int\000"
 1739      206C6F6E 
 1739      6720756E 
 1739      7369676E 
 1739      65642069 
 1740              	.LASF0:
 1741 01b5 756E7369 		.ascii	"unsigned int\000"
 1741      676E6564 
 1741      20696E74 
 1741      00
 1742              	.LASF40:
 1743 01c2 6368756E 		.ascii	"chunkId\000"
 1743      6B496400 
 1744              	.LASF19:
 1745 01ca 66707472 		.ascii	"fptr\000"
 1745      00
 1746              	.LASF56:
 1747 01cf 706C6179 		.ascii	"play\000"
 1747      00
 1748              	.LASF42:
 1749 01d4 666F726D 		.ascii	"format\000"
 1749      617400
 1750              	.LASF4:
 1751 01db 73686F72 		.ascii	"short unsigned int\000"
 1751      7420756E 
 1751      7369676E 
 1751      65642069 
 1751      6E7400
 1752              	.LASF25:
 1753 01ee 63686172 		.ascii	"char\000"
 1753      00
 1754              	.LASF16:
 1755 01f3 66617462 		.ascii	"fatbase\000"
 1755      61736500 
 1756              	.LASF65:
 1757 01fb 62756666 		.ascii	"bufferToDownload\000"
 1757      6572546F 
 1757      446F776E 
 1757      6C6F6164 
 1757      00
 1758              	.LASF50:
 1759 020c 626C6F63 		.ascii	"blockAlign\000"
ARM GAS  /cygdrive/c/DOCUME~1/mkwapisz/LOCALS~1/Temp/ccrgByGA.s 			page 37


 1759      6B416C69 
 1759      676E00
 1760              	.LASF37:
 1761 0217 74553136 		.ascii	"tU16\000"
 1761      00
 1762              	.LASF32:
 1763 021c 46525F4E 		.ascii	"FR_NOT_ENABLED\000"
 1763      4F545F45 
 1763      4E41424C 
 1763      454400
 1764              	.LASF48:
 1765 022b 73616D70 		.ascii	"sampleRate\000"
 1765      6C655261 
 1765      746500
 1766              	.LASF58:
 1767 0236 637A6173 		.ascii	"czasCalkowity\000"
 1767      43616C6B 
 1767      6F776974 
 1767      7900
 1768              	.LASF70:
 1769 0244 73706561 		.ascii	"speaker/speaker.c\000"
 1769      6B65722F 
 1769      73706561 
 1769      6B65722E 
 1769      6300
 1770              	.LASF63:
 1771 0256 62756666 		.ascii	"buffer\000"
 1771      657200
 1772              	.LASF24:
 1773 025d 46415446 		.ascii	"FATFS\000"
 1773      5300
 1774              	.LASF8:
 1775 0263 6C6F6E67 		.ascii	"long unsigned int\000"
 1775      20756E73 
 1775      69676E65 
 1775      6420696E 
 1775      7400
 1776              	.LASF13:
 1777 0275 63736563 		.ascii	"csect\000"
 1777      7400
 1778              	.LASF51:
 1779 027b 62697473 		.ascii	"bitsPerSample\000"
 1779      50657253 
 1779      616D706C 
 1779      6500
 1780              	.LASF29:
 1781 0289 46525F4E 		.ascii	"FR_NO_FILE\000"
 1781      4F5F4649 
 1781      4C4500
 1782              	.LASF20:
 1783 0294 6673697A 		.ascii	"fsize\000"
 1783      6500
 1784              	.LASF55:
 1785 029a 696E6974 		.ascii	"initSpiker\000"
 1785      5370696B 
 1785      657200
 1786              	.LASF61:
ARM GAS  /cygdrive/c/DOCUME~1/mkwapisz/LOCALS~1/Temp/ccrgByGA.s 			page 38


 1787 02a5 62797465 		.ascii	"bytesReaded\000"
 1787      73526561 
 1787      64656400 
 1788              	.LASF52:
 1789 02b1 466D7443 		.ascii	"FmtChunk\000"
 1789      68756E6B 
 1789      00
 1790              	.LASF64:
 1791 02ba 62756666 		.ascii	"bufferPlayed\000"
 1791      6572506C 
 1791      61796564 
 1791      00
 1792              	.LASF45:
 1793 02c7 73756243 		.ascii	"subChunkSize\000"
 1793      68756E6B 
 1793      53697A65 
 1793      00
 1794              	.LASF22:
 1795 02d4 63757272 		.ascii	"curr_clust\000"
 1795      5F636C75 
 1795      737400
 1796              	.LASF34:
 1797 02df 46524553 		.ascii	"FRESULT\000"
 1797      554C5400 
 1798              	.LASF49:
 1799 02e7 62797465 		.ascii	"byteRate\000"
 1799      52617465 
 1799      00
 1800              	.LASF73:
 1801 02f0 706C6179 		.ascii	"playBuu\000"
 1801      42757500 
 1802              	.LASF44:
 1803 02f8 73756243 		.ascii	"subChunkId\000"
 1803      68756E6B 
 1803      496400
 1804              		.ident	"GCC: (GNU) 4.1.1"
ARM GAS  /cygdrive/c/DOCUME~1/mkwapisz/LOCALS~1/Temp/ccrgByGA.s 			page 39


DEFINED SYMBOLS
                            *ABS*:00000000 speaker.c
/cygdrive/c/DOCUME~1/mkwapisz/LOCALS~1/Temp/ccrgByGA.s:1      .text:00000000 $t
/cygdrive/c/DOCUME~1/mkwapisz/LOCALS~1/Temp/ccrgByGA.s:16     .text:00000000 initSpiker
/cygdrive/c/DOCUME~1/mkwapisz/LOCALS~1/Temp/ccrgByGA.s:218    .text:0000014c $d
                            *COM*:00000002 bytesReaded
/cygdrive/c/DOCUME~1/mkwapisz/LOCALS~1/Temp/ccrgByGA.s:545    .bss:0000000d wave_stream_buf
                            *COM*:00000004 rc
                            *COM*:0000000c wh
                            *COM*:00000020 ws1
                            *COM*:0000000c ws2
/cygdrive/c/DOCUME~1/mkwapisz/LOCALS~1/Temp/ccrgByGA.s:233    .text:00000164 play
/cygdrive/c/DOCUME~1/mkwapisz/LOCALS~1/Temp/ccrgByGA.s:230    .text:00000164 $t
/cygdrive/c/DOCUME~1/mkwapisz/LOCALS~1/Temp/ccrgByGA.s:447    .text:000002ac $d
/cygdrive/c/DOCUME~1/mkwapisz/LOCALS~1/Temp/ccrgByGA.s:521    .bss:00000000 bufferPlayed
/cygdrive/c/DOCUME~1/mkwapisz/LOCALS~1/Temp/ccrgByGA.s:526    .bss:00000001 bufferToDownload
/cygdrive/c/DOCUME~1/mkwapisz/LOCALS~1/Temp/ccrgByGA.s:532    .bss:00000002 sample
/cygdrive/c/DOCUME~1/mkwapisz/LOCALS~1/Temp/ccrgByGA.s:538    .bss:00000004 totalPlayed
/cygdrive/c/DOCUME~1/mkwapisz/LOCALS~1/Temp/ccrgByGA.s:543    .bss:0000000c refil
                            *COM*:00001400 buffer
/cygdrive/c/DOCUME~1/mkwapisz/LOCALS~1/Temp/ccrgByGA.s:473    .text:000002e4 playBuu
/cygdrive/c/DOCUME~1/mkwapisz/LOCALS~1/Temp/ccrgByGA.s:470    .text:000002e4 $t
/cygdrive/c/DOCUME~1/mkwapisz/LOCALS~1/Temp/ccrgByGA.s:512    .text:00000318 $d
                            *COM*:00000030 fatfs
                            *COM*:00000004 rcv

UNDEFINED SYMBOLS
pf_read
__umoddi3
__udivsi3
pf_lseek
sleep
pf_mount
pf_open
