ARM GAS  /cygdrive/c/DOCUME~1/mkwapisz/LOCALS~1/Temp/ccuLeMEM.s 			page 1


   1              		.code	16
   2              		.file	"key.c"
   3              		.section	.debug_abbrev,"",%progbits
   4              	.Ldebug_abbrev0:
   5              		.section	.debug_info,"",%progbits
   6              	.Ldebug_info0:
   7              		.section	.debug_line,"",%progbits
   8              	.Ldebug_line0:
   9 0000 BF000000 		.text
   9      02005000 
   9      00000201 
   9      FB0E0D00 
   9      01010101 
  10              	.Ltext0:
  11              		.align	2
  12              		.global	getKeys
  13              		.code 16
  14              		.thumb_func
  15              		.type	getKeys, %function
  16              	getKeys:
  17              	.LFB2:
  18              		.file 1 "key.c"
   1:key.c         **** /******************************************************************************
   2:key.c         ****  *
   3:key.c         ****  * Copyright:
   4:key.c         ****  *    (C) 2006 Embedded Artists AB
   5:key.c         ****  *
   6:key.c         ****  * File:
   7:key.c         ****  *    key.c
   8:key.c         ****  *
   9:key.c         ****  * Description:
  10:key.c         ****  *    Implements sampling and handling of joystick key.
  11:key.c         ****  *
  12:key.c         ****  *****************************************************************************/
  13:key.c         **** 
  14:key.c         **** /******************************************************************************
  15:key.c         ****  * Includes
  16:key.c         ****  *****************************************************************************/
  17:key.c         **** #include "../pre_emptive_os/api/osapi.h"
  18:key.c         **** #include "../pre_emptive_os/api/general.h"
  19:key.c         **** #include <printf_P.h>
  20:key.c         **** #include "key.h"
  21:key.c         **** #include <lpc2xxx.h>
  22:key.c         **** 
  23:key.c         **** /******************************************************************************
  24:key.c         ****  * Typedefs and defines
  25:key.c         ****  *****************************************************************************/
  26:key.c         **** #define FIRST_REPEAT  4
  27:key.c         **** #define SECOND_REPEAT 3
  28:key.c         **** 
  29:key.c         **** #define KEYPROC_STACK_SIZE 300
  30:key.c         **** 
  31:key.c         **** #define KEYPIN_CENTER 0x00000100
  32:key.c         **** #define KEYPIN_UP     0x00000400
  33:key.c         **** #define KEYPIN_DOWN   0x00001000
  34:key.c         **** #define KEYPIN_LEFT   0x00000200 
  35:key.c         **** #define KEYPIN_RIGHT  0x00000800
ARM GAS  /cygdrive/c/DOCUME~1/mkwapisz/LOCALS~1/Temp/ccuLeMEM.s 			page 2


  36:key.c         **** 
  37:key.c         **** #if 0
  38:key.c         **** //check if P0.8 center-key is pressed
  39:key.c         **** if ((IOPIN & 0x00000100) == 0)
  40:key.c         **** 
  41:key.c         **** //check if P0.9 left-key is pressed
  42:key.c         **** else if ((IOPIN & 0x00000200) == 0)
  43:key.c         **** 
  44:key.c         **** //check if P0.10 up-key is pressed
  45:key.c         **** else if ((IOPIN & 0x00000400) == 0)
  46:key.c         **** 
  47:key.c         **** //check if P0.11 right-key is pressed
  48:key.c         **** else if ((IOPIN & 0x00000800) == 0)
  49:key.c         **** 
  50:key.c         **** //check if P0.12 down-key is pressed
  51:key.c         **** else if ((IOPIN & 0x00001000) == 0)
  52:key.c         **** #endif
  53:key.c         **** 
  54:key.c         **** /*****************************************************************************
  55:key.c         ****  * Local variables
  56:key.c         ****  ****************************************************************************/
  57:key.c         **** static tU8 centerReleased = TRUE;
  58:key.c         **** static tU8 keyUpReleased = TRUE;
  59:key.c         **** static tU8 keyDownReleased = TRUE;
  60:key.c         **** static tU8 keyLeftReleased = TRUE;
  61:key.c         **** static tU8 keyRightReleased = TRUE;
  62:key.c         **** static tU8 centerKeyCnt;
  63:key.c         **** static tU8 upKeyCnt;
  64:key.c         **** static tU8 downKeyCnt;
  65:key.c         **** static tU8 leftKeyCnt;
  66:key.c         **** static tU8 rightKeyCnt;
  67:key.c         **** 
  68:key.c         **** static volatile tU8 activeKey = KEY_NOTHING;
  69:key.c         **** static volatile tU8 activeKey2 = KEY_NOTHING;
  70:key.c         **** 
  71:key.c         **** static tU8 keyProcStack[KEYPROC_STACK_SIZE];
  72:key.c         **** static tU8 keyProcPid;
  73:key.c         **** 
  74:key.c         **** /*****************************************************************************
  75:key.c         ****  *
  76:key.c         ****  * Description:
  77:key.c         ****  *    Get current state of joystick switch
  78:key.c         ****  *
  79:key.c         ****  ****************************************************************************/
  80:key.c         **** tU8 getKeys(void) {
  19              		.loc 1 80 0
  81:key.c         **** 	tU8 readKeys = KEY_NOTHING;
  82:key.c         **** 
  83:key.c         **** 	if ((IOPIN & KEYPIN_CENTER) == 0)
  20              		.loc 1 83 0
  21 0000 124B     		ldr	r3, .L14
  22 0002 1B68     		ldr	r3, [r3]
  23              		.loc 1 80 0
  24              		@ lr needed for prologue
  25              		.loc 1 83 0
  26 0004 D905     		lsl	r1, r3, #23
  27 0006 01D4     		bmi	.L2
ARM GAS  /cygdrive/c/DOCUME~1/mkwapisz/LOCALS~1/Temp/ccuLeMEM.s 			page 3


  28 0008 1020     		mov	r0, #16
  29              	.LVL0:
  30 000a 00E0     		b	.L4
  31              	.LVL1:
  32              	.L2:
  33 000c 0020     		mov	r0, #0
  34              	.LVL2:
  35              	.L4:
  84:key.c         **** 		readKeys |= KEY_CENTER;
  85:key.c         **** 	if ((IOPIN & KEYPIN_UP) == 0)
  36              		.loc 1 85 0
  37 000e 0F4A     		ldr	r2, .L14
  38 0010 1368     		ldr	r3, [r2]
  39 0012 5905     		lsl	r1, r3, #21
  40 0014 03D4     		bmi	.L5
  86:key.c         **** 		readKeys |= KEY_UP;
  41              		.loc 1 86 0
  42 0016 0123     		mov	r3, #1
  43 0018 0343     		orr	r3, r3, r0
  44 001a 1B06     		lsl	r3, r3, #24
  45 001c 180E     		lsr	r0, r3, #24
  46              	.L5:
  87:key.c         **** 	if ((IOPIN & KEYPIN_DOWN) == 0)
  47              		.loc 1 87 0
  48 001e 1368     		ldr	r3, [r2]
  49 0020 D904     		lsl	r1, r3, #19
  50 0022 03D4     		bmi	.L7
  88:key.c         **** 		readKeys |= KEY_DOWN;
  51              		.loc 1 88 0
  52 0024 0423     		mov	r3, #4
  53 0026 0343     		orr	r3, r3, r0
  54 0028 1B06     		lsl	r3, r3, #24
  55 002a 180E     		lsr	r0, r3, #24
  56              	.L7:
  89:key.c         **** 	if ((IOPIN & KEYPIN_LEFT) == 0)
  57              		.loc 1 89 0
  58 002c 1368     		ldr	r3, [r2]
  59 002e 9905     		lsl	r1, r3, #22
  60 0030 03D4     		bmi	.L9
  90:key.c         **** 		readKeys |= KEY_LEFT;
  61              		.loc 1 90 0
  62 0032 0823     		mov	r3, #8
  63 0034 0343     		orr	r3, r3, r0
  64 0036 1B06     		lsl	r3, r3, #24
  65 0038 180E     		lsr	r0, r3, #24
  66              	.L9:
  91:key.c         **** 	if ((IOPIN & KEYPIN_RIGHT) == 0)
  67              		.loc 1 91 0
  68 003a 1368     		ldr	r3, [r2]
  69 003c 1A05     		lsl	r2, r3, #20
  70 003e 03D4     		bmi	.L11
  92:key.c         **** 		readKeys |= KEY_RIGHT;
  71              		.loc 1 92 0
  72 0040 0223     		mov	r3, #2
  73 0042 0343     		orr	r3, r3, r0
  74 0044 1B06     		lsl	r3, r3, #24
  75 0046 180E     		lsr	r0, r3, #24
ARM GAS  /cygdrive/c/DOCUME~1/mkwapisz/LOCALS~1/Temp/ccuLeMEM.s 			page 4


  76              	.L11:
  77              	.LVL3:
  93:key.c         **** 
  94:key.c         **** 	return readKeys;
  95:key.c         **** }
  78              		.loc 1 95 0
  79              		@ sp needed for prologue
  80 0048 7047     		bx	lr
  81              	.L15:
  82 004a 0000     		.align	2
  83              	.L14:
  84 004c 008002E0 		.word	-536707072
  85              	.LFE2:
  86              		.size	getKeys, .-getKeys
  87              		.align	2
  88              		.global	checkKey
  89              		.code 16
  90              		.thumb_func
  91              		.type	checkKey, %function
  92              	checkKey:
  93              	.LFB3:
  96:key.c         **** 
  97:key.c         **** /*****************************************************************************
  98:key.c         ****  *
  99:key.c         ****  * Description:
 100:key.c         ****  *    Function to check if any key press has been detected
 101:key.c         ****  *
 102:key.c         ****  ****************************************************************************/
 103:key.c         **** tU8 checkKey(void) {
  94              		.loc 1 103 0
 104:key.c         **** 	tU8 retVal = activeKey;
  95              		.loc 1 104 0
  96 0050 024B     		ldr	r3, .L18
  97 0052 1878     		ldrb	r0, [r3]
 105:key.c         **** 	activeKey = KEY_NOTHING;
  98              		.loc 1 105 0
  99 0054 0022     		mov	r2, #0
 100              		.loc 1 103 0
 101              		@ lr needed for prologue
 102              		.loc 1 105 0
 103 0056 1A70     		strb	r2, [r3]
 106:key.c         **** 	return retVal;
 107:key.c         **** }
 104              		.loc 1 107 0
 105              		@ sp needed for prologue
 106 0058 7047     		bx	lr
 107              	.L19:
 108 005a 0000     		.align	2
 109              	.L18:
 110 005c 00000000 		.word	activeKey
 111              	.LFE3:
 112              		.size	checkKey, .-checkKey
 113              		.align	2
 114              		.global	checkKey2
 115              		.code 16
 116              		.thumb_func
 117              		.type	checkKey2, %function
ARM GAS  /cygdrive/c/DOCUME~1/mkwapisz/LOCALS~1/Temp/ccuLeMEM.s 			page 5


 118              	checkKey2:
 119              	.LFB4:
 108:key.c         **** 
 109:key.c         **** /*****************************************************************************
 110:key.c         ****  *
 111:key.c         ****  * Description:
 112:key.c         ****  *    Function to check current (instantaneous) key state
 113:key.c         ****  *
 114:key.c         ****  ****************************************************************************/
 115:key.c         **** tU8 checkKey2(void) {
 120              		.loc 1 115 0
 116:key.c         **** 	return activeKey2;
 121              		.loc 1 116 0
 122 0060 014B     		ldr	r3, .L22
 123 0062 1878     		ldrb	r0, [r3]
 124              		.loc 1 115 0
 125              		@ lr needed for prologue
 117:key.c         **** }
 126              		.loc 1 117 0
 127              		@ sp needed for prologue
 128 0064 7047     		bx	lr
 129              	.L23:
 130 0066 0000     		.align	2
 131              	.L22:
 132 0068 01000000 		.word	activeKey2
 133              	.LFE4:
 134              		.size	checkKey2, .-checkKey2
 135              		.align	2
 136              		.global	sampleKey
 137              		.code 16
 138              		.thumb_func
 139              		.type	sampleKey, %function
 140              	sampleKey:
 141              	.LFB5:
 118:key.c         **** 
 119:key.c         **** /*****************************************************************************
 120:key.c         ****  *
 121:key.c         ****  * Description:
 122:key.c         ****  *    Sample key states
 123:key.c         ****  *
 124:key.c         ****  ****************************************************************************/
 125:key.c         **** void sampleKey(void) {
 142              		.loc 1 125 0
 143 006c 30B5     		push	{r4, r5, lr}
 144              	.LCFI0:
 126:key.c         **** 	tBool nothing = TRUE;
 127:key.c         **** 	tU8 readKeys;
 128:key.c         **** 
 129:key.c         **** 	//get sample
 130:key.c         **** 	readKeys = getKeys();
 145              		.loc 1 130 0
 146 006e FFF7FEFF 		bl	getKeys
 147 0072 051C     		mov	r5, r0
 131:key.c         **** 
 132:key.c         **** 	//check center key
 133:key.c         **** 	if (readKeys & KEY_CENTER) {
 148              		.loc 1 133 0
ARM GAS  /cygdrive/c/DOCUME~1/mkwapisz/LOCALS~1/Temp/ccuLeMEM.s 			page 6


 149 0074 1020     		mov	r0, #16
 150 0076 4E4A     		ldr	r2, .L89
 151 0078 0542     		tst	r5, r0
 152 007a 17D0     		beq	.L25
 134:key.c         **** 		nothing = FALSE;
 135:key.c         **** 		if (centerReleased == TRUE) {
 153              		.loc 1 135 0
 154 007c 1378     		ldrb	r3, [r2]
 155 007e 4D49     		ldr	r1, .L89+4
 156 0080 012B     		cmp	r3, #1
 157 0082 02D1     		bne	.L27
 136:key.c         **** 			centerReleased = FALSE;
 158              		.loc 1 136 0
 159 0084 0023     		mov	r3, #0
 160 0086 1370     		strb	r3, [r2]
 161 0088 09E0     		b	.L85
 162              	.L27:
 137:key.c         **** 			centerKeyCnt = 0;
 138:key.c         **** 			activeKey = KEY_CENTER;
 139:key.c         **** 			activeKey2 = KEY_CENTER;
 140:key.c         **** 		} else {
 141:key.c         **** 			centerKeyCnt++;
 163              		.loc 1 141 0
 164 008a 0B78     		ldrb	r3, [r1]
 165 008c 0133     		add	r3, r3, #1
 166 008e 1B06     		lsl	r3, r3, #24
 167 0090 1B0E     		lsr	r3, r3, #24
 168 0092 0B70     		strb	r3, [r1]
 142:key.c         **** 			if (centerKeyCnt == FIRST_REPEAT) {
 169              		.loc 1 142 0
 170 0094 042B     		cmp	r3, #4
 171 0096 03D0     		beq	.L72
 143:key.c         **** 				activeKey = KEY_CENTER;
 144:key.c         **** 				activeKey2 = KEY_CENTER;
 145:key.c         **** 			} else if (centerKeyCnt >= FIRST_REPEAT + SECOND_REPEAT) {
 172              		.loc 1 145 0
 173 0098 062B     		cmp	r3, #6
 174 009a 05D9     		bls	.L73
 146:key.c         **** 				centerKeyCnt = FIRST_REPEAT;
 175              		.loc 1 146 0
 176 009c 0423     		mov	r3, #4
 177              	.L85:
 178 009e 0B70     		strb	r3, [r1]
 179              	.L72:
 147:key.c         **** 				activeKey = KEY_CENTER;
 180              		.loc 1 147 0
 181 00a0 454B     		ldr	r3, .L89+8
 182 00a2 1870     		strb	r0, [r3]
 148:key.c         **** 				activeKey2 = KEY_CENTER;
 183              		.loc 1 148 0
 184 00a4 454B     		ldr	r3, .L89+12
 185 00a6 1870     		strb	r0, [r3]
 186              	.L73:
 187 00a8 0024     		mov	r4, #0
 188              	.LVL4:
 189 00aa 02E0     		b	.L29
 190              	.LVL5:
ARM GAS  /cygdrive/c/DOCUME~1/mkwapisz/LOCALS~1/Temp/ccuLeMEM.s 			page 7


 191              	.L25:
 149:key.c         **** 			}
 150:key.c         **** 		}
 151:key.c         **** 	} else
 152:key.c         **** 		centerReleased = TRUE;
 192              		.loc 1 152 0
 193 00ac 0123     		mov	r3, #1
 194 00ae 1370     		strb	r3, [r2]
 195 00b0 0124     		mov	r4, #1
 196              	.LVL6:
 197              	.L29:
 153:key.c         **** 
 154:key.c         **** 	//check up key
 155:key.c         **** 	if (readKeys & KEY_UP) {
 198              		.loc 1 155 0
 199 00b2 0120     		mov	r0, #1
 200 00b4 424A     		ldr	r2, .L89+16
 201 00b6 0542     		tst	r5, r0
 202 00b8 17D0     		beq	.L34
 156:key.c         **** 		nothing = FALSE;
 157:key.c         **** 		if (keyUpReleased == TRUE) {
 203              		.loc 1 157 0
 204 00ba 1378     		ldrb	r3, [r2]
 205 00bc 4149     		ldr	r1, .L89+20
 206 00be 012B     		cmp	r3, #1
 207 00c0 02D1     		bne	.L36
 158:key.c         **** 			keyUpReleased = FALSE;
 208              		.loc 1 158 0
 209 00c2 0023     		mov	r3, #0
 210 00c4 1370     		strb	r3, [r2]
 211 00c6 09E0     		b	.L86
 212              	.L36:
 159:key.c         **** 			upKeyCnt = 0;
 160:key.c         **** 			activeKey = KEY_UP;
 161:key.c         **** 			activeKey2 = KEY_UP;
 162:key.c         **** 		} else {
 163:key.c         **** 			upKeyCnt++;
 213              		.loc 1 163 0
 214 00c8 0B78     		ldrb	r3, [r1]
 215 00ca 0133     		add	r3, r3, #1
 216 00cc 1B06     		lsl	r3, r3, #24
 217 00ce 1B0E     		lsr	r3, r3, #24
 218 00d0 0B70     		strb	r3, [r1]
 164:key.c         **** 			if (upKeyCnt == FIRST_REPEAT) {
 219              		.loc 1 164 0
 220 00d2 042B     		cmp	r3, #4
 221 00d4 03D0     		beq	.L75
 165:key.c         **** 				activeKey = KEY_UP;
 166:key.c         **** 				activeKey2 = KEY_UP;
 167:key.c         **** 			} else if (upKeyCnt >= FIRST_REPEAT + SECOND_REPEAT) {
 222              		.loc 1 167 0
 223 00d6 062B     		cmp	r3, #6
 224 00d8 05D9     		bls	.L76
 168:key.c         **** 				upKeyCnt = FIRST_REPEAT;
 225              		.loc 1 168 0
 226 00da 0423     		mov	r3, #4
 227              	.L86:
ARM GAS  /cygdrive/c/DOCUME~1/mkwapisz/LOCALS~1/Temp/ccuLeMEM.s 			page 8


 228 00dc 0B70     		strb	r3, [r1]
 229              	.L75:
 169:key.c         **** 				activeKey = KEY_UP;
 230              		.loc 1 169 0
 231 00de 364B     		ldr	r3, .L89+8
 232 00e0 1870     		strb	r0, [r3]
 170:key.c         **** 				activeKey2 = KEY_UP;
 233              		.loc 1 170 0
 234 00e2 364B     		ldr	r3, .L89+12
 235 00e4 1870     		strb	r0, [r3]
 236              	.L76:
 237 00e6 0024     		mov	r4, #0
 238 00e8 00E0     		b	.L38
 239              	.L34:
 171:key.c         **** 			}
 172:key.c         **** 		}
 173:key.c         **** 	} else
 174:key.c         **** 		keyUpReleased = TRUE;
 240              		.loc 1 174 0
 241 00ea 1070     		strb	r0, [r2]
 242              	.L38:
 175:key.c         **** 
 176:key.c         **** 	//check down key
 177:key.c         **** 	if (readKeys & KEY_DOWN) {
 243              		.loc 1 177 0
 244 00ec 0420     		mov	r0, #4
 245 00ee 364A     		ldr	r2, .L89+24
 246 00f0 0542     		tst	r5, r0
 247 00f2 17D0     		beq	.L43
 178:key.c         **** 		nothing = FALSE;
 179:key.c         **** 		if (keyDownReleased == TRUE) {
 248              		.loc 1 179 0
 249 00f4 1378     		ldrb	r3, [r2]
 250 00f6 3549     		ldr	r1, .L89+28
 251 00f8 012B     		cmp	r3, #1
 252 00fa 03D1     		bne	.L45
 180:key.c         **** 			keyDownReleased = FALSE;
 253              		.loc 1 180 0
 254 00fc 0023     		mov	r3, #0
 255 00fe 1370     		strb	r3, [r2]
 181:key.c         **** 			downKeyCnt = 0;
 256              		.loc 1 181 0
 257 0100 0B70     		strb	r3, [r1]
 258 0102 09E0     		b	.L78
 259              	.L45:
 182:key.c         **** 			activeKey = KEY_DOWN;
 183:key.c         **** 			activeKey2 = KEY_DOWN;
 184:key.c         **** 		} else {
 185:key.c         **** 			downKeyCnt++;
 260              		.loc 1 185 0
 261 0104 0B78     		ldrb	r3, [r1]
 262 0106 0133     		add	r3, r3, #1
 263 0108 1B06     		lsl	r3, r3, #24
 264 010a 1B0E     		lsr	r3, r3, #24
 265 010c 0B70     		strb	r3, [r1]
 186:key.c         **** 			if (downKeyCnt == FIRST_REPEAT) {
 266              		.loc 1 186 0
ARM GAS  /cygdrive/c/DOCUME~1/mkwapisz/LOCALS~1/Temp/ccuLeMEM.s 			page 9


 267 010e 042B     		cmp	r3, #4
 268 0110 02D0     		beq	.L78
 187:key.c         **** 				activeKey = KEY_DOWN;
 188:key.c         **** 				activeKey2 = KEY_DOWN;
 189:key.c         **** 			} else if (downKeyCnt >= FIRST_REPEAT + SECOND_REPEAT) {
 269              		.loc 1 189 0
 270 0112 062B     		cmp	r3, #6
 271 0114 04D9     		bls	.L79
 190:key.c         **** 				downKeyCnt = FIRST_REPEAT;
 272              		.loc 1 190 0
 273 0116 0870     		strb	r0, [r1]
 274              	.L78:
 191:key.c         **** 				activeKey = KEY_DOWN;
 275              		.loc 1 191 0
 276 0118 274B     		ldr	r3, .L89+8
 277 011a 1870     		strb	r0, [r3]
 192:key.c         **** 				activeKey2 = KEY_DOWN;
 278              		.loc 1 192 0
 279 011c 274B     		ldr	r3, .L89+12
 280 011e 1870     		strb	r0, [r3]
 281              	.L79:
 282 0120 0024     		mov	r4, #0
 283 0122 01E0     		b	.L47
 284              	.L43:
 193:key.c         **** 			}
 194:key.c         **** 		}
 195:key.c         **** 	} else
 196:key.c         **** 		keyDownReleased = TRUE;
 285              		.loc 1 196 0
 286 0124 0123     		mov	r3, #1
 287 0126 1370     		strb	r3, [r2]
 288              	.L47:
 197:key.c         **** 
 198:key.c         **** 	//check left key
 199:key.c         **** 	if (readKeys & KEY_LEFT) {
 289              		.loc 1 199 0
 290 0128 0820     		mov	r0, #8
 291 012a 294A     		ldr	r2, .L89+32
 292 012c 0542     		tst	r5, r0
 293 012e 17D0     		beq	.L52
 200:key.c         **** 		nothing = FALSE;
 201:key.c         **** 		if (keyLeftReleased == TRUE) {
 294              		.loc 1 201 0
 295 0130 1378     		ldrb	r3, [r2]
 296 0132 2849     		ldr	r1, .L89+36
 297 0134 012B     		cmp	r3, #1
 298 0136 02D1     		bne	.L54
 202:key.c         **** 			keyLeftReleased = FALSE;
 299              		.loc 1 202 0
 300 0138 0023     		mov	r3, #0
 301 013a 1370     		strb	r3, [r2]
 302 013c 09E0     		b	.L87
 303              	.L54:
 203:key.c         **** 			leftKeyCnt = 0;
 204:key.c         **** 			activeKey = KEY_LEFT;
 205:key.c         **** 			activeKey2 = KEY_LEFT;
 206:key.c         **** 		} else {
ARM GAS  /cygdrive/c/DOCUME~1/mkwapisz/LOCALS~1/Temp/ccuLeMEM.s 			page 10


 207:key.c         **** 			leftKeyCnt++;
 304              		.loc 1 207 0
 305 013e 0B78     		ldrb	r3, [r1]
 306 0140 0133     		add	r3, r3, #1
 307 0142 1B06     		lsl	r3, r3, #24
 308 0144 1B0E     		lsr	r3, r3, #24
 309 0146 0B70     		strb	r3, [r1]
 208:key.c         **** 			if (leftKeyCnt == FIRST_REPEAT) {
 310              		.loc 1 208 0
 311 0148 042B     		cmp	r3, #4
 312 014a 03D0     		beq	.L81
 209:key.c         **** 				activeKey = KEY_LEFT;
 210:key.c         **** 				activeKey2 = KEY_LEFT;
 211:key.c         **** 			} else if (leftKeyCnt >= FIRST_REPEAT + SECOND_REPEAT) {
 313              		.loc 1 211 0
 314 014c 062B     		cmp	r3, #6
 315 014e 05D9     		bls	.L82
 212:key.c         **** 				leftKeyCnt = FIRST_REPEAT;
 316              		.loc 1 212 0
 317 0150 0423     		mov	r3, #4
 318              	.L87:
 319 0152 0B70     		strb	r3, [r1]
 320              	.L81:
 213:key.c         **** 				activeKey = KEY_LEFT;
 321              		.loc 1 213 0
 322 0154 184B     		ldr	r3, .L89+8
 323 0156 1870     		strb	r0, [r3]
 214:key.c         **** 				activeKey2 = KEY_LEFT;
 324              		.loc 1 214 0
 325 0158 184B     		ldr	r3, .L89+12
 326 015a 1870     		strb	r0, [r3]
 327              	.L82:
 328 015c 0024     		mov	r4, #0
 329 015e 01E0     		b	.L56
 330              	.L52:
 215:key.c         **** 			}
 216:key.c         **** 		}
 217:key.c         **** 	} else
 218:key.c         **** 		keyLeftReleased = TRUE;
 331              		.loc 1 218 0
 332 0160 0123     		mov	r3, #1
 333 0162 1370     		strb	r3, [r2]
 334              	.L56:
 219:key.c         **** 
 220:key.c         **** 	//check right key
 221:key.c         **** 	if (readKeys & KEY_RIGHT) {
 335              		.loc 1 221 0
 336 0164 0220     		mov	r0, #2
 337 0166 291C     		mov	r1, r5
 338 0168 1B4A     		ldr	r2, .L89+40
 339 016a 0140     		and	r1, r0
 340 016c 16D0     		beq	.L61
 222:key.c         **** 		nothing = FALSE;
 223:key.c         **** 		if (keyRightReleased == TRUE) {
 341              		.loc 1 223 0
 342 016e 1378     		ldrb	r3, [r2]
 343 0170 1A49     		ldr	r1, .L89+44
ARM GAS  /cygdrive/c/DOCUME~1/mkwapisz/LOCALS~1/Temp/ccuLeMEM.s 			page 11


 344 0172 012B     		cmp	r3, #1
 345 0174 02D1     		bne	.L63
 224:key.c         **** 			keyRightReleased = FALSE;
 346              		.loc 1 224 0
 347 0176 0023     		mov	r3, #0
 348 0178 1370     		strb	r3, [r2]
 349 017a 09E0     		b	.L88
 350              	.L63:
 225:key.c         **** 			rightKeyCnt = 0;
 226:key.c         **** 			activeKey = KEY_RIGHT;
 227:key.c         **** 			activeKey2 = KEY_RIGHT;
 228:key.c         **** 		} else {
 229:key.c         **** 			rightKeyCnt++;
 351              		.loc 1 229 0
 352 017c 0B78     		ldrb	r3, [r1]
 353 017e 0133     		add	r3, r3, #1
 354 0180 1B06     		lsl	r3, r3, #24
 355 0182 1B0E     		lsr	r3, r3, #24
 356 0184 0B70     		strb	r3, [r1]
 230:key.c         **** 			if (rightKeyCnt == FIRST_REPEAT) {
 357              		.loc 1 230 0
 358 0186 042B     		cmp	r3, #4
 359 0188 03D0     		beq	.L84
 231:key.c         **** 				activeKey = KEY_RIGHT;
 232:key.c         **** 				activeKey2 = KEY_RIGHT;
 233:key.c         **** 			} else if (rightKeyCnt >= FIRST_REPEAT + SECOND_REPEAT) {
 360              		.loc 1 233 0
 361 018a 062B     		cmp	r3, #6
 362 018c 0CD9     		bls	.L70
 234:key.c         **** 				rightKeyCnt = FIRST_REPEAT;
 363              		.loc 1 234 0
 364 018e 0423     		mov	r3, #4
 365              	.L88:
 366 0190 0B70     		strb	r3, [r1]
 367              	.L84:
 235:key.c         **** 				activeKey = KEY_RIGHT;
 368              		.loc 1 235 0
 369 0192 094B     		ldr	r3, .L89+8
 370 0194 1870     		strb	r0, [r3]
 236:key.c         **** 				activeKey2 = KEY_RIGHT;
 371              		.loc 1 236 0
 372 0196 094B     		ldr	r3, .L89+12
 373 0198 1870     		strb	r0, [r3]
 374 019a 05E0     		b	.L70
 375              	.L61:
 237:key.c         **** 			}
 238:key.c         **** 		}
 239:key.c         **** 	} else
 240:key.c         **** 		keyRightReleased = TRUE;
 376              		.loc 1 240 0
 377 019c 0123     		mov	r3, #1
 378 019e 1370     		strb	r3, [r2]
 241:key.c         **** 
 242:key.c         **** 	if (nothing == TRUE)
 379              		.loc 1 242 0
 380 01a0 012C     		cmp	r4, #1
 381 01a2 01D1     		bne	.L70
ARM GAS  /cygdrive/c/DOCUME~1/mkwapisz/LOCALS~1/Temp/ccuLeMEM.s 			page 12


 243:key.c         **** 		activeKey2 = KEY_NOTHING;
 382              		.loc 1 243 0
 383 01a4 054B     		ldr	r3, .L89+12
 384 01a6 1970     		strb	r1, [r3]
 385              	.L70:
 244:key.c         **** }
 386              		.loc 1 244 0
 387              		@ sp needed for prologue
 388              	.LVL7:
 389 01a8 30BC     		pop	{r4, r5}
 390 01aa 01BC     		pop	{r0}
 391 01ac 0047     		bx	r0
 392              	.L90:
 393 01ae 0000     		.align	2
 394              	.L89:
 395 01b0 00000000 		.word	centerReleased
 396 01b4 02000000 		.word	centerKeyCnt
 397 01b8 00000000 		.word	activeKey
 398 01bc 01000000 		.word	activeKey2
 399 01c0 01000000 		.word	keyUpReleased
 400 01c4 03000000 		.word	upKeyCnt
 401 01c8 02000000 		.word	keyDownReleased
 402 01cc 04000000 		.word	downKeyCnt
 403 01d0 03000000 		.word	keyLeftReleased
 404 01d4 05000000 		.word	leftKeyCnt
 405 01d8 04000000 		.word	keyRightReleased
 406 01dc 06000000 		.word	rightKeyCnt
 407              	.LFE5:
 408              		.size	sampleKey, .-sampleKey
 409              		.align	2
 410              		.global	initKeyProc
 411              		.code 16
 412              		.thumb_func
 413              		.type	initKeyProc, %function
 414              	initKeyProc:
 415              	.LFB7:
 245:key.c         **** 
 246:key.c         **** /*****************************************************************************
 247:key.c         ****  *
 248:key.c         ****  * Description:
 249:key.c         ****  *    A process entry function 
 250:key.c         ****  *
 251:key.c         ****  * Params:
 252:key.c         ****  *    [in] arg - This parameter is not used in this application. 
 253:key.c         ****  *
 254:key.c         ****  ****************************************************************************/
 255:key.c         **** static void procKey(void* arg) {
 256:key.c         **** 	//make all key signals as inputs
 257:key.c         **** 	IODIR &= ~(KEYPIN_CENTER | KEYPIN_UP | KEYPIN_DOWN | KEYPIN_LEFT
 258:key.c         **** 			| KEYPIN_RIGHT);
 259:key.c         **** 
 260:key.c         **** 	//sample keys each 50 ms, i.e., 20 times per second
 261:key.c         **** 	while (1) {
 262:key.c         **** 		sampleKey();
 263:key.c         **** 		osSleep(5);
 264:key.c         **** 	}
 265:key.c         **** }
ARM GAS  /cygdrive/c/DOCUME~1/mkwapisz/LOCALS~1/Temp/ccuLeMEM.s 			page 13


 266:key.c         **** 
 267:key.c         **** /*****************************************************************************
 268:key.c         ****  *
 269:key.c         ****  * Description:
 270:key.c         ****  *    Creates and starts the key sampling process. 
 271:key.c         ****  *
 272:key.c         ****  ****************************************************************************/
 273:key.c         **** void initKeyProc(void) {
 416              		.loc 1 273 0
 417 01e0 30B5     		push	{r4, r5, lr}
 418              	.LCFI1:
 419 01e2 84B0     		sub	sp, sp, #16
 420              	.LCFI2:
 274:key.c         **** 	tU8 error;
 275:key.c         **** 
 276:key.c         **** 	osCreateProcess(procKey, keyProcStack, KEYPROC_STACK_SIZE, &keyProcPid, 3,
 421              		.loc 1 276 0
 422 01e4 0B4D     		ldr	r5, .L93
 423 01e6 0323     		mov	r3, #3
 424 01e8 0093     		str	r3, [sp]
 425 01ea 6C46     		mov	r4, sp
 426 01ec 0023     		mov	r3, #0
 427 01ee 9622     		mov	r2, #150
 428 01f0 5200     		lsl	r2, r2, #1
 429 01f2 0193     		str	r3, [sp, #4]
 430 01f4 0F34     		add	r4, r4, #15
 431 01f6 2B1C     		mov	r3, r5
 432 01f8 0748     		ldr	r0, .L93+4
 433 01fa 0849     		ldr	r1, .L93+8
 434 01fc 0294     		str	r4, [sp, #8]
 435 01fe FFF7FEFF 		bl	osCreateProcess
 277:key.c         **** 			NULL, &error);
 278:key.c         **** 	osStartProcess(keyProcPid, &error);
 436              		.loc 1 278 0
 437 0202 2878     		ldrb	r0, [r5]
 438 0204 211C     		mov	r1, r4
 439 0206 FFF7FEFF 		bl	osStartProcess
 279:key.c         **** }
 440              		.loc 1 279 0
 441 020a 04B0     		add	sp, sp, #16
 442              		@ sp needed for prologue
 443 020c 30BC     		pop	{r4, r5}
 444 020e 01BC     		pop	{r0}
 445 0210 0047     		bx	r0
 446              	.L94:
 447 0212 0000     		.align	2
 448              	.L93:
 449 0214 33010000 		.word	keyProcPid
 450 0218 00000000 		.word	procKey
 451 021c 07000000 		.word	keyProcStack
 452              	.LFE7:
 453              		.size	initKeyProc, .-initKeyProc
 454              		.align	2
 455              		.code 16
 456              		.thumb_func
 457              		.type	procKey, %function
 458              	procKey:
ARM GAS  /cygdrive/c/DOCUME~1/mkwapisz/LOCALS~1/Temp/ccuLeMEM.s 			page 14


 459              	.LFB6:
 460              		.loc 1 255 0
 461 0220 00B5     		push	{lr}
 462              	.LCFI3:
 463              	.LVL8:
 464              		.loc 1 257 0
 465 0222 054B     		ldr	r3, .L98
 466 0224 0549     		ldr	r1, .L98+4
 467 0226 1A68     		ldr	r2, [r3]
 468 0228 0A40     		and	r2, r2, r1
 469 022a 1A60     		str	r2, [r3]
 470              	.L96:
 471              		.loc 1 262 0
 472 022c FFF7FEFF 		bl	sampleKey
 473              	.LVL9:
 474              		.loc 1 263 0
 475 0230 0520     		mov	r0, #5
 476 0232 FFF7FEFF 		bl	osSleep
 477 0236 F9E7     		b	.L96
 478              	.L99:
 479              		.align	2
 480              	.L98:
 481 0238 088002E0 		.word	-536707064
 482 023c FFE0FFFF 		.word	-7937
 483              	.LFE6:
 484              		.size	procKey, .-procKey
 485              		.data
 486              		.type	centerReleased, %object
 487              		.size	centerReleased, 1
 488              	centerReleased:
 489 0000 01       		.byte	1
 490              		.bss
 491              	activeKey:
 492 0000 00       		.space	1
 493              	activeKey2:
 494 0001 00       		.space	1
 495              		.data
 496              		.type	keyUpReleased, %object
 497              		.size	keyUpReleased, 1
 498              	keyUpReleased:
 499 0001 01       		.byte	1
 500              		.type	keyDownReleased, %object
 501              		.size	keyDownReleased, 1
 502              	keyDownReleased:
 503 0002 01       		.byte	1
 504              		.type	keyLeftReleased, %object
 505              		.size	keyLeftReleased, 1
 506              	keyLeftReleased:
 507 0003 01       		.byte	1
 508              		.type	keyRightReleased, %object
 509              		.size	keyRightReleased, 1
 510              	keyRightReleased:
 511 0004 01       		.byte	1
 512              		.bss
 513              	centerKeyCnt:
 514 0002 00       		.space	1
 515              	upKeyCnt:
ARM GAS  /cygdrive/c/DOCUME~1/mkwapisz/LOCALS~1/Temp/ccuLeMEM.s 			page 15


 516 0003 00       		.space	1
 517              	downKeyCnt:
 518 0004 00       		.space	1
 519              	leftKeyCnt:
 520 0005 00       		.space	1
 521              	rightKeyCnt:
 522 0006 00       		.space	1
 523              	keyProcStack:
 524 0007 00000000 		.space	300
 524      00000000 
 524      00000000 
 524      00000000 
 524      00000000 
 525              	keyProcPid:
 526 0133 00       		.space	1
 527              		.section	.debug_frame,"",%progbits
 528              	.Lframe0:
 529 0000 0C000000 		.4byte	.LECIE0-.LSCIE0
 530              	.LSCIE0:
 531 0004 FFFFFFFF 		.4byte	0xffffffff
 532 0008 01       		.byte	0x1
 533 0009 00       		.ascii	"\000"
 534 000a 01       		.uleb128 0x1
 535 000b 7C       		.sleb128 -4
 536 000c 0E       		.byte	0xe
 537 000d 0C       		.byte	0xc
 538 000e 0D       		.uleb128 0xd
 539 000f 00       		.uleb128 0x0
 540              		.align	2
 541              	.LECIE0:
 542              	.LSFDE0:
 543 0010 0C000000 		.4byte	.LEFDE0-.LASFDE0
 544              	.LASFDE0:
 545 0014 00000000 		.4byte	.Lframe0
 546 0018 00000000 		.4byte	.LFB2
 547 001c 50000000 		.4byte	.LFE2-.LFB2
 548              		.align	2
 549              	.LEFDE0:
 550              	.LSFDE2:
 551 0020 0C000000 		.4byte	.LEFDE2-.LASFDE2
 552              	.LASFDE2:
 553 0024 00000000 		.4byte	.Lframe0
 554 0028 50000000 		.4byte	.LFB3
 555 002c 10000000 		.4byte	.LFE3-.LFB3
 556              		.align	2
 557              	.LEFDE2:
 558              	.LSFDE4:
 559 0030 0C000000 		.4byte	.LEFDE4-.LASFDE4
 560              	.LASFDE4:
 561 0034 00000000 		.4byte	.Lframe0
 562 0038 60000000 		.4byte	.LFB4
 563 003c 0C000000 		.4byte	.LFE4-.LFB4
 564              		.align	2
 565              	.LEFDE4:
 566              	.LSFDE6:
 567 0040 18000000 		.4byte	.LEFDE6-.LASFDE6
 568              	.LASFDE6:
ARM GAS  /cygdrive/c/DOCUME~1/mkwapisz/LOCALS~1/Temp/ccuLeMEM.s 			page 16


 569 0044 00000000 		.4byte	.Lframe0
 570 0048 6C000000 		.4byte	.LFB5
 571 004c 74010000 		.4byte	.LFE5-.LFB5
 572 0050 42       		.byte	0x4
 573              		.4byte	.LCFI0-.LFB5
 574 0051 0E       		.byte	0xe
 575 0052 0C       		.uleb128 0xc
 576 0053 84       		.byte	0x84
 577 0054 03       		.uleb128 0x3
 578 0055 85       		.byte	0x85
 579 0056 02       		.uleb128 0x2
 580 0057 8E       		.byte	0x8e
 581 0058 01       		.uleb128 0x1
 582 0059 000000   		.align	2
 583              	.LEFDE6:
 584              	.LSFDE8:
 585 005c 18000000 		.4byte	.LEFDE8-.LASFDE8
 586              	.LASFDE8:
 587 0060 00000000 		.4byte	.Lframe0
 588 0064 E0010000 		.4byte	.LFB7
 589 0068 40000000 		.4byte	.LFE7-.LFB7
 590 006c 42       		.byte	0x4
 591              		.4byte	.LCFI1-.LFB7
 592 006d 0E       		.byte	0xe
 593 006e 0C       		.uleb128 0xc
 594 006f 84       		.byte	0x84
 595 0070 03       		.uleb128 0x3
 596 0071 85       		.byte	0x85
 597 0072 02       		.uleb128 0x2
 598 0073 8E       		.byte	0x8e
 599 0074 01       		.uleb128 0x1
 600 0075 42       		.byte	0x4
 601              		.4byte	.LCFI2-.LCFI1
 602 0076 0E       		.byte	0xe
 603 0077 1C       		.uleb128 0x1c
 604              		.align	2
 605              	.LEFDE8:
 606              	.LSFDE10:
 607 0078 14000000 		.4byte	.LEFDE10-.LASFDE10
 608              	.LASFDE10:
 609 007c 00000000 		.4byte	.Lframe0
 610 0080 20020000 		.4byte	.LFB6
 611 0084 20000000 		.4byte	.LFE6-.LFB6
 612 0088 42       		.byte	0x4
 613              		.4byte	.LCFI3-.LFB6
 614 0089 0E       		.byte	0xe
 615 008a 04       		.uleb128 0x4
 616 008b 8E       		.byte	0x8e
 617 008c 01       		.uleb128 0x1
 618 008d 000000   		.align	2
 619              	.LEFDE10:
 620              		.file 2 "./startup/../pre_emptive_os/api/../api/general.h"
 621              		.text
 622              	.Letext0:
 623              		.section	.debug_loc,"",%progbits
 624              	.Ldebug_loc0:
 625              	.LLST1:
ARM GAS  /cygdrive/c/DOCUME~1/mkwapisz/LOCALS~1/Temp/ccuLeMEM.s 			page 17


 626 0000 0A000000 		.4byte	.LVL0-.Ltext0
 627 0004 0C000000 		.4byte	.LVL1-.Ltext0
 628 0008 0100     		.2byte	0x1
 629 000a 50       		.byte	0x50
 630 000b 0E000000 		.4byte	.LVL2-.Ltext0
 631 000f 48000000 		.4byte	.LVL3-.Ltext0
 632 0013 0100     		.2byte	0x1
 633 0015 50       		.byte	0x50
 634 0016 00000000 		.4byte	0x0
 635 001a 00000000 		.4byte	0x0
 636              	.LLST4:
 637 001e 6C000000 		.4byte	.LFB5-.Ltext0
 638 0022 6E000000 		.4byte	.LCFI0-.Ltext0
 639 0026 0100     		.2byte	0x1
 640 0028 5D       		.byte	0x5d
 641 0029 6E000000 		.4byte	.LCFI0-.Ltext0
 642 002d E0010000 		.4byte	.LFE5-.Ltext0
 643 0031 0200     		.2byte	0x2
 644 0033 7D       		.byte	0x7d
 645 0034 0C       		.sleb128 12
 646 0035 00000000 		.4byte	0x0
 647 0039 00000000 		.4byte	0x0
 648              	.LLST5:
 649 003d AA000000 		.4byte	.LVL4-.Ltext0
 650 0041 AC000000 		.4byte	.LVL5-.Ltext0
 651 0045 0100     		.2byte	0x1
 652 0047 54       		.byte	0x54
 653 0048 B2000000 		.4byte	.LVL6-.Ltext0
 654 004c A8010000 		.4byte	.LVL7-.Ltext0
 655 0050 0100     		.2byte	0x1
 656 0052 54       		.byte	0x54
 657 0053 00000000 		.4byte	0x0
 658 0057 00000000 		.4byte	0x0
 659              	.LLST6:
 660 005b E0010000 		.4byte	.LFB7-.Ltext0
 661 005f E2010000 		.4byte	.LCFI1-.Ltext0
 662 0063 0100     		.2byte	0x1
 663 0065 5D       		.byte	0x5d
 664 0066 E2010000 		.4byte	.LCFI1-.Ltext0
 665 006a E4010000 		.4byte	.LCFI2-.Ltext0
 666 006e 0200     		.2byte	0x2
 667 0070 7D       		.byte	0x7d
 668 0071 0C       		.sleb128 12
 669 0072 E4010000 		.4byte	.LCFI2-.Ltext0
 670 0076 20020000 		.4byte	.LFE7-.Ltext0
 671 007a 0200     		.2byte	0x2
 672 007c 7D       		.byte	0x7d
 673 007d 1C       		.sleb128 28
 674 007e 00000000 		.4byte	0x0
 675 0082 00000000 		.4byte	0x0
 676              	.LLST7:
 677 0086 20020000 		.4byte	.LFB6-.Ltext0
 678 008a 22020000 		.4byte	.LCFI3-.Ltext0
 679 008e 0100     		.2byte	0x1
 680 0090 5D       		.byte	0x5d
 681 0091 22020000 		.4byte	.LCFI3-.Ltext0
 682 0095 40020000 		.4byte	.LFE6-.Ltext0
ARM GAS  /cygdrive/c/DOCUME~1/mkwapisz/LOCALS~1/Temp/ccuLeMEM.s 			page 18


 683 0099 0200     		.2byte	0x2
 684 009b 7D       		.byte	0x7d
 685 009c 04       		.sleb128 4
 686 009d 00000000 		.4byte	0x0
 687 00a1 00000000 		.4byte	0x0
 688              	.LLST8:
 689 00a5 22020000 		.4byte	.LVL8-.Ltext0
 690 00a9 30020000 		.4byte	.LVL9-.Ltext0
 691 00ad 0100     		.2byte	0x1
 692 00af 50       		.byte	0x50
 693 00b0 00000000 		.4byte	0x0
 694 00b4 00000000 		.4byte	0x0
 695              		.section	.debug_info
 696 0000 60020000 		.4byte	0x260
 697 0004 0200     		.2byte	0x2
 698 0006 00000000 		.4byte	.Ldebug_abbrev0
 699 000a 04       		.byte	0x4
 700 000b 01       		.uleb128 0x1
 701 000c 00000000 		.4byte	.Ldebug_line0
 702 0010 40020000 		.4byte	.Letext0
 703 0014 00000000 		.4byte	.Ltext0
 704 0018 4D010000 		.4byte	.LASF29
 705 001c 01       		.byte	0x1
 706 001d 19000000 		.4byte	.LASF30
 707 0021 1F000000 		.4byte	.LASF31
 708 0025 02       		.uleb128 0x2
 709 0026 74553800 		.ascii	"tU8\000"
 710 002a 02       		.byte	0x2
 711 002b 46       		.byte	0x46
 712 002c 30000000 		.4byte	0x30
 713 0030 03       		.uleb128 0x3
 714 0031 BC000000 		.4byte	.LASF0
 715 0035 01       		.byte	0x1
 716 0036 08       		.byte	0x8
 717 0037 03       		.uleb128 0x3
 718 0038 E4000000 		.4byte	.LASF1
 719 003c 02       		.byte	0x2
 720 003d 07       		.byte	0x7
 721 003e 03       		.uleb128 0x3
 722 003f 2A010000 		.4byte	.LASF2
 723 0043 04       		.byte	0x4
 724 0044 07       		.byte	0x7
 725 0045 03       		.uleb128 0x3
 726 0046 93010000 		.4byte	.LASF3
 727 004a 01       		.byte	0x1
 728 004b 06       		.byte	0x6
 729 004c 03       		.uleb128 0x3
 730 004d 64010000 		.4byte	.LASF4
 731 0051 02       		.byte	0x2
 732 0052 05       		.byte	0x5
 733 0053 04       		.uleb128 0x4
 734 0054 696E7400 		.ascii	"int\000"
 735 0058 04       		.byte	0x4
 736 0059 05       		.byte	0x5
 737 005a 05       		.uleb128 0x5
 738 005b 9F010000 		.4byte	.LASF5
 739 005f 02       		.byte	0x2
ARM GAS  /cygdrive/c/DOCUME~1/mkwapisz/LOCALS~1/Temp/ccuLeMEM.s 			page 19


 740 0060 4C       		.byte	0x4c
 741 0061 30000000 		.4byte	0x30
 742 0065 03       		.uleb128 0x3
 743 0066 CA000000 		.4byte	.LASF6
 744 006a 04       		.byte	0x4
 745 006b 07       		.byte	0x7
 746 006c 06       		.uleb128 0x6
 747 006d 04       		.byte	0x4
 748 006e 07       		.uleb128 0x7
 749 006f 99000000 		.4byte	0x99
 750 0073 01       		.byte	0x1
 751 0074 F7000000 		.4byte	.LASF7
 752 0078 01       		.byte	0x1
 753 0079 50       		.byte	0x50
 754 007a 01       		.byte	0x1
 755 007b 25000000 		.4byte	0x25
 756 007f 00000000 		.4byte	.LFB2
 757 0083 50000000 		.4byte	.LFE2
 758 0087 01       		.byte	0x1
 759 0088 5D       		.byte	0x5d
 760 0089 08       		.uleb128 0x8
 761 008a 44010000 		.4byte	.LASF9
 762 008e 01       		.byte	0x1
 763 008f 51       		.byte	0x51
 764 0090 25000000 		.4byte	0x25
 765 0094 00000000 		.4byte	.LLST1
 766 0098 00       		.byte	0x0
 767 0099 07       		.uleb128 0x7
 768 009a C2000000 		.4byte	0xc2
 769 009e 01       		.byte	0x1
 770 009f 7F010000 		.4byte	.LASF8
 771 00a3 01       		.byte	0x1
 772 00a4 67       		.byte	0x67
 773 00a5 01       		.byte	0x1
 774 00a6 25000000 		.4byte	0x25
 775 00aa 50000000 		.4byte	.LFB3
 776 00ae 60000000 		.4byte	.LFE3
 777 00b2 01       		.byte	0x1
 778 00b3 5D       		.byte	0x5d
 779 00b4 09       		.uleb128 0x9
 780 00b5 8E000000 		.4byte	.LASF10
 781 00b9 01       		.byte	0x1
 782 00ba 68       		.byte	0x68
 783 00bb 25000000 		.4byte	0x25
 784 00bf 01       		.byte	0x1
 785 00c0 50       		.byte	0x50
 786 00c1 00       		.byte	0x0
 787 00c2 0A       		.uleb128 0xa
 788 00c3 01       		.byte	0x1
 789 00c4 A5010000 		.4byte	.LASF32
 790 00c8 01       		.byte	0x1
 791 00c9 73       		.byte	0x73
 792 00ca 01       		.byte	0x1
 793 00cb 25000000 		.4byte	0x25
 794 00cf 60000000 		.4byte	.LFB4
 795 00d3 6C000000 		.4byte	.LFE4
 796 00d7 01       		.byte	0x1
ARM GAS  /cygdrive/c/DOCUME~1/mkwapisz/LOCALS~1/Temp/ccuLeMEM.s 			page 20


 797 00d8 5D       		.byte	0x5d
 798 00d9 0B       		.uleb128 0xb
 799 00da 0D010000 		.4byte	0x10d
 800 00de 01       		.byte	0x1
 801 00df AF010000 		.4byte	.LASF11
 802 00e3 01       		.byte	0x1
 803 00e4 7D       		.byte	0x7d
 804 00e5 01       		.byte	0x1
 805 00e6 6C000000 		.4byte	.LFB5
 806 00ea E0010000 		.4byte	.LFE5
 807 00ee 1E000000 		.4byte	.LLST4
 808 00f2 08       		.uleb128 0x8
 809 00f3 FF000000 		.4byte	.LASF12
 810 00f7 01       		.byte	0x1
 811 00f8 7E       		.byte	0x7e
 812 00f9 5A000000 		.4byte	0x5a
 813 00fd 3D000000 		.4byte	.LLST5
 814 0101 0C       		.uleb128 0xc
 815 0102 44010000 		.4byte	.LASF9
 816 0106 01       		.byte	0x1
 817 0107 7F       		.byte	0x7f
 818 0108 25000000 		.4byte	0x25
 819 010c 00       		.byte	0x0
 820 010d 0D       		.uleb128 0xd
 821 010e 37010000 		.4byte	0x137
 822 0112 01       		.byte	0x1
 823 0113 A1000000 		.4byte	.LASF13
 824 0117 01       		.byte	0x1
 825 0118 1101     		.2byte	0x111
 826 011a 01       		.byte	0x1
 827 011b E0010000 		.4byte	.LFB7
 828 011f 20020000 		.4byte	.LFE7
 829 0123 5B000000 		.4byte	.LLST6
 830 0127 0E       		.uleb128 0xe
 831 0128 6E010000 		.4byte	.LASF14
 832 012c 01       		.byte	0x1
 833 012d 1201     		.2byte	0x112
 834 012f 25000000 		.4byte	0x25
 835 0133 02       		.byte	0x2
 836 0134 91       		.byte	0x91
 837 0135 73       		.sleb128 -13
 838 0136 00       		.byte	0x0
 839 0137 0F       		.uleb128 0xf
 840 0138 5F010000 		.4byte	0x15f
 841 013c DC000000 		.4byte	.LASF33
 842 0140 01       		.byte	0x1
 843 0141 FF       		.byte	0xff
 844 0142 01       		.byte	0x1
 845 0143 20020000 		.4byte	.LFB6
 846 0147 40020000 		.4byte	.LFE6
 847 014b 86000000 		.4byte	.LLST7
 848 014f 10       		.uleb128 0x10
 849 0150 61726700 		.ascii	"arg\000"
 850 0154 01       		.byte	0x1
 851 0155 FF       		.byte	0xff
 852 0156 6C000000 		.4byte	0x6c
 853 015a A5000000 		.4byte	.LLST8
ARM GAS  /cygdrive/c/DOCUME~1/mkwapisz/LOCALS~1/Temp/ccuLeMEM.s 			page 21


 854 015e 00       		.byte	0x0
 855 015f 09       		.uleb128 0x9
 856 0160 AD000000 		.4byte	.LASF15
 857 0164 01       		.byte	0x1
 858 0165 39       		.byte	0x39
 859 0166 25000000 		.4byte	0x25
 860 016a 05       		.byte	0x5
 861 016b 03       		.byte	0x3
 862 016c 00000000 		.4byte	centerReleased
 863 0170 09       		.uleb128 0x9
 864 0171 1C010000 		.4byte	.LASF16
 865 0175 01       		.byte	0x1
 866 0176 3A       		.byte	0x3a
 867 0177 25000000 		.4byte	0x25
 868 017b 05       		.byte	0x5
 869 017c 03       		.byte	0x3
 870 017d 01000000 		.4byte	keyUpReleased
 871 0181 09       		.uleb128 0x9
 872 0182 71000000 		.4byte	.LASF17
 873 0186 01       		.byte	0x1
 874 0187 3B       		.byte	0x3b
 875 0188 25000000 		.4byte	0x25
 876 018c 05       		.byte	0x5
 877 018d 03       		.byte	0x3
 878 018e 02000000 		.4byte	keyDownReleased
 879 0192 09       		.uleb128 0x9
 880 0193 00000000 		.4byte	.LASF18
 881 0197 01       		.byte	0x1
 882 0198 3C       		.byte	0x3c
 883 0199 25000000 		.4byte	0x25
 884 019d 05       		.byte	0x5
 885 019e 03       		.byte	0x3
 886 019f 03000000 		.4byte	keyLeftReleased
 887 01a3 09       		.uleb128 0x9
 888 01a4 B9010000 		.4byte	.LASF19
 889 01a8 01       		.byte	0x1
 890 01a9 3D       		.byte	0x3d
 891 01aa 25000000 		.4byte	0x25
 892 01ae 05       		.byte	0x5
 893 01af 03       		.byte	0x3
 894 01b0 04000000 		.4byte	keyRightReleased
 895 01b4 09       		.uleb128 0x9
 896 01b5 37010000 		.4byte	.LASF20
 897 01b9 01       		.byte	0x1
 898 01ba 3E       		.byte	0x3e
 899 01bb 25000000 		.4byte	0x25
 900 01bf 05       		.byte	0x5
 901 01c0 03       		.byte	0x3
 902 01c1 02000000 		.4byte	centerKeyCnt
 903 01c5 09       		.uleb128 0x9
 904 01c6 10000000 		.4byte	.LASF21
 905 01ca 01       		.byte	0x1
 906 01cb 3F       		.byte	0x3f
 907 01cc 25000000 		.4byte	0x25
 908 01d0 05       		.byte	0x5
 909 01d1 03       		.byte	0x3
 910 01d2 03000000 		.4byte	upKeyCnt
ARM GAS  /cygdrive/c/DOCUME~1/mkwapisz/LOCALS~1/Temp/ccuLeMEM.s 			page 22


 911 01d6 09       		.uleb128 0x9
 912 01d7 07010000 		.4byte	.LASF22
 913 01db 01       		.byte	0x1
 914 01dc 40       		.byte	0x40
 915 01dd 25000000 		.4byte	0x25
 916 01e1 05       		.byte	0x5
 917 01e2 03       		.byte	0x3
 918 01e3 04000000 		.4byte	downKeyCnt
 919 01e7 09       		.uleb128 0x9
 920 01e8 74010000 		.4byte	.LASF23
 921 01ec 01       		.byte	0x1
 922 01ed 41       		.byte	0x41
 923 01ee 25000000 		.4byte	0x25
 924 01f2 05       		.byte	0x5
 925 01f3 03       		.byte	0x3
 926 01f4 05000000 		.4byte	leftKeyCnt
 927 01f8 09       		.uleb128 0x9
 928 01f9 95000000 		.4byte	.LASF24
 929 01fd 01       		.byte	0x1
 930 01fe 42       		.byte	0x42
 931 01ff 25000000 		.4byte	0x25
 932 0203 05       		.byte	0x5
 933 0204 03       		.byte	0x3
 934 0205 06000000 		.4byte	rightKeyCnt
 935 0209 09       		.uleb128 0x9
 936 020a 12010000 		.4byte	.LASF25
 937 020e 01       		.byte	0x1
 938 020f 44       		.byte	0x44
 939 0210 1A020000 		.4byte	0x21a
 940 0214 05       		.byte	0x5
 941 0215 03       		.byte	0x3
 942 0216 00000000 		.4byte	activeKey
 943 021a 11       		.uleb128 0x11
 944 021b 25000000 		.4byte	0x25
 945 021f 09       		.uleb128 0x9
 946 0220 59010000 		.4byte	.LASF26
 947 0224 01       		.byte	0x1
 948 0225 45       		.byte	0x45
 949 0226 1A020000 		.4byte	0x21a
 950 022a 05       		.byte	0x5
 951 022b 03       		.byte	0x3
 952 022c 01000000 		.4byte	activeKey2
 953 0230 12       		.uleb128 0x12
 954 0231 41020000 		.4byte	0x241
 955 0235 25000000 		.4byte	0x25
 956 0239 13       		.uleb128 0x13
 957 023a 65000000 		.4byte	0x65
 958 023e 2B01     		.2byte	0x12b
 959 0240 00       		.byte	0x0
 960 0241 09       		.uleb128 0x9
 961 0242 81000000 		.4byte	.LASF27
 962 0246 01       		.byte	0x1
 963 0247 47       		.byte	0x47
 964 0248 30020000 		.4byte	0x230
 965 024c 05       		.byte	0x5
 966 024d 03       		.byte	0x3
 967 024e 07000000 		.4byte	keyProcStack
ARM GAS  /cygdrive/c/DOCUME~1/mkwapisz/LOCALS~1/Temp/ccuLeMEM.s 			page 23


 968 0252 09       		.uleb128 0x9
 969 0253 88010000 		.4byte	.LASF28
 970 0257 01       		.byte	0x1
 971 0258 48       		.byte	0x48
 972 0259 25000000 		.4byte	0x25
 973 025d 05       		.byte	0x5
 974 025e 03       		.byte	0x3
 975 025f 33010000 		.4byte	keyProcPid
 976 0263 00       		.byte	0x0
 977              		.section	.debug_abbrev
 978 0000 01       		.uleb128 0x1
 979 0001 11       		.uleb128 0x11
 980 0002 01       		.byte	0x1
 981 0003 10       		.uleb128 0x10
 982 0004 06       		.uleb128 0x6
 983 0005 12       		.uleb128 0x12
 984 0006 01       		.uleb128 0x1
 985 0007 11       		.uleb128 0x11
 986 0008 01       		.uleb128 0x1
 987 0009 25       		.uleb128 0x25
 988 000a 0E       		.uleb128 0xe
 989 000b 13       		.uleb128 0x13
 990 000c 0B       		.uleb128 0xb
 991 000d 03       		.uleb128 0x3
 992 000e 0E       		.uleb128 0xe
 993 000f 1B       		.uleb128 0x1b
 994 0010 0E       		.uleb128 0xe
 995 0011 00       		.byte	0x0
 996 0012 00       		.byte	0x0
 997 0013 02       		.uleb128 0x2
 998 0014 16       		.uleb128 0x16
 999 0015 00       		.byte	0x0
 1000 0016 03       		.uleb128 0x3
 1001 0017 08       		.uleb128 0x8
 1002 0018 3A       		.uleb128 0x3a
 1003 0019 0B       		.uleb128 0xb
 1004 001a 3B       		.uleb128 0x3b
 1005 001b 0B       		.uleb128 0xb
 1006 001c 49       		.uleb128 0x49
 1007 001d 13       		.uleb128 0x13
 1008 001e 00       		.byte	0x0
 1009 001f 00       		.byte	0x0
 1010 0020 03       		.uleb128 0x3
 1011 0021 24       		.uleb128 0x24
 1012 0022 00       		.byte	0x0
 1013 0023 03       		.uleb128 0x3
 1014 0024 0E       		.uleb128 0xe
 1015 0025 0B       		.uleb128 0xb
 1016 0026 0B       		.uleb128 0xb
 1017 0027 3E       		.uleb128 0x3e
 1018 0028 0B       		.uleb128 0xb
 1019 0029 00       		.byte	0x0
 1020 002a 00       		.byte	0x0
 1021 002b 04       		.uleb128 0x4
 1022 002c 24       		.uleb128 0x24
 1023 002d 00       		.byte	0x0
 1024 002e 03       		.uleb128 0x3
ARM GAS  /cygdrive/c/DOCUME~1/mkwapisz/LOCALS~1/Temp/ccuLeMEM.s 			page 24


 1025 002f 08       		.uleb128 0x8
 1026 0030 0B       		.uleb128 0xb
 1027 0031 0B       		.uleb128 0xb
 1028 0032 3E       		.uleb128 0x3e
 1029 0033 0B       		.uleb128 0xb
 1030 0034 00       		.byte	0x0
 1031 0035 00       		.byte	0x0
 1032 0036 05       		.uleb128 0x5
 1033 0037 16       		.uleb128 0x16
 1034 0038 00       		.byte	0x0
 1035 0039 03       		.uleb128 0x3
 1036 003a 0E       		.uleb128 0xe
 1037 003b 3A       		.uleb128 0x3a
 1038 003c 0B       		.uleb128 0xb
 1039 003d 3B       		.uleb128 0x3b
 1040 003e 0B       		.uleb128 0xb
 1041 003f 49       		.uleb128 0x49
 1042 0040 13       		.uleb128 0x13
 1043 0041 00       		.byte	0x0
 1044 0042 00       		.byte	0x0
 1045 0043 06       		.uleb128 0x6
 1046 0044 0F       		.uleb128 0xf
 1047 0045 00       		.byte	0x0
 1048 0046 0B       		.uleb128 0xb
 1049 0047 0B       		.uleb128 0xb
 1050 0048 00       		.byte	0x0
 1051 0049 00       		.byte	0x0
 1052 004a 07       		.uleb128 0x7
 1053 004b 2E       		.uleb128 0x2e
 1054 004c 01       		.byte	0x1
 1055 004d 01       		.uleb128 0x1
 1056 004e 13       		.uleb128 0x13
 1057 004f 3F       		.uleb128 0x3f
 1058 0050 0C       		.uleb128 0xc
 1059 0051 03       		.uleb128 0x3
 1060 0052 0E       		.uleb128 0xe
 1061 0053 3A       		.uleb128 0x3a
 1062 0054 0B       		.uleb128 0xb
 1063 0055 3B       		.uleb128 0x3b
 1064 0056 0B       		.uleb128 0xb
 1065 0057 27       		.uleb128 0x27
 1066 0058 0C       		.uleb128 0xc
 1067 0059 49       		.uleb128 0x49
 1068 005a 13       		.uleb128 0x13
 1069 005b 11       		.uleb128 0x11
 1070 005c 01       		.uleb128 0x1
 1071 005d 12       		.uleb128 0x12
 1072 005e 01       		.uleb128 0x1
 1073 005f 40       		.uleb128 0x40
 1074 0060 0A       		.uleb128 0xa
 1075 0061 00       		.byte	0x0
 1076 0062 00       		.byte	0x0
 1077 0063 08       		.uleb128 0x8
 1078 0064 34       		.uleb128 0x34
 1079 0065 00       		.byte	0x0
 1080 0066 03       		.uleb128 0x3
 1081 0067 0E       		.uleb128 0xe
ARM GAS  /cygdrive/c/DOCUME~1/mkwapisz/LOCALS~1/Temp/ccuLeMEM.s 			page 25


 1082 0068 3A       		.uleb128 0x3a
 1083 0069 0B       		.uleb128 0xb
 1084 006a 3B       		.uleb128 0x3b
 1085 006b 0B       		.uleb128 0xb
 1086 006c 49       		.uleb128 0x49
 1087 006d 13       		.uleb128 0x13
 1088 006e 02       		.uleb128 0x2
 1089 006f 06       		.uleb128 0x6
 1090 0070 00       		.byte	0x0
 1091 0071 00       		.byte	0x0
 1092 0072 09       		.uleb128 0x9
 1093 0073 34       		.uleb128 0x34
 1094 0074 00       		.byte	0x0
 1095 0075 03       		.uleb128 0x3
 1096 0076 0E       		.uleb128 0xe
 1097 0077 3A       		.uleb128 0x3a
 1098 0078 0B       		.uleb128 0xb
 1099 0079 3B       		.uleb128 0x3b
 1100 007a 0B       		.uleb128 0xb
 1101 007b 49       		.uleb128 0x49
 1102 007c 13       		.uleb128 0x13
 1103 007d 02       		.uleb128 0x2
 1104 007e 0A       		.uleb128 0xa
 1105 007f 00       		.byte	0x0
 1106 0080 00       		.byte	0x0
 1107 0081 0A       		.uleb128 0xa
 1108 0082 2E       		.uleb128 0x2e
 1109 0083 00       		.byte	0x0
 1110 0084 3F       		.uleb128 0x3f
 1111 0085 0C       		.uleb128 0xc
 1112 0086 03       		.uleb128 0x3
 1113 0087 0E       		.uleb128 0xe
 1114 0088 3A       		.uleb128 0x3a
 1115 0089 0B       		.uleb128 0xb
 1116 008a 3B       		.uleb128 0x3b
 1117 008b 0B       		.uleb128 0xb
 1118 008c 27       		.uleb128 0x27
 1119 008d 0C       		.uleb128 0xc
 1120 008e 49       		.uleb128 0x49
 1121 008f 13       		.uleb128 0x13
 1122 0090 11       		.uleb128 0x11
 1123 0091 01       		.uleb128 0x1
 1124 0092 12       		.uleb128 0x12
 1125 0093 01       		.uleb128 0x1
 1126 0094 40       		.uleb128 0x40
 1127 0095 0A       		.uleb128 0xa
 1128 0096 00       		.byte	0x0
 1129 0097 00       		.byte	0x0
 1130 0098 0B       		.uleb128 0xb
 1131 0099 2E       		.uleb128 0x2e
 1132 009a 01       		.byte	0x1
 1133 009b 01       		.uleb128 0x1
 1134 009c 13       		.uleb128 0x13
 1135 009d 3F       		.uleb128 0x3f
 1136 009e 0C       		.uleb128 0xc
 1137 009f 03       		.uleb128 0x3
 1138 00a0 0E       		.uleb128 0xe
ARM GAS  /cygdrive/c/DOCUME~1/mkwapisz/LOCALS~1/Temp/ccuLeMEM.s 			page 26


 1139 00a1 3A       		.uleb128 0x3a
 1140 00a2 0B       		.uleb128 0xb
 1141 00a3 3B       		.uleb128 0x3b
 1142 00a4 0B       		.uleb128 0xb
 1143 00a5 27       		.uleb128 0x27
 1144 00a6 0C       		.uleb128 0xc
 1145 00a7 11       		.uleb128 0x11
 1146 00a8 01       		.uleb128 0x1
 1147 00a9 12       		.uleb128 0x12
 1148 00aa 01       		.uleb128 0x1
 1149 00ab 40       		.uleb128 0x40
 1150 00ac 06       		.uleb128 0x6
 1151 00ad 00       		.byte	0x0
 1152 00ae 00       		.byte	0x0
 1153 00af 0C       		.uleb128 0xc
 1154 00b0 34       		.uleb128 0x34
 1155 00b1 00       		.byte	0x0
 1156 00b2 03       		.uleb128 0x3
 1157 00b3 0E       		.uleb128 0xe
 1158 00b4 3A       		.uleb128 0x3a
 1159 00b5 0B       		.uleb128 0xb
 1160 00b6 3B       		.uleb128 0x3b
 1161 00b7 0B       		.uleb128 0xb
 1162 00b8 49       		.uleb128 0x49
 1163 00b9 13       		.uleb128 0x13
 1164 00ba 00       		.byte	0x0
 1165 00bb 00       		.byte	0x0
 1166 00bc 0D       		.uleb128 0xd
 1167 00bd 2E       		.uleb128 0x2e
 1168 00be 01       		.byte	0x1
 1169 00bf 01       		.uleb128 0x1
 1170 00c0 13       		.uleb128 0x13
 1171 00c1 3F       		.uleb128 0x3f
 1172 00c2 0C       		.uleb128 0xc
 1173 00c3 03       		.uleb128 0x3
 1174 00c4 0E       		.uleb128 0xe
 1175 00c5 3A       		.uleb128 0x3a
 1176 00c6 0B       		.uleb128 0xb
 1177 00c7 3B       		.uleb128 0x3b
 1178 00c8 05       		.uleb128 0x5
 1179 00c9 27       		.uleb128 0x27
 1180 00ca 0C       		.uleb128 0xc
 1181 00cb 11       		.uleb128 0x11
 1182 00cc 01       		.uleb128 0x1
 1183 00cd 12       		.uleb128 0x12
 1184 00ce 01       		.uleb128 0x1
 1185 00cf 40       		.uleb128 0x40
 1186 00d0 06       		.uleb128 0x6
 1187 00d1 00       		.byte	0x0
 1188 00d2 00       		.byte	0x0
 1189 00d3 0E       		.uleb128 0xe
 1190 00d4 34       		.uleb128 0x34
 1191 00d5 00       		.byte	0x0
 1192 00d6 03       		.uleb128 0x3
 1193 00d7 0E       		.uleb128 0xe
 1194 00d8 3A       		.uleb128 0x3a
 1195 00d9 0B       		.uleb128 0xb
ARM GAS  /cygdrive/c/DOCUME~1/mkwapisz/LOCALS~1/Temp/ccuLeMEM.s 			page 27


 1196 00da 3B       		.uleb128 0x3b
 1197 00db 05       		.uleb128 0x5
 1198 00dc 49       		.uleb128 0x49
 1199 00dd 13       		.uleb128 0x13
 1200 00de 02       		.uleb128 0x2
 1201 00df 0A       		.uleb128 0xa
 1202 00e0 00       		.byte	0x0
 1203 00e1 00       		.byte	0x0
 1204 00e2 0F       		.uleb128 0xf
 1205 00e3 2E       		.uleb128 0x2e
 1206 00e4 01       		.byte	0x1
 1207 00e5 01       		.uleb128 0x1
 1208 00e6 13       		.uleb128 0x13
 1209 00e7 03       		.uleb128 0x3
 1210 00e8 0E       		.uleb128 0xe
 1211 00e9 3A       		.uleb128 0x3a
 1212 00ea 0B       		.uleb128 0xb
 1213 00eb 3B       		.uleb128 0x3b
 1214 00ec 0B       		.uleb128 0xb
 1215 00ed 27       		.uleb128 0x27
 1216 00ee 0C       		.uleb128 0xc
 1217 00ef 11       		.uleb128 0x11
 1218 00f0 01       		.uleb128 0x1
 1219 00f1 12       		.uleb128 0x12
 1220 00f2 01       		.uleb128 0x1
 1221 00f3 40       		.uleb128 0x40
 1222 00f4 06       		.uleb128 0x6
 1223 00f5 00       		.byte	0x0
 1224 00f6 00       		.byte	0x0
 1225 00f7 10       		.uleb128 0x10
 1226 00f8 05       		.uleb128 0x5
 1227 00f9 00       		.byte	0x0
 1228 00fa 03       		.uleb128 0x3
 1229 00fb 08       		.uleb128 0x8
 1230 00fc 3A       		.uleb128 0x3a
 1231 00fd 0B       		.uleb128 0xb
 1232 00fe 3B       		.uleb128 0x3b
 1233 00ff 0B       		.uleb128 0xb
 1234 0100 49       		.uleb128 0x49
 1235 0101 13       		.uleb128 0x13
 1236 0102 02       		.uleb128 0x2
 1237 0103 06       		.uleb128 0x6
 1238 0104 00       		.byte	0x0
 1239 0105 00       		.byte	0x0
 1240 0106 11       		.uleb128 0x11
 1241 0107 35       		.uleb128 0x35
 1242 0108 00       		.byte	0x0
 1243 0109 49       		.uleb128 0x49
 1244 010a 13       		.uleb128 0x13
 1245 010b 00       		.byte	0x0
 1246 010c 00       		.byte	0x0
 1247 010d 12       		.uleb128 0x12
 1248 010e 01       		.uleb128 0x1
 1249 010f 01       		.byte	0x1
 1250 0110 01       		.uleb128 0x1
 1251 0111 13       		.uleb128 0x13
 1252 0112 49       		.uleb128 0x49
ARM GAS  /cygdrive/c/DOCUME~1/mkwapisz/LOCALS~1/Temp/ccuLeMEM.s 			page 28


 1253 0113 13       		.uleb128 0x13
 1254 0114 00       		.byte	0x0
 1255 0115 00       		.byte	0x0
 1256 0116 13       		.uleb128 0x13
 1257 0117 21       		.uleb128 0x21
 1258 0118 00       		.byte	0x0
 1259 0119 49       		.uleb128 0x49
 1260 011a 13       		.uleb128 0x13
 1261 011b 2F       		.uleb128 0x2f
 1262 011c 05       		.uleb128 0x5
 1263 011d 00       		.byte	0x0
 1264 011e 00       		.byte	0x0
 1265 011f 00       		.byte	0x0
 1266              		.section	.debug_pubnames,"",%progbits
 1267 0000 53000000 		.4byte	0x53
 1268 0004 0200     		.2byte	0x2
 1269 0006 00000000 		.4byte	.Ldebug_info0
 1270 000a 64020000 		.4byte	0x264
 1271 000e 6E000000 		.4byte	0x6e
 1272 0012 6765744B 		.ascii	"getKeys\000"
 1272      65797300 
 1273 001a 99000000 		.4byte	0x99
 1274 001e 63686563 		.ascii	"checkKey\000"
 1274      6B4B6579 
 1274      00
 1275 0027 C2000000 		.4byte	0xc2
 1276 002b 63686563 		.ascii	"checkKey2\000"
 1276      6B4B6579 
 1276      3200
 1277 0035 D9000000 		.4byte	0xd9
 1278 0039 73616D70 		.ascii	"sampleKey\000"
 1278      6C654B65 
 1278      7900
 1279 0043 0D010000 		.4byte	0x10d
 1280 0047 696E6974 		.ascii	"initKeyProc\000"
 1280      4B657950 
 1280      726F6300 
 1281 0053 00000000 		.4byte	0x0
 1282              		.section	.debug_aranges,"",%progbits
 1283 0000 1C000000 		.4byte	0x1c
 1284 0004 0200     		.2byte	0x2
 1285 0006 00000000 		.4byte	.Ldebug_info0
 1286 000a 04       		.byte	0x4
 1287 000b 00       		.byte	0x0
 1288 000c 0000     		.2byte	0x0
 1289 000e 0000     		.2byte	0x0
 1290 0010 00000000 		.4byte	.Ltext0
 1291 0014 40020000 		.4byte	.Letext0-.Ltext0
 1292 0018 00000000 		.4byte	0x0
 1293 001c 00000000 		.4byte	0x0
 1294              		.section	.debug_str,"MS",%progbits,1
 1295              	.LASF18:
 1296 0000 6B65794C 		.ascii	"keyLeftReleased\000"
 1296      65667452 
 1296      656C6561 
 1296      73656400 
 1297              	.LASF21:
ARM GAS  /cygdrive/c/DOCUME~1/mkwapisz/LOCALS~1/Temp/ccuLeMEM.s 			page 29


 1298 0010 75704B65 		.ascii	"upKeyCnt\000"
 1298      79436E74 
 1298      00
 1299              	.LASF30:
 1300 0019 6B65792E 		.ascii	"key.c\000"
 1300      6300
 1301              	.LASF31:
 1302 001f 2F637967 		.ascii	"/cygdrive/c/Documents and Settings/mkwapisz/My Docu"
 1302      64726976 
 1302      652F632F 
 1302      446F6375 
 1302      6D656E74 
 1303 0052 6D656E74 		.ascii	"ments/GitHub/IntergatedSystems\000"
 1303      732F4769 
 1303      74487562 
 1303      2F496E74 
 1303      65726761 
 1304              	.LASF17:
 1305 0071 6B657944 		.ascii	"keyDownReleased\000"
 1305      6F776E52 
 1305      656C6561 
 1305      73656400 
 1306              	.LASF27:
 1307 0081 6B657950 		.ascii	"keyProcStack\000"
 1307      726F6353 
 1307      7461636B 
 1307      00
 1308              	.LASF10:
 1309 008e 72657456 		.ascii	"retVal\000"
 1309      616C00
 1310              	.LASF24:
 1311 0095 72696768 		.ascii	"rightKeyCnt\000"
 1311      744B6579 
 1311      436E7400 
 1312              	.LASF13:
 1313 00a1 696E6974 		.ascii	"initKeyProc\000"
 1313      4B657950 
 1313      726F6300 
 1314              	.LASF15:
 1315 00ad 63656E74 		.ascii	"centerReleased\000"
 1315      65725265 
 1315      6C656173 
 1315      656400
 1316              	.LASF0:
 1317 00bc 756E7369 		.ascii	"unsigned char\000"
 1317      676E6564 
 1317      20636861 
 1317      7200
 1318              	.LASF6:
 1319 00ca 6C6F6E67 		.ascii	"long unsigned int\000"
 1319      20756E73 
 1319      69676E65 
 1319      6420696E 
 1319      7400
 1320              	.LASF33:
 1321 00dc 70726F63 		.ascii	"procKey\000"
 1321      4B657900 
ARM GAS  /cygdrive/c/DOCUME~1/mkwapisz/LOCALS~1/Temp/ccuLeMEM.s 			page 30


 1322              	.LASF1:
 1323 00e4 73686F72 		.ascii	"short unsigned int\000"
 1323      7420756E 
 1323      7369676E 
 1323      65642069 
 1323      6E7400
 1324              	.LASF7:
 1325 00f7 6765744B 		.ascii	"getKeys\000"
 1325      65797300 
 1326              	.LASF12:
 1327 00ff 6E6F7468 		.ascii	"nothing\000"
 1327      696E6700 
 1328              	.LASF22:
 1329 0107 646F776E 		.ascii	"downKeyCnt\000"
 1329      4B657943 
 1329      6E7400
 1330              	.LASF25:
 1331 0112 61637469 		.ascii	"activeKey\000"
 1331      76654B65 
 1331      7900
 1332              	.LASF16:
 1333 011c 6B657955 		.ascii	"keyUpReleased\000"
 1333      7052656C 
 1333      65617365 
 1333      6400
 1334              	.LASF2:
 1335 012a 756E7369 		.ascii	"unsigned int\000"
 1335      676E6564 
 1335      20696E74 
 1335      00
 1336              	.LASF20:
 1337 0137 63656E74 		.ascii	"centerKeyCnt\000"
 1337      65724B65 
 1337      79436E74 
 1337      00
 1338              	.LASF9:
 1339 0144 72656164 		.ascii	"readKeys\000"
 1339      4B657973 
 1339      00
 1340              	.LASF29:
 1341 014d 474E5520 		.ascii	"GNU C 4.1.1\000"
 1341      4320342E 
 1341      312E3100 
 1342              	.LASF26:
 1343 0159 61637469 		.ascii	"activeKey2\000"
 1343      76654B65 
 1343      793200
 1344              	.LASF4:
 1345 0164 73686F72 		.ascii	"short int\000"
 1345      7420696E 
 1345      7400
 1346              	.LASF14:
 1347 016e 6572726F 		.ascii	"error\000"
 1347      7200
 1348              	.LASF23:
 1349 0174 6C656674 		.ascii	"leftKeyCnt\000"
 1349      4B657943 
ARM GAS  /cygdrive/c/DOCUME~1/mkwapisz/LOCALS~1/Temp/ccuLeMEM.s 			page 31


 1349      6E7400
 1350              	.LASF8:
 1351 017f 63686563 		.ascii	"checkKey\000"
 1351      6B4B6579 
 1351      00
 1352              	.LASF28:
 1353 0188 6B657950 		.ascii	"keyProcPid\000"
 1353      726F6350 
 1353      696400
 1354              	.LASF3:
 1355 0193 7369676E 		.ascii	"signed char\000"
 1355      65642063 
 1355      68617200 
 1356              	.LASF5:
 1357 019f 74426F6F 		.ascii	"tBool\000"
 1357      6C00
 1358              	.LASF32:
 1359 01a5 63686563 		.ascii	"checkKey2\000"
 1359      6B4B6579 
 1359      3200
 1360              	.LASF11:
 1361 01af 73616D70 		.ascii	"sampleKey\000"
 1361      6C654B65 
 1361      7900
 1362              	.LASF19:
 1363 01b9 6B657952 		.ascii	"keyRightReleased\000"
 1363      69676874 
 1363      52656C65 
 1363      61736564 
 1363      00
 1364              		.ident	"GCC: (GNU) 4.1.1"
ARM GAS  /cygdrive/c/DOCUME~1/mkwapisz/LOCALS~1/Temp/ccuLeMEM.s 			page 32


DEFINED SYMBOLS
                            *ABS*:00000000 key.c
/cygdrive/c/DOCUME~1/mkwapisz/LOCALS~1/Temp/ccuLeMEM.s:1      .text:00000000 $t
/cygdrive/c/DOCUME~1/mkwapisz/LOCALS~1/Temp/ccuLeMEM.s:16     .text:00000000 getKeys
/cygdrive/c/DOCUME~1/mkwapisz/LOCALS~1/Temp/ccuLeMEM.s:84     .text:0000004c $d
/cygdrive/c/DOCUME~1/mkwapisz/LOCALS~1/Temp/ccuLeMEM.s:92     .text:00000050 checkKey
/cygdrive/c/DOCUME~1/mkwapisz/LOCALS~1/Temp/ccuLeMEM.s:89     .text:00000050 $t
/cygdrive/c/DOCUME~1/mkwapisz/LOCALS~1/Temp/ccuLeMEM.s:110    .text:0000005c $d
/cygdrive/c/DOCUME~1/mkwapisz/LOCALS~1/Temp/ccuLeMEM.s:491    .bss:00000000 activeKey
/cygdrive/c/DOCUME~1/mkwapisz/LOCALS~1/Temp/ccuLeMEM.s:118    .text:00000060 checkKey2
/cygdrive/c/DOCUME~1/mkwapisz/LOCALS~1/Temp/ccuLeMEM.s:115    .text:00000060 $t
/cygdrive/c/DOCUME~1/mkwapisz/LOCALS~1/Temp/ccuLeMEM.s:132    .text:00000068 $d
/cygdrive/c/DOCUME~1/mkwapisz/LOCALS~1/Temp/ccuLeMEM.s:493    .bss:00000001 activeKey2
/cygdrive/c/DOCUME~1/mkwapisz/LOCALS~1/Temp/ccuLeMEM.s:140    .text:0000006c sampleKey
/cygdrive/c/DOCUME~1/mkwapisz/LOCALS~1/Temp/ccuLeMEM.s:137    .text:0000006c $t
/cygdrive/c/DOCUME~1/mkwapisz/LOCALS~1/Temp/ccuLeMEM.s:395    .text:000001b0 $d
/cygdrive/c/DOCUME~1/mkwapisz/LOCALS~1/Temp/ccuLeMEM.s:488    .data:00000000 centerReleased
/cygdrive/c/DOCUME~1/mkwapisz/LOCALS~1/Temp/ccuLeMEM.s:513    .bss:00000002 centerKeyCnt
/cygdrive/c/DOCUME~1/mkwapisz/LOCALS~1/Temp/ccuLeMEM.s:498    .data:00000001 keyUpReleased
/cygdrive/c/DOCUME~1/mkwapisz/LOCALS~1/Temp/ccuLeMEM.s:515    .bss:00000003 upKeyCnt
/cygdrive/c/DOCUME~1/mkwapisz/LOCALS~1/Temp/ccuLeMEM.s:502    .data:00000002 keyDownReleased
/cygdrive/c/DOCUME~1/mkwapisz/LOCALS~1/Temp/ccuLeMEM.s:517    .bss:00000004 downKeyCnt
/cygdrive/c/DOCUME~1/mkwapisz/LOCALS~1/Temp/ccuLeMEM.s:506    .data:00000003 keyLeftReleased
/cygdrive/c/DOCUME~1/mkwapisz/LOCALS~1/Temp/ccuLeMEM.s:519    .bss:00000005 leftKeyCnt
/cygdrive/c/DOCUME~1/mkwapisz/LOCALS~1/Temp/ccuLeMEM.s:510    .data:00000004 keyRightReleased
/cygdrive/c/DOCUME~1/mkwapisz/LOCALS~1/Temp/ccuLeMEM.s:521    .bss:00000006 rightKeyCnt
/cygdrive/c/DOCUME~1/mkwapisz/LOCALS~1/Temp/ccuLeMEM.s:414    .text:000001e0 initKeyProc
/cygdrive/c/DOCUME~1/mkwapisz/LOCALS~1/Temp/ccuLeMEM.s:411    .text:000001e0 $t
/cygdrive/c/DOCUME~1/mkwapisz/LOCALS~1/Temp/ccuLeMEM.s:449    .text:00000214 $d
/cygdrive/c/DOCUME~1/mkwapisz/LOCALS~1/Temp/ccuLeMEM.s:525    .bss:00000133 keyProcPid
/cygdrive/c/DOCUME~1/mkwapisz/LOCALS~1/Temp/ccuLeMEM.s:458    .text:00000220 procKey
/cygdrive/c/DOCUME~1/mkwapisz/LOCALS~1/Temp/ccuLeMEM.s:523    .bss:00000007 keyProcStack
/cygdrive/c/DOCUME~1/mkwapisz/LOCALS~1/Temp/ccuLeMEM.s:455    .text:00000220 $t
/cygdrive/c/DOCUME~1/mkwapisz/LOCALS~1/Temp/ccuLeMEM.s:481    .text:00000238 $d
                             .bss:00000000 $d
/cygdrive/c/DOCUME~1/mkwapisz/LOCALS~1/Temp/ccuLeMEM.s:495    .bss:00000002 $d

UNDEFINED SYMBOLS
osCreateProcess
osStartProcess
osSleep
