ARM GAS  /cygdrive/c/DOCUME~1/mkwapisz/LOCALS~1/Temp/cc27jjn6.s 			page 1


   1              		.code	16
   2              		.file	"adc.c"
   3              		.section	.debug_abbrev,"",%progbits
   4              	.Ldebug_abbrev0:
   5              		.section	.debug_info,"",%progbits
   6              	.Ldebug_info0:
   7              		.section	.debug_line,"",%progbits
   8              	.Ldebug_line0:
   9 0000 84000000 		.text
   9      02004E00 
   9      00000201 
   9      FB0E0D00 
   9      01010101 
  10              	.Ltext0:
  11              		.align	2
  12              		.global	getAnalogueInput
  13              		.code 16
  14              		.thumb_func
  15              		.type	getAnalogueInput, %function
  16              	getAnalogueInput:
  17              	.LFB2:
  18              		.file 1 "adc/adc.c"
   1:adc/adc.c     **** /******************************************************************************
   2:adc/adc.c     ****  *
   3:adc/adc.c     ****  * Copyright:
   4:adc/adc.c     ****  *    (C) 2000 - 2005 Embedded Artists AB
   5:adc/adc.c     ****  *
   6:adc/adc.c     ****  * Description:
   7:adc/adc.c     ****  *    Christmas tree
   8:adc/adc.c     ****  *
   9:adc/adc.c     ****  *****************************************************************************/
  10:adc/adc.c     **** 
  11:adc/adc.c     **** #include "../pre_emptive_os/api/osapi.h"
  12:adc/adc.c     **** #include "../pre_emptive_os/api/general.h"
  13:adc/adc.c     **** #include <printf_P.h>
  14:adc/adc.c     **** #include <lpc2xxx.h>
  15:adc/adc.c     **** #include <config.h>
  16:adc/adc.c     **** #include "adc.h"
  17:adc/adc.c     **** 
  18:adc/adc.c     **** /******************************************************************************
  19:adc/adc.c     ****  * Defines and typedefs
  20:adc/adc.c     ****  *****************************************************************************/
  21:adc/adc.c     **** #define CRYSTAL_FREQUENCY FOSC
  22:adc/adc.c     **** #define PLL_FACTOR        PLL_MUL
  23:adc/adc.c     **** #define VPBDIV_FACTOR     PBSD
  24:adc/adc.c     **** 
  25:adc/adc.c     **** /*****************************************************************************
  26:adc/adc.c     ****  *
  27:adc/adc.c     ****  * Description:
  28:adc/adc.c     ****  *    Start a conversion of one selected analogue input and return
  29:adc/adc.c     ****  *    10-bit result.
  30:adc/adc.c     ****  *
  31:adc/adc.c     ****  * Params:
  32:adc/adc.c     ****  *    [in] channel - analogue input channel to convert.
  33:adc/adc.c     ****  *
  34:adc/adc.c     ****  * Return:
  35:adc/adc.c     ****  *    10-bit conversion result
ARM GAS  /cygdrive/c/DOCUME~1/mkwapisz/LOCALS~1/Temp/cc27jjn6.s 			page 2


  36:adc/adc.c     ****  *
  37:adc/adc.c     ****  ****************************************************************************/
  38:adc/adc.c     **** tU16 getAnalogueInput(tU8 channel) {
  19              		.loc 1 38 0
  20 0000 10B5     		push	{r4, lr}
  21              	.LCFI0:
  22              	.LVL0:
  39:adc/adc.c     **** //  volatile tU32 cpsrReg;
  40:adc/adc.c     **** 	tU16 returnResult;
  41:adc/adc.c     **** 
  42:adc/adc.c     **** 	//disable IRQ
  43:adc/adc.c     **** //  cpsrReg = disIrq();
  44:adc/adc.c     **** 
  45:adc/adc.c     **** //start conversion now (for selected channel)
  46:adc/adc.c     **** 	ADCR = (ADCR & 0xFFFFFF00) | (1 << channel) | (1 << 24);
  23              		.loc 1 46 0
  24 0002 0B4C     		ldr	r4, .L7
  25 0004 2268     		ldr	r2, [r4]
  26 0006 FF23     		mov	r3, #255
  27 0008 9A43     		bic	r2, r2, r3
  28              		.loc 1 38 0
  29 000a 0006     		lsl	r0, r0, #24
  30              	.LVL1:
  31              		.loc 1 46 0
  32 000c 8023     		mov	r3, #128
  33              		.loc 1 38 0
  34 000e 000E     		lsr	r0, r0, #24
  35              	.LVL2:
  36              		.loc 1 46 0
  37 0010 0121     		mov	r1, #1
  38 0012 5B04     		lsl	r3, r3, #17
  39 0014 8140     		lsl	r1, r1, r0
  40 0016 1A43     		orr	r2, r2, r3
  41 0018 1143     		orr	r1, r1, r2
  42 001a 2160     		str	r1, [r4]
  43              	.L2:
  47:adc/adc.c     **** 
  48:adc/adc.c     **** 	//wait til done
  49:adc/adc.c     **** 	while ((ADDR & 0x80000000) == 0)
  44              		.loc 1 49 0
  45 001c 0548     		ldr	r0, .L7+4
  46              	.LVL3:
  47 001e 0368     		ldr	r3, [r0]
  48 0020 002B     		cmp	r3, #0
  49 0022 FBDA     		bge	.L2
  50:adc/adc.c     **** 		;
  51:adc/adc.c     **** 
  52:adc/adc.c     **** 	//get result and adjust to 10-bit integer
  53:adc/adc.c     **** 	returnResult = (ADDR >> 6) & 0x3FF;
  50              		.loc 1 53 0
  51 0024 0068     		ldr	r0, [r0]
  52 0026 0004     		lsl	r0, r0, #16
  53 0028 800D     		lsr	r0, r0, #22
  54:adc/adc.c     **** 
  55:adc/adc.c     **** 	//enable IRQ
  56:adc/adc.c     **** //  restoreIrq(cpsrReg);
  57:adc/adc.c     **** 
ARM GAS  /cygdrive/c/DOCUME~1/mkwapisz/LOCALS~1/Temp/cc27jjn6.s 			page 3


  58:adc/adc.c     **** 	return returnResult;
  59:adc/adc.c     **** }
  54              		.loc 1 59 0
  55              		@ sp needed for prologue
  56 002a 10BC     		pop	{r4}
  57 002c 02BC     		pop	{r1}
  58 002e 0847     		bx	r1
  59              	.L8:
  60              		.align	2
  61              	.L7:
  62 0030 004003E0 		.word	-536657920
  63 0034 044003E0 		.word	-536657916
  64              	.LFE2:
  65              		.size	getAnalogueInput, .-getAnalogueInput
  66              		.align	2
  67              		.global	initAdc
  68              		.code 16
  69              		.thumb_func
  70              		.type	initAdc, %function
  71              	initAdc:
  72              	.LFB3:
  60:adc/adc.c     **** 
  61:adc/adc.c     **** /*****************************************************************************
  62:adc/adc.c     ****  *
  63:adc/adc.c     ****  * Description:
  64:adc/adc.c     ****  *
  65:adc/adc.c     ****  ****************************************************************************/
  66:adc/adc.c     **** void initAdc(void) {
  73              		.loc 1 66 0
  74 0038 00B5     		push	{lr}
  75              	.LCFI1:
  67:adc/adc.c     **** 	volatile tU32 integerResult;
  68:adc/adc.c     **** 
  69:adc/adc.c     **** 	//
  70:adc/adc.c     **** 	//Initialize ADC: AIN0 = P0.22
  71:adc/adc.c     **** 	//
  72:adc/adc.c     **** 	PINSEL1 &= ~0x00003000;
  76              		.loc 1 72 0
  77 003a 1949     		ldr	r1, .L11
  78 003c 194A     		ldr	r2, .L11+4
  79 003e 0B68     		ldr	r3, [r1]
  80 0040 1340     		and	r3, r3, r2
  81 0042 0B60     		str	r3, [r1]
  73:adc/adc.c     **** 	PINSEL1 |= 0x00003000;
  82              		.loc 1 73 0
  83 0044 C023     		mov	r3, #192
  84 0046 0A68     		ldr	r2, [r1]
  85 0048 9B01     		lsl	r3, r3, #6
  86 004a 1A43     		orr	r2, r2, r3
  87 004c 0A60     		str	r2, [r1]
  74:adc/adc.c     **** 
  75:adc/adc.c     **** 	//
  76:adc/adc.c     **** 	//Initialize ADC: AIN1 = P0.23
  77:adc/adc.c     **** 	//
  78:adc/adc.c     **** 	PINSEL1 &= ~0x0000C000;
  88              		.loc 1 78 0
  89 004e 164A     		ldr	r2, .L11+8
ARM GAS  /cygdrive/c/DOCUME~1/mkwapisz/LOCALS~1/Temp/cc27jjn6.s 			page 4


  90 0050 0B68     		ldr	r3, [r1]
  91 0052 1340     		and	r3, r3, r2
  92 0054 0B60     		str	r3, [r1]
  79:adc/adc.c     **** 	PINSEL1 |= 0x0000C000;
  93              		.loc 1 79 0
  94 0056 C023     		mov	r3, #192
  95 0058 0A68     		ldr	r2, [r1]
  96 005a 1B02     		lsl	r3, r3, #8
  97 005c 1A43     		orr	r2, r2, r3
  98 005e 0A60     		str	r2, [r1]
  80:adc/adc.c     **** 
  81:adc/adc.c     **** 	//
  82:adc/adc.c     **** 	//Initialize ADC: AIN2 = P0.24
  83:adc/adc.c     **** 	//
  84:adc/adc.c     **** 	PINSEL1 &= ~0x00030000;
  99              		.loc 1 84 0
 100 0060 124A     		ldr	r2, .L11+12
 101 0062 0B68     		ldr	r3, [r1]
 102 0064 1340     		and	r3, r3, r2
 103 0066 0B60     		str	r3, [r1]
  85:adc/adc.c     **** 	PINSEL1 |= 0x00030000;
 104              		.loc 1 85 0
 105 0068 C023     		mov	r3, #192
 106 006a 0A68     		ldr	r2, [r1]
 107 006c 9B02     		lsl	r3, r3, #10
 108 006e 1A43     		orr	r2, r2, r3
 109 0070 0A60     		str	r2, [r1]
  86:adc/adc.c     **** 
  87:adc/adc.c     **** 	//
  88:adc/adc.c     **** 	//Initialize ADC: AIN6 = P0.25
  89:adc/adc.c     **** 	//
  90:adc/adc.c     **** 	PINSEL1 &= ~0x000C0000;
 110              		.loc 1 90 0
 111 0072 0F4A     		ldr	r2, .L11+16
 112 0074 0B68     		ldr	r3, [r1]
 113 0076 1340     		and	r3, r3, r2
 114 0078 0B60     		str	r3, [r1]
  91:adc/adc.c     **** 	PINSEL1 |= 0x000C0000;
 115              		.loc 1 91 0
 116 007a C023     		mov	r3, #192
 117 007c 0A68     		ldr	r2, [r1]
 118 007e 1B03     		lsl	r3, r3, #12
 119 0080 1A43     		orr	r2, r2, r3
 120 0082 0A60     		str	r2, [r1]
  92:adc/adc.c     **** 
  93:adc/adc.c     **** 	//initialize ADC
  94:adc/adc.c     **** 	ADCR = (1 << 0) |  //SEL = 1, dummy channel #0
 121              		.loc 1 94 0
 122 0084 0B4B     		ldr	r3, .L11+20
 123 0086 0C4A     		ldr	r2, .L11+24
 124              		.loc 1 66 0
 125 0088 81B0     		sub	sp, sp, #4
 126              	.LCFI2:
 127              		.loc 1 94 0
 128 008a 1A60     		str	r2, [r3]
  95:adc/adc.c     **** 			((CRYSTAL_FREQUENCY * PLL_FACTOR / VPBDIV_FACTOR) / 4500000 - 1)
  96:adc/adc.c     **** 					<< 8 |  //set clock division factor, so ADC clock is 4.5MHz
ARM GAS  /cygdrive/c/DOCUME~1/mkwapisz/LOCALS~1/Temp/cc27jjn6.s 			page 5


  97:adc/adc.c     **** 			(0 << 16) |  //BURST = 0, conversions are SW controlled
  98:adc/adc.c     **** 			(0 << 17) |  //CLKS  = 0, 11 clocks = 10-bit result
  99:adc/adc.c     **** 			(1 << 21) |  //PDN   = 1, ADC is active
 100:adc/adc.c     **** 			(1 << 24) |  //START = 1, start a conversion now
 101:adc/adc.c     **** 			(0 << 27);					//EDGE  = 0, not relevant when start=1
 102:adc/adc.c     **** 
 103:adc/adc.c     **** 	//short delay and dummy read
 104:adc/adc.c     **** 	osSleep(1);
 129              		.loc 1 104 0
 130 008c 0120     		mov	r0, #1
 131 008e FFF7FEFF 		bl	osSleep
 105:adc/adc.c     **** 	integerResult = ADDR;
 132              		.loc 1 105 0
 133 0092 0A4B     		ldr	r3, .L11+28
 134 0094 1B68     		ldr	r3, [r3]
 135 0096 0093     		str	r3, [sp]
 136              	.LVL4:
 106:adc/adc.c     **** }
 137              		.loc 1 106 0
 138 0098 01B0     		add	sp, sp, #4
 139              		@ sp needed for prologue
 140 009a 01BC     		pop	{r0}
 141 009c 0047     		bx	r0
 142              	.L12:
 143 009e 0000     		.align	2
 144              	.L11:
 145 00a0 04C002E0 		.word	-536690684
 146 00a4 FFCFFFFF 		.word	-12289
 147 00a8 FF3FFFFF 		.word	-49153
 148 00ac FFFFFCFF 		.word	-196609
 149 00b0 FFFFF3FF 		.word	-786433
 150 00b4 004003E0 		.word	-536657920
 151 00b8 010C2001 		.word	18877441
 152 00bc 044003E0 		.word	-536657916
 153              	.LFE3:
 154              		.size	initAdc, .-initAdc
 155              		.section	.debug_frame,"",%progbits
 156              	.Lframe0:
 157 0000 0C000000 		.4byte	.LECIE0-.LSCIE0
 158              	.LSCIE0:
 159 0004 FFFFFFFF 		.4byte	0xffffffff
 160 0008 01       		.byte	0x1
 161 0009 00       		.ascii	"\000"
 162 000a 01       		.uleb128 0x1
 163 000b 7C       		.sleb128 -4
 164 000c 0E       		.byte	0xe
 165 000d 0C       		.byte	0xc
 166 000e 0D       		.uleb128 0xd
 167 000f 00       		.uleb128 0x0
 168              		.align	2
 169              	.LECIE0:
 170              	.LSFDE0:
 171 0010 14000000 		.4byte	.LEFDE0-.LASFDE0
 172              	.LASFDE0:
 173 0014 00000000 		.4byte	.Lframe0
 174 0018 00000000 		.4byte	.LFB2
 175 001c 38000000 		.4byte	.LFE2-.LFB2
ARM GAS  /cygdrive/c/DOCUME~1/mkwapisz/LOCALS~1/Temp/cc27jjn6.s 			page 6


 176 0020 42       		.byte	0x4
 177              		.4byte	.LCFI0-.LFB2
 178 0021 0E       		.byte	0xe
 179 0022 08       		.uleb128 0x8
 180 0023 84       		.byte	0x84
 181 0024 02       		.uleb128 0x2
 182 0025 8E       		.byte	0x8e
 183 0026 01       		.uleb128 0x1
 184 0027 00       		.align	2
 185              	.LEFDE0:
 186              	.LSFDE2:
 187 0028 18000000 		.4byte	.LEFDE2-.LASFDE2
 188              	.LASFDE2:
 189 002c 00000000 		.4byte	.Lframe0
 190 0030 38000000 		.4byte	.LFB3
 191 0034 88000000 		.4byte	.LFE3-.LFB3
 192 0038 42       		.byte	0x4
 193              		.4byte	.LCFI1-.LFB3
 194 0039 0E       		.byte	0xe
 195 003a 04       		.uleb128 0x4
 196 003b 8E       		.byte	0x8e
 197 003c 01       		.uleb128 0x1
 198 003d 02       		.byte	0x4
 199 003e 50       		.4byte	.LCFI2-.LCFI1
 200 003f 0E       		.byte	0xe
 201 0040 08       		.uleb128 0x8
 202 0041 000000   		.align	2
 203              	.LEFDE2:
 204              		.file 2 "adc/../pre_emptive_os/api/../api/general.h"
 205              		.text
 206              	.Letext0:
 207              		.section	.debug_loc,"",%progbits
 208              	.Ldebug_loc0:
 209              	.LLST0:
 210 0000 00000000 		.4byte	.LFB2-.Ltext0
 211 0004 02000000 		.4byte	.LCFI0-.Ltext0
 212 0008 0100     		.2byte	0x1
 213 000a 5D       		.byte	0x5d
 214 000b 02000000 		.4byte	.LCFI0-.Ltext0
 215 000f 38000000 		.4byte	.LFE2-.Ltext0
 216 0013 0200     		.2byte	0x2
 217 0015 7D       		.byte	0x7d
 218 0016 08       		.sleb128 8
 219 0017 00000000 		.4byte	0x0
 220 001b 00000000 		.4byte	0x0
 221              	.LLST1:
 222 001f 02000000 		.4byte	.LVL0-.Ltext0
 223 0023 0C000000 		.4byte	.LVL1-.Ltext0
 224 0027 0100     		.2byte	0x1
 225 0029 50       		.byte	0x50
 226 002a 10000000 		.4byte	.LVL2-.Ltext0
 227 002e 1E000000 		.4byte	.LVL3-.Ltext0
 228 0032 0100     		.2byte	0x1
 229 0034 50       		.byte	0x50
 230 0035 00000000 		.4byte	0x0
 231 0039 00000000 		.4byte	0x0
 232              	.LLST2:
ARM GAS  /cygdrive/c/DOCUME~1/mkwapisz/LOCALS~1/Temp/cc27jjn6.s 			page 7


 233 003d 38000000 		.4byte	.LFB3-.Ltext0
 234 0041 3A000000 		.4byte	.LCFI1-.Ltext0
 235 0045 0100     		.2byte	0x1
 236 0047 5D       		.byte	0x5d
 237 0048 3A000000 		.4byte	.LCFI1-.Ltext0
 238 004c 8A000000 		.4byte	.LCFI2-.Ltext0
 239 0050 0200     		.2byte	0x2
 240 0052 7D       		.byte	0x7d
 241 0053 04       		.sleb128 4
 242 0054 8A000000 		.4byte	.LCFI2-.Ltext0
 243 0058 C0000000 		.4byte	.LFE3-.Ltext0
 244 005c 0200     		.2byte	0x2
 245 005e 7D       		.byte	0x7d
 246 005f 08       		.sleb128 8
 247 0060 00000000 		.4byte	0x0
 248 0064 00000000 		.4byte	0x0
 249              		.section	.debug_info
 250 0000 D9000000 		.4byte	0xd9
 251 0004 0200     		.2byte	0x2
 252 0006 00000000 		.4byte	.Ldebug_abbrev0
 253 000a 04       		.byte	0x4
 254 000b 01       		.uleb128 0x1
 255 000c 00000000 		.4byte	.Ldebug_line0
 256 0010 C0000000 		.4byte	.Letext0
 257 0014 00000000 		.4byte	.Ltext0
 258 0018 93000000 		.4byte	.LASF12
 259 001c 01       		.byte	0x1
 260 001d 49000000 		.4byte	.LASF13
 261 0021 60000000 		.4byte	.LASF14
 262 0025 02       		.uleb128 0x2
 263 0026 74553800 		.ascii	"tU8\000"
 264 002a 02       		.byte	0x2
 265 002b 46       		.byte	0x46
 266 002c 30000000 		.4byte	0x30
 267 0030 03       		.uleb128 0x3
 268 0031 08000000 		.4byte	.LASF1
 269 0035 01       		.byte	0x1
 270 0036 08       		.byte	0x8
 271 0037 04       		.uleb128 0x4
 272 0038 9F000000 		.4byte	.LASF0
 273 003c 02       		.byte	0x2
 274 003d 47       		.byte	0x47
 275 003e 42000000 		.4byte	0x42
 276 0042 03       		.uleb128 0x3
 277 0043 36000000 		.4byte	.LASF2
 278 0047 02       		.byte	0x2
 279 0048 07       		.byte	0x7
 280 0049 04       		.uleb128 0x4
 281 004a A4000000 		.4byte	.LASF3
 282 004e 02       		.byte	0x2
 283 004f 48       		.byte	0x48
 284 0050 54000000 		.4byte	0x54
 285 0054 03       		.uleb128 0x3
 286 0055 86000000 		.4byte	.LASF4
 287 0059 04       		.byte	0x4
 288 005a 07       		.byte	0x7
 289 005b 03       		.uleb128 0x3
ARM GAS  /cygdrive/c/DOCUME~1/mkwapisz/LOCALS~1/Temp/cc27jjn6.s 			page 8


 290 005c B3000000 		.4byte	.LASF5
 291 0060 01       		.byte	0x1
 292 0061 06       		.byte	0x6
 293 0062 03       		.uleb128 0x3
 294 0063 A9000000 		.4byte	.LASF6
 295 0067 02       		.byte	0x2
 296 0068 05       		.byte	0x5
 297 0069 05       		.uleb128 0x5
 298 006a 696E7400 		.ascii	"int\000"
 299 006e 04       		.byte	0x4
 300 006f 05       		.byte	0x5
 301 0070 03       		.uleb128 0x3
 302 0071 24000000 		.4byte	.LASF7
 303 0075 04       		.byte	0x4
 304 0076 07       		.byte	0x7
 305 0077 06       		.uleb128 0x6
 306 0078 AF000000 		.4byte	0xaf
 307 007c 01       		.byte	0x1
 308 007d BF000000 		.4byte	.LASF8
 309 0081 01       		.byte	0x1
 310 0082 26       		.byte	0x26
 311 0083 01       		.byte	0x1
 312 0084 37000000 		.4byte	0x37
 313 0088 00000000 		.4byte	.LFB2
 314 008c 38000000 		.4byte	.LFE2
 315 0090 00000000 		.4byte	.LLST0
 316 0094 07       		.uleb128 0x7
 317 0095 00000000 		.4byte	.LASF15
 318 0099 01       		.byte	0x1
 319 009a 26       		.byte	0x26
 320 009b 25000000 		.4byte	0x25
 321 009f 1F000000 		.4byte	.LLST1
 322 00a3 08       		.uleb128 0x8
 323 00a4 53000000 		.4byte	.LASF10
 324 00a8 01       		.byte	0x1
 325 00a9 28       		.byte	0x28
 326 00aa 37000000 		.4byte	0x37
 327 00ae 00       		.byte	0x0
 328 00af 09       		.uleb128 0x9
 329 00b0 D7000000 		.4byte	0xd7
 330 00b4 01       		.byte	0x1
 331 00b5 7E000000 		.4byte	.LASF9
 332 00b9 01       		.byte	0x1
 333 00ba 42       		.byte	0x42
 334 00bb 01       		.byte	0x1
 335 00bc 38000000 		.4byte	.LFB3
 336 00c0 C0000000 		.4byte	.LFE3
 337 00c4 3D000000 		.4byte	.LLST2
 338 00c8 0A       		.uleb128 0xa
 339 00c9 16000000 		.4byte	.LASF11
 340 00cd 01       		.byte	0x1
 341 00ce 43       		.byte	0x43
 342 00cf D7000000 		.4byte	0xd7
 343 00d3 02       		.byte	0x2
 344 00d4 91       		.byte	0x91
 345 00d5 7C       		.sleb128 -4
 346 00d6 00       		.byte	0x0
ARM GAS  /cygdrive/c/DOCUME~1/mkwapisz/LOCALS~1/Temp/cc27jjn6.s 			page 9


 347 00d7 0B       		.uleb128 0xb
 348 00d8 49000000 		.4byte	0x49
 349 00dc 00       		.byte	0x0
 350              		.section	.debug_abbrev
 351 0000 01       		.uleb128 0x1
 352 0001 11       		.uleb128 0x11
 353 0002 01       		.byte	0x1
 354 0003 10       		.uleb128 0x10
 355 0004 06       		.uleb128 0x6
 356 0005 12       		.uleb128 0x12
 357 0006 01       		.uleb128 0x1
 358 0007 11       		.uleb128 0x11
 359 0008 01       		.uleb128 0x1
 360 0009 25       		.uleb128 0x25
 361 000a 0E       		.uleb128 0xe
 362 000b 13       		.uleb128 0x13
 363 000c 0B       		.uleb128 0xb
 364 000d 03       		.uleb128 0x3
 365 000e 0E       		.uleb128 0xe
 366 000f 1B       		.uleb128 0x1b
 367 0010 0E       		.uleb128 0xe
 368 0011 00       		.byte	0x0
 369 0012 00       		.byte	0x0
 370 0013 02       		.uleb128 0x2
 371 0014 16       		.uleb128 0x16
 372 0015 00       		.byte	0x0
 373 0016 03       		.uleb128 0x3
 374 0017 08       		.uleb128 0x8
 375 0018 3A       		.uleb128 0x3a
 376 0019 0B       		.uleb128 0xb
 377 001a 3B       		.uleb128 0x3b
 378 001b 0B       		.uleb128 0xb
 379 001c 49       		.uleb128 0x49
 380 001d 13       		.uleb128 0x13
 381 001e 00       		.byte	0x0
 382 001f 00       		.byte	0x0
 383 0020 03       		.uleb128 0x3
 384 0021 24       		.uleb128 0x24
 385 0022 00       		.byte	0x0
 386 0023 03       		.uleb128 0x3
 387 0024 0E       		.uleb128 0xe
 388 0025 0B       		.uleb128 0xb
 389 0026 0B       		.uleb128 0xb
 390 0027 3E       		.uleb128 0x3e
 391 0028 0B       		.uleb128 0xb
 392 0029 00       		.byte	0x0
 393 002a 00       		.byte	0x0
 394 002b 04       		.uleb128 0x4
 395 002c 16       		.uleb128 0x16
 396 002d 00       		.byte	0x0
 397 002e 03       		.uleb128 0x3
 398 002f 0E       		.uleb128 0xe
 399 0030 3A       		.uleb128 0x3a
 400 0031 0B       		.uleb128 0xb
 401 0032 3B       		.uleb128 0x3b
 402 0033 0B       		.uleb128 0xb
 403 0034 49       		.uleb128 0x49
ARM GAS  /cygdrive/c/DOCUME~1/mkwapisz/LOCALS~1/Temp/cc27jjn6.s 			page 10


 404 0035 13       		.uleb128 0x13
 405 0036 00       		.byte	0x0
 406 0037 00       		.byte	0x0
 407 0038 05       		.uleb128 0x5
 408 0039 24       		.uleb128 0x24
 409 003a 00       		.byte	0x0
 410 003b 03       		.uleb128 0x3
 411 003c 08       		.uleb128 0x8
 412 003d 0B       		.uleb128 0xb
 413 003e 0B       		.uleb128 0xb
 414 003f 3E       		.uleb128 0x3e
 415 0040 0B       		.uleb128 0xb
 416 0041 00       		.byte	0x0
 417 0042 00       		.byte	0x0
 418 0043 06       		.uleb128 0x6
 419 0044 2E       		.uleb128 0x2e
 420 0045 01       		.byte	0x1
 421 0046 01       		.uleb128 0x1
 422 0047 13       		.uleb128 0x13
 423 0048 3F       		.uleb128 0x3f
 424 0049 0C       		.uleb128 0xc
 425 004a 03       		.uleb128 0x3
 426 004b 0E       		.uleb128 0xe
 427 004c 3A       		.uleb128 0x3a
 428 004d 0B       		.uleb128 0xb
 429 004e 3B       		.uleb128 0x3b
 430 004f 0B       		.uleb128 0xb
 431 0050 27       		.uleb128 0x27
 432 0051 0C       		.uleb128 0xc
 433 0052 49       		.uleb128 0x49
 434 0053 13       		.uleb128 0x13
 435 0054 11       		.uleb128 0x11
 436 0055 01       		.uleb128 0x1
 437 0056 12       		.uleb128 0x12
 438 0057 01       		.uleb128 0x1
 439 0058 40       		.uleb128 0x40
 440 0059 06       		.uleb128 0x6
 441 005a 00       		.byte	0x0
 442 005b 00       		.byte	0x0
 443 005c 07       		.uleb128 0x7
 444 005d 05       		.uleb128 0x5
 445 005e 00       		.byte	0x0
 446 005f 03       		.uleb128 0x3
 447 0060 0E       		.uleb128 0xe
 448 0061 3A       		.uleb128 0x3a
 449 0062 0B       		.uleb128 0xb
 450 0063 3B       		.uleb128 0x3b
 451 0064 0B       		.uleb128 0xb
 452 0065 49       		.uleb128 0x49
 453 0066 13       		.uleb128 0x13
 454 0067 02       		.uleb128 0x2
 455 0068 06       		.uleb128 0x6
 456 0069 00       		.byte	0x0
 457 006a 00       		.byte	0x0
 458 006b 08       		.uleb128 0x8
 459 006c 34       		.uleb128 0x34
 460 006d 00       		.byte	0x0
ARM GAS  /cygdrive/c/DOCUME~1/mkwapisz/LOCALS~1/Temp/cc27jjn6.s 			page 11


 461 006e 03       		.uleb128 0x3
 462 006f 0E       		.uleb128 0xe
 463 0070 3A       		.uleb128 0x3a
 464 0071 0B       		.uleb128 0xb
 465 0072 3B       		.uleb128 0x3b
 466 0073 0B       		.uleb128 0xb
 467 0074 49       		.uleb128 0x49
 468 0075 13       		.uleb128 0x13
 469 0076 00       		.byte	0x0
 470 0077 00       		.byte	0x0
 471 0078 09       		.uleb128 0x9
 472 0079 2E       		.uleb128 0x2e
 473 007a 01       		.byte	0x1
 474 007b 01       		.uleb128 0x1
 475 007c 13       		.uleb128 0x13
 476 007d 3F       		.uleb128 0x3f
 477 007e 0C       		.uleb128 0xc
 478 007f 03       		.uleb128 0x3
 479 0080 0E       		.uleb128 0xe
 480 0081 3A       		.uleb128 0x3a
 481 0082 0B       		.uleb128 0xb
 482 0083 3B       		.uleb128 0x3b
 483 0084 0B       		.uleb128 0xb
 484 0085 27       		.uleb128 0x27
 485 0086 0C       		.uleb128 0xc
 486 0087 11       		.uleb128 0x11
 487 0088 01       		.uleb128 0x1
 488 0089 12       		.uleb128 0x12
 489 008a 01       		.uleb128 0x1
 490 008b 40       		.uleb128 0x40
 491 008c 06       		.uleb128 0x6
 492 008d 00       		.byte	0x0
 493 008e 00       		.byte	0x0
 494 008f 0A       		.uleb128 0xa
 495 0090 34       		.uleb128 0x34
 496 0091 00       		.byte	0x0
 497 0092 03       		.uleb128 0x3
 498 0093 0E       		.uleb128 0xe
 499 0094 3A       		.uleb128 0x3a
 500 0095 0B       		.uleb128 0xb
 501 0096 3B       		.uleb128 0x3b
 502 0097 0B       		.uleb128 0xb
 503 0098 49       		.uleb128 0x49
 504 0099 13       		.uleb128 0x13
 505 009a 02       		.uleb128 0x2
 506 009b 0A       		.uleb128 0xa
 507 009c 00       		.byte	0x0
 508 009d 00       		.byte	0x0
 509 009e 0B       		.uleb128 0xb
 510 009f 35       		.uleb128 0x35
 511 00a0 00       		.byte	0x0
 512 00a1 49       		.uleb128 0x49
 513 00a2 13       		.uleb128 0x13
 514 00a3 00       		.byte	0x0
 515 00a4 00       		.byte	0x0
 516 00a5 00       		.byte	0x0
 517              		.section	.debug_pubnames,"",%progbits
ARM GAS  /cygdrive/c/DOCUME~1/mkwapisz/LOCALS~1/Temp/cc27jjn6.s 			page 12


 518 0000 2F000000 		.4byte	0x2f
 519 0004 0200     		.2byte	0x2
 520 0006 00000000 		.4byte	.Ldebug_info0
 521 000a DD000000 		.4byte	0xdd
 522 000e 77000000 		.4byte	0x77
 523 0012 67657441 		.ascii	"getAnalogueInput\000"
 523      6E616C6F 
 523      67756549 
 523      6E707574 
 523      00
 524 0023 AF000000 		.4byte	0xaf
 525 0027 696E6974 		.ascii	"initAdc\000"
 525      41646300 
 526 002f 00000000 		.4byte	0x0
 527              		.section	.debug_aranges,"",%progbits
 528 0000 1C000000 		.4byte	0x1c
 529 0004 0200     		.2byte	0x2
 530 0006 00000000 		.4byte	.Ldebug_info0
 531 000a 04       		.byte	0x4
 532 000b 00       		.byte	0x0
 533 000c 0000     		.2byte	0x0
 534 000e 0000     		.2byte	0x0
 535 0010 00000000 		.4byte	.Ltext0
 536 0014 C0000000 		.4byte	.Letext0-.Ltext0
 537 0018 00000000 		.4byte	0x0
 538 001c 00000000 		.4byte	0x0
 539              		.section	.debug_str,"MS",%progbits,1
 540              	.LASF15:
 541 0000 6368616E 		.ascii	"channel\000"
 541      6E656C00 
 542              	.LASF1:
 543 0008 756E7369 		.ascii	"unsigned char\000"
 543      676E6564 
 543      20636861 
 543      7200
 544              	.LASF11:
 545 0016 696E7465 		.ascii	"integerResult\000"
 545      67657252 
 545      6573756C 
 545      7400
 546              	.LASF7:
 547 0024 6C6F6E67 		.ascii	"long unsigned int\000"
 547      20756E73 
 547      69676E65 
 547      6420696E 
 547      7400
 548              	.LASF2:
 549 0036 73686F72 		.ascii	"short unsigned int\000"
 549      7420756E 
 549      7369676E 
 549      65642069 
 549      6E7400
 550              	.LASF13:
 551 0049 6164632F 		.ascii	"adc/adc.c\000"
 551      6164632E 
 551      6300
 552              	.LASF10:
ARM GAS  /cygdrive/c/DOCUME~1/mkwapisz/LOCALS~1/Temp/cc27jjn6.s 			page 13


 553 0053 72657475 		.ascii	"returnResult\000"
 553      726E5265 
 553      73756C74 
 553      00
 554              	.LASF14:
 555 0060 2F637967 		.ascii	"/cygdrive/z/IntergatedSystems\000"
 555      64726976 
 555      652F7A2F 
 555      496E7465 
 555      72676174 
 556              	.LASF9:
 557 007e 696E6974 		.ascii	"initAdc\000"
 557      41646300 
 558              	.LASF4:
 559 0086 756E7369 		.ascii	"unsigned int\000"
 559      676E6564 
 559      20696E74 
 559      00
 560              	.LASF12:
 561 0093 474E5520 		.ascii	"GNU C 4.1.1\000"
 561      4320342E 
 561      312E3100 
 562              	.LASF0:
 563 009f 74553136 		.ascii	"tU16\000"
 563      00
 564              	.LASF3:
 565 00a4 74553332 		.ascii	"tU32\000"
 565      00
 566              	.LASF6:
 567 00a9 73686F72 		.ascii	"short int\000"
 567      7420696E 
 567      7400
 568              	.LASF5:
 569 00b3 7369676E 		.ascii	"signed char\000"
 569      65642063 
 569      68617200 
 570              	.LASF8:
 571 00bf 67657441 		.ascii	"getAnalogueInput\000"
 571      6E616C6F 
 571      67756549 
 571      6E707574 
 571      00
 572              		.ident	"GCC: (GNU) 4.1.1"
ARM GAS  /cygdrive/c/DOCUME~1/mkwapisz/LOCALS~1/Temp/cc27jjn6.s 			page 14


DEFINED SYMBOLS
                            *ABS*:00000000 adc.c
/cygdrive/c/DOCUME~1/mkwapisz/LOCALS~1/Temp/cc27jjn6.s:1      .text:00000000 $t
/cygdrive/c/DOCUME~1/mkwapisz/LOCALS~1/Temp/cc27jjn6.s:16     .text:00000000 getAnalogueInput
/cygdrive/c/DOCUME~1/mkwapisz/LOCALS~1/Temp/cc27jjn6.s:62     .text:00000030 $d
/cygdrive/c/DOCUME~1/mkwapisz/LOCALS~1/Temp/cc27jjn6.s:71     .text:00000038 initAdc
/cygdrive/c/DOCUME~1/mkwapisz/LOCALS~1/Temp/cc27jjn6.s:68     .text:00000038 $t
/cygdrive/c/DOCUME~1/mkwapisz/LOCALS~1/Temp/cc27jjn6.s:145    .text:000000a0 $d

UNDEFINED SYMBOLS
osSleep
