ARM GAS  /cygdrive/c/DOCUME~1/mkwapisz/LOCALS~1/Temp/ccIVkVvT.s 			page 1


   1              		.code	16
   2              		.file	"led_utils.c"
   3              		.section	.debug_abbrev,"",%progbits
   4              	.Ldebug_abbrev0:
   5              		.section	.debug_info,"",%progbits
   6              	.Ldebug_info0:
   7              		.section	.debug_line,"",%progbits
   8              	.Ldebug_line0:
   9 0000 87000000 		.text
   9      02004200 
   9      00000201 
   9      FB0E0D00 
   9      01010101 
  10              	.Ltext0:
  11              		.align	2
  12              		.global	determineLedDelay
  13              		.code 16
  14              		.thumb_func
  15              		.type	determineLedDelay, %function
  16              	determineLedDelay:
  17              	.LFB4:
  18              		.file 1 "led/led_utils.c"
   1:led/led_utils.c **** /*
   2:led/led_utils.c ****  * led_utils.c
   3:led/led_utils.c ****  *
   4:led/led_utils.c ****  *  Created on: 30-10-2013
   5:led/led_utils.c ****  *      Author: embedded
   6:led/led_utils.c ****  */
   7:led/led_utils.c **** #include "led_utils.h"
   8:led/led_utils.c **** 
   9:led/led_utils.c **** tU16 determineLedDelay() {
  19              		.loc 1 9 0
  20 0000 00B5     		push	{lr}
  21              	.LCFI0:
  10:led/led_utils.c **** 	tU8 pca9532Present = FALSE;
  11:led/led_utils.c **** 	tU16 led_delay = 0;
  12:led/led_utils.c **** 
  13:led/led_utils.c **** 	//check if connection with PCA9532
  14:led/led_utils.c **** 	pca9532Present = pca9532Init();
  22              		.loc 1 14 0
  23 0002 FFF7FEFF 		bl	pca9532Init
  15:led/led_utils.c **** 
  16:led/led_utils.c **** 	if (pca9532Present) {
  24              		.loc 1 16 0
  25 0006 0006     		lsl	r0, r0, #24
  26 0008 0028     		cmp	r0, #0
  27 000a 01D0     		beq	.L2
  28 000c 0A20     		mov	r0, #10
  29              	.LVL0:
  30 000e 00E0     		b	.L4
  31              	.LVL1:
  32              	.L2:
  33 0010 0020     		mov	r0, #0
  34              	.LVL2:
  35              	.L4:
  36              	.LVL3:
  17:led/led_utils.c **** 		led_delay = 10;
ARM GAS  /cygdrive/c/DOCUME~1/mkwapisz/LOCALS~1/Temp/ccIVkVvT.s 			page 2


  18:led/led_utils.c **** 	} else {
  19:led/led_utils.c **** 		led_delay = 0;
  20:led/led_utils.c **** 	}
  21:led/led_utils.c **** 	return led_delay;
  22:led/led_utils.c **** }
  37              		.loc 1 22 0
  38              		@ sp needed for prologue
  39 0012 02BC     		pop	{r1}
  40 0014 0847     		bx	r1
  41              	.LFE4:
  42              		.size	determineLedDelay, .-determineLedDelay
  43 0016 0000     		.align	2
  44              		.global	lightLedPatternOne
  45              		.code 16
  46              		.thumb_func
  47              		.type	lightLedPatternOne, %function
  48              	lightLedPatternOne:
  49              	.LFB5:
  23:led/led_utils.c **** tU16 lightLedPatternOne() {
  50              		.loc 1 23 0
  51 0018 10B5     		push	{r4, lr}
  52              	.LCFI1:
  24:led/led_utils.c **** 
  25:led/led_utils.c **** 	tU16 led_delay = determineLedDelay();
  53              		.loc 1 25 0
  54 001a FFF7FEFF 		bl	determineLedDelay
  26:led/led_utils.c **** 
  27:led/led_utils.c **** 	setPca9532Pin(0, 0);
  55              		.loc 1 27 0
  56 001e 0021     		mov	r1, #0
  57              		.loc 1 25 0
  58 0020 041C     		mov	r4, r0
  59              		.loc 1 27 0
  60 0022 0020     		mov	r0, #0
  61 0024 FFF7FEFF 		bl	setPca9532Pin
  28:led/led_utils.c **** 	setPca9532Pin(15, 0);
  62              		.loc 1 28 0
  63 0028 0021     		mov	r1, #0
  64 002a 0F20     		mov	r0, #15
  65 002c FFF7FEFF 		bl	setPca9532Pin
  29:led/led_utils.c **** 	osSleep(led_delay);
  66              		.loc 1 29 0
  67 0030 201C     		mov	r0, r4
  68 0032 FFF7FEFF 		bl	osSleep
  30:led/led_utils.c **** 	setPca9532Pin(1, 0);
  69              		.loc 1 30 0
  70 0036 0021     		mov	r1, #0
  71 0038 0120     		mov	r0, #1
  72 003a FFF7FEFF 		bl	setPca9532Pin
  31:led/led_utils.c **** 	setPca9532Pin(14, 0);
  73              		.loc 1 31 0
  74 003e 0021     		mov	r1, #0
  75 0040 0E20     		mov	r0, #14
  76 0042 FFF7FEFF 		bl	setPca9532Pin
  32:led/led_utils.c **** 	osSleep(led_delay);
  77              		.loc 1 32 0
  78 0046 201C     		mov	r0, r4
ARM GAS  /cygdrive/c/DOCUME~1/mkwapisz/LOCALS~1/Temp/ccIVkVvT.s 			page 3


  79 0048 FFF7FEFF 		bl	osSleep
  33:led/led_utils.c **** 	setPca9532Pin(2, 0);
  80              		.loc 1 33 0
  81 004c 0021     		mov	r1, #0
  82 004e 0220     		mov	r0, #2
  83 0050 FFF7FEFF 		bl	setPca9532Pin
  34:led/led_utils.c **** 	setPca9532Pin(13, 0);
  84              		.loc 1 34 0
  85 0054 0021     		mov	r1, #0
  86 0056 0D20     		mov	r0, #13
  87 0058 FFF7FEFF 		bl	setPca9532Pin
  35:led/led_utils.c **** 	osSleep(led_delay);
  88              		.loc 1 35 0
  89 005c 201C     		mov	r0, r4
  90 005e FFF7FEFF 		bl	osSleep
  36:led/led_utils.c **** 	setPca9532Pin(3, 0);
  91              		.loc 1 36 0
  92 0062 0021     		mov	r1, #0
  93 0064 0320     		mov	r0, #3
  94 0066 FFF7FEFF 		bl	setPca9532Pin
  37:led/led_utils.c **** 	setPca9532Pin(12, 0);
  95              		.loc 1 37 0
  96 006a 0021     		mov	r1, #0
  97 006c 0C20     		mov	r0, #12
  98 006e FFF7FEFF 		bl	setPca9532Pin
  38:led/led_utils.c **** 	osSleep(led_delay);
  99              		.loc 1 38 0
 100 0072 201C     		mov	r0, r4
 101 0074 FFF7FEFF 		bl	osSleep
  39:led/led_utils.c **** 	setPca9532Pin(4, 0);
 102              		.loc 1 39 0
 103 0078 0021     		mov	r1, #0
 104 007a 0420     		mov	r0, #4
 105 007c FFF7FEFF 		bl	setPca9532Pin
  40:led/led_utils.c **** 	setPca9532Pin(11, 0);
 106              		.loc 1 40 0
 107 0080 0021     		mov	r1, #0
 108 0082 0B20     		mov	r0, #11
 109 0084 FFF7FEFF 		bl	setPca9532Pin
  41:led/led_utils.c **** 	osSleep(led_delay);
 110              		.loc 1 41 0
 111 0088 201C     		mov	r0, r4
 112 008a FFF7FEFF 		bl	osSleep
  42:led/led_utils.c **** 	setPca9532Pin(5, 0);
 113              		.loc 1 42 0
 114 008e 0021     		mov	r1, #0
 115 0090 0520     		mov	r0, #5
 116 0092 FFF7FEFF 		bl	setPca9532Pin
  43:led/led_utils.c **** 	setPca9532Pin(10, 0);
 117              		.loc 1 43 0
 118 0096 0021     		mov	r1, #0
 119 0098 0A20     		mov	r0, #10
 120 009a FFF7FEFF 		bl	setPca9532Pin
  44:led/led_utils.c **** 	osSleep(led_delay);
 121              		.loc 1 44 0
 122 009e 201C     		mov	r0, r4
 123 00a0 FFF7FEFF 		bl	osSleep
ARM GAS  /cygdrive/c/DOCUME~1/mkwapisz/LOCALS~1/Temp/ccIVkVvT.s 			page 4


  45:led/led_utils.c **** 	setPca9532Pin(6, 0);
 124              		.loc 1 45 0
 125 00a4 0021     		mov	r1, #0
 126 00a6 0620     		mov	r0, #6
 127 00a8 FFF7FEFF 		bl	setPca9532Pin
  46:led/led_utils.c **** 	setPca9532Pin(9, 0);
 128              		.loc 1 46 0
 129 00ac 0021     		mov	r1, #0
 130 00ae 0920     		mov	r0, #9
 131 00b0 FFF7FEFF 		bl	setPca9532Pin
  47:led/led_utils.c **** 	osSleep(led_delay);
 132              		.loc 1 47 0
 133 00b4 201C     		mov	r0, r4
 134 00b6 FFF7FEFF 		bl	osSleep
  48:led/led_utils.c **** 	setPca9532Pin(7, 0);
 135              		.loc 1 48 0
 136 00ba 0021     		mov	r1, #0
 137 00bc 0720     		mov	r0, #7
 138 00be FFF7FEFF 		bl	setPca9532Pin
  49:led/led_utils.c **** 	setPca9532Pin(8, 0);
 139              		.loc 1 49 0
 140 00c2 0021     		mov	r1, #0
 141 00c4 0820     		mov	r0, #8
 142 00c6 FFF7FEFF 		bl	setPca9532Pin
  50:led/led_utils.c **** 	osSleep(led_delay);
 143              		.loc 1 50 0
 144 00ca 201C     		mov	r0, r4
 145 00cc FFF7FEFF 		bl	osSleep
  51:led/led_utils.c **** 	setPca9532Pin(0, 1);
 146              		.loc 1 51 0
 147 00d0 0121     		mov	r1, #1
 148 00d2 0020     		mov	r0, #0
 149 00d4 FFF7FEFF 		bl	setPca9532Pin
  52:led/led_utils.c **** 	setPca9532Pin(1, 1);
 150              		.loc 1 52 0
 151 00d8 0121     		mov	r1, #1
 152 00da 0120     		mov	r0, #1
 153 00dc FFF7FEFF 		bl	setPca9532Pin
  53:led/led_utils.c **** 	setPca9532Pin(2, 1);
 154              		.loc 1 53 0
 155 00e0 0121     		mov	r1, #1
 156 00e2 0220     		mov	r0, #2
 157 00e4 FFF7FEFF 		bl	setPca9532Pin
  54:led/led_utils.c **** 	setPca9532Pin(3, 1);
 158              		.loc 1 54 0
 159 00e8 0121     		mov	r1, #1
 160 00ea 0320     		mov	r0, #3
 161 00ec FFF7FEFF 		bl	setPca9532Pin
  55:led/led_utils.c **** 	setPca9532Pin(4, 1);
 162              		.loc 1 55 0
 163 00f0 0121     		mov	r1, #1
 164 00f2 0420     		mov	r0, #4
 165 00f4 FFF7FEFF 		bl	setPca9532Pin
  56:led/led_utils.c **** 	setPca9532Pin(5, 1);
 166              		.loc 1 56 0
 167 00f8 0121     		mov	r1, #1
 168 00fa 0520     		mov	r0, #5
ARM GAS  /cygdrive/c/DOCUME~1/mkwapisz/LOCALS~1/Temp/ccIVkVvT.s 			page 5


 169 00fc FFF7FEFF 		bl	setPca9532Pin
  57:led/led_utils.c **** 	setPca9532Pin(6, 1);
 170              		.loc 1 57 0
 171 0100 0121     		mov	r1, #1
 172 0102 0620     		mov	r0, #6
 173 0104 FFF7FEFF 		bl	setPca9532Pin
  58:led/led_utils.c **** 	setPca9532Pin(7, 1);
 174              		.loc 1 58 0
 175 0108 0121     		mov	r1, #1
 176 010a 0720     		mov	r0, #7
 177 010c FFF7FEFF 		bl	setPca9532Pin
  59:led/led_utils.c **** 	setPca9532Pin(8, 1);
 178              		.loc 1 59 0
 179 0110 0121     		mov	r1, #1
 180 0112 0820     		mov	r0, #8
 181 0114 FFF7FEFF 		bl	setPca9532Pin
  60:led/led_utils.c **** 	setPca9532Pin(9, 1);
 182              		.loc 1 60 0
 183 0118 0121     		mov	r1, #1
 184 011a 0920     		mov	r0, #9
 185 011c FFF7FEFF 		bl	setPca9532Pin
  61:led/led_utils.c **** 	setPca9532Pin(10, 1);
 186              		.loc 1 61 0
 187 0120 0121     		mov	r1, #1
 188 0122 0A20     		mov	r0, #10
 189 0124 FFF7FEFF 		bl	setPca9532Pin
  62:led/led_utils.c **** 	setPca9532Pin(11, 1);
 190              		.loc 1 62 0
 191 0128 0121     		mov	r1, #1
 192 012a 0B20     		mov	r0, #11
 193 012c FFF7FEFF 		bl	setPca9532Pin
  63:led/led_utils.c **** 	setPca9532Pin(12, 1);
 194              		.loc 1 63 0
 195 0130 0121     		mov	r1, #1
 196 0132 0C20     		mov	r0, #12
 197 0134 FFF7FEFF 		bl	setPca9532Pin
  64:led/led_utils.c **** 	setPca9532Pin(13, 1);
 198              		.loc 1 64 0
 199 0138 0121     		mov	r1, #1
 200 013a 0D20     		mov	r0, #13
 201 013c FFF7FEFF 		bl	setPca9532Pin
  65:led/led_utils.c **** 	setPca9532Pin(14, 1);
 202              		.loc 1 65 0
 203 0140 0121     		mov	r1, #1
 204 0142 0E20     		mov	r0, #14
 205 0144 FFF7FEFF 		bl	setPca9532Pin
  66:led/led_utils.c **** 	setPca9532Pin(15, 1);
 206              		.loc 1 66 0
 207 0148 0121     		mov	r1, #1
 208 014a 0F20     		mov	r0, #15
 209 014c FFF7FEFF 		bl	setPca9532Pin
  67:led/led_utils.c **** 	osSleep(2);
 210              		.loc 1 67 0
 211 0150 0220     		mov	r0, #2
 212 0152 FFF7FEFF 		bl	osSleep
  68:led/led_utils.c **** 
  69:led/led_utils.c **** 	return ~getPca9532Pin();
ARM GAS  /cygdrive/c/DOCUME~1/mkwapisz/LOCALS~1/Temp/ccIVkVvT.s 			page 6


 213              		.loc 1 69 0
 214 0156 FFF7FEFF 		bl	getPca9532Pin
 215 015a C043     		mvn	r0, r0
 216 015c 0004     		lsl	r0, r0, #16
 217 015e 000C     		lsr	r0, r0, #16
  70:led/led_utils.c **** }
 218              		.loc 1 70 0
 219              		@ sp needed for prologue
 220 0160 10BC     		pop	{r4}
 221 0162 02BC     		pop	{r1}
 222 0164 0847     		bx	r1
 223              	.LFE5:
 224              		.size	lightLedPatternOne, .-lightLedPatternOne
 225              		.section	.debug_frame,"",%progbits
 226              	.Lframe0:
 227 0000 0C000000 		.4byte	.LECIE0-.LSCIE0
 228              	.LSCIE0:
 229 0004 FFFFFFFF 		.4byte	0xffffffff
 230 0008 01       		.byte	0x1
 231 0009 00       		.ascii	"\000"
 232 000a 01       		.uleb128 0x1
 233 000b 7C       		.sleb128 -4
 234 000c 0E       		.byte	0xe
 235 000d 0C       		.byte	0xc
 236 000e 0D       		.uleb128 0xd
 237 000f 00       		.uleb128 0x0
 238              		.align	2
 239              	.LECIE0:
 240              	.LSFDE0:
 241 0010 14000000 		.4byte	.LEFDE0-.LASFDE0
 242              	.LASFDE0:
 243 0014 00000000 		.4byte	.Lframe0
 244 0018 00000000 		.4byte	.LFB4
 245 001c 16000000 		.4byte	.LFE4-.LFB4
 246 0020 42       		.byte	0x4
 247              		.4byte	.LCFI0-.LFB4
 248 0021 0E       		.byte	0xe
 249 0022 04       		.uleb128 0x4
 250 0023 8E       		.byte	0x8e
 251 0024 01       		.uleb128 0x1
 252 0025 000000   		.align	2
 253              	.LEFDE0:
 254              	.LSFDE2:
 255 0028 14000000 		.4byte	.LEFDE2-.LASFDE2
 256              	.LASFDE2:
 257 002c 00000000 		.4byte	.Lframe0
 258 0030 18000000 		.4byte	.LFB5
 259 0034 4E010000 		.4byte	.LFE5-.LFB5
 260 0038 42       		.byte	0x4
 261              		.4byte	.LCFI1-.LFB5
 262 0039 0E       		.byte	0xe
 263 003a 08       		.uleb128 0x8
 264 003b 84       		.byte	0x84
 265 003c 02       		.uleb128 0x2
 266 003d 8E       		.byte	0x8e
 267 003e 01       		.uleb128 0x1
 268 003f 00       		.align	2
ARM GAS  /cygdrive/c/DOCUME~1/mkwapisz/LOCALS~1/Temp/ccIVkVvT.s 			page 7


 269              	.LEFDE2:
 270              		.file 2 "led/../startup/general.h"
 271              		.text
 272              	.Letext0:
 273 0166 C046     		.section	.debug_loc,"",%progbits
 274              	.Ldebug_loc0:
 275              	.LLST0:
 276 0000 00000000 		.4byte	.LFB4-.Ltext0
 277 0004 02000000 		.4byte	.LCFI0-.Ltext0
 278 0008 0100     		.2byte	0x1
 279 000a 5D       		.byte	0x5d
 280 000b 02000000 		.4byte	.LCFI0-.Ltext0
 281 000f 16000000 		.4byte	.LFE4-.Ltext0
 282 0013 0200     		.2byte	0x2
 283 0015 7D       		.byte	0x7d
 284 0016 04       		.sleb128 4
 285 0017 00000000 		.4byte	0x0
 286 001b 00000000 		.4byte	0x0
 287              	.LLST1:
 288 001f 0E000000 		.4byte	.LVL0-.Ltext0
 289 0023 10000000 		.4byte	.LVL1-.Ltext0
 290 0027 0100     		.2byte	0x1
 291 0029 50       		.byte	0x50
 292 002a 12000000 		.4byte	.LVL2-.Ltext0
 293 002e 12000000 		.4byte	.LVL3-.Ltext0
 294 0032 0100     		.2byte	0x1
 295 0034 50       		.byte	0x50
 296 0035 00000000 		.4byte	0x0
 297 0039 00000000 		.4byte	0x0
 298              	.LLST2:
 299 003d 18000000 		.4byte	.LFB5-.Ltext0
 300 0041 1A000000 		.4byte	.LCFI1-.Ltext0
 301 0045 0100     		.2byte	0x1
 302 0047 5D       		.byte	0x5d
 303 0048 1A000000 		.4byte	.LCFI1-.Ltext0
 304 004c 66010000 		.4byte	.LFE5-.Ltext0
 305 0050 0200     		.2byte	0x2
 306 0052 7D       		.byte	0x7d
 307 0053 08       		.sleb128 8
 308 0054 00000000 		.4byte	0x0
 309 0058 00000000 		.4byte	0x0
 310              		.section	.debug_info
 311 0000 BD000000 		.4byte	0xbd
 312 0004 0200     		.2byte	0x2
 313 0006 00000000 		.4byte	.Ldebug_abbrev0
 314 000a 04       		.byte	0x4
 315 000b 01       		.uleb128 0x1
 316 000c 00000000 		.4byte	.Ldebug_line0
 317 0010 66010000 		.4byte	.Letext0
 318 0014 00000000 		.4byte	.Ltext0
 319 0018 98000000 		.4byte	.LASF8
 320 001c 01       		.byte	0x1
 321 001d 6B000000 		.4byte	.LASF9
 322 0021 2E000000 		.4byte	.LASF10
 323 0025 02       		.uleb128 0x2
 324 0026 74553800 		.ascii	"tU8\000"
 325 002a 02       		.byte	0x2
ARM GAS  /cygdrive/c/DOCUME~1/mkwapisz/LOCALS~1/Temp/ccIVkVvT.s 			page 8


 326 002b 46       		.byte	0x46
 327 002c 30000000 		.4byte	0x30
 328 0030 03       		.uleb128 0x3
 329 0031 A4000000 		.4byte	.LASF1
 330 0035 01       		.byte	0x1
 331 0036 08       		.byte	0x8
 332 0037 04       		.uleb128 0x4
 333 0038 BC000000 		.4byte	.LASF0
 334 003c 02       		.byte	0x2
 335 003d 47       		.byte	0x47
 336 003e 42000000 		.4byte	0x42
 337 0042 03       		.uleb128 0x3
 338 0043 58000000 		.4byte	.LASF2
 339 0047 02       		.byte	0x2
 340 0048 07       		.byte	0x7
 341 0049 03       		.uleb128 0x3
 342 004a 12000000 		.4byte	.LASF3
 343 004e 04       		.byte	0x4
 344 004f 07       		.byte	0x7
 345 0050 03       		.uleb128 0x3
 346 0051 4C000000 		.4byte	.LASF4
 347 0055 01       		.byte	0x1
 348 0056 06       		.byte	0x6
 349 0057 03       		.uleb128 0x3
 350 0058 7B000000 		.4byte	.LASF5
 351 005c 02       		.byte	0x2
 352 005d 05       		.byte	0x5
 353 005e 05       		.uleb128 0x5
 354 005f 696E7400 		.ascii	"int\000"
 355 0063 04       		.byte	0x4
 356 0064 05       		.byte	0x5
 357 0065 06       		.uleb128 0x6
 358 0066 9C000000 		.4byte	0x9c
 359 006a 01       		.byte	0x1
 360 006b 00000000 		.4byte	.LASF11
 361 006f 01       		.byte	0x1
 362 0070 09       		.byte	0x9
 363 0071 37000000 		.4byte	0x37
 364 0075 00000000 		.4byte	.LFB4
 365 0079 16000000 		.4byte	.LFE4
 366 007d 00000000 		.4byte	.LLST0
 367 0081 07       		.uleb128 0x7
 368 0082 1F000000 		.4byte	.LASF6
 369 0086 01       		.byte	0x1
 370 0087 0A       		.byte	0xa
 371 0088 25000000 		.4byte	0x25
 372 008c 08       		.uleb128 0x8
 373 008d B2000000 		.4byte	.LASF7
 374 0091 01       		.byte	0x1
 375 0092 0B       		.byte	0xb
 376 0093 37000000 		.4byte	0x37
 377 0097 1F000000 		.4byte	.LLST1
 378 009b 00       		.byte	0x0
 379 009c 09       		.uleb128 0x9
 380 009d 01       		.byte	0x1
 381 009e 85000000 		.4byte	.LASF12
 382 00a2 01       		.byte	0x1
ARM GAS  /cygdrive/c/DOCUME~1/mkwapisz/LOCALS~1/Temp/ccIVkVvT.s 			page 9


 383 00a3 17       		.byte	0x17
 384 00a4 37000000 		.4byte	0x37
 385 00a8 18000000 		.4byte	.LFB5
 386 00ac 66010000 		.4byte	.LFE5
 387 00b0 3D000000 		.4byte	.LLST2
 388 00b4 07       		.uleb128 0x7
 389 00b5 B2000000 		.4byte	.LASF7
 390 00b9 01       		.byte	0x1
 391 00ba 19       		.byte	0x19
 392 00bb 37000000 		.4byte	0x37
 393 00bf 00       		.byte	0x0
 394 00c0 00       		.byte	0x0
 395              		.section	.debug_abbrev
 396 0000 01       		.uleb128 0x1
 397 0001 11       		.uleb128 0x11
 398 0002 01       		.byte	0x1
 399 0003 10       		.uleb128 0x10
 400 0004 06       		.uleb128 0x6
 401 0005 12       		.uleb128 0x12
 402 0006 01       		.uleb128 0x1
 403 0007 11       		.uleb128 0x11
 404 0008 01       		.uleb128 0x1
 405 0009 25       		.uleb128 0x25
 406 000a 0E       		.uleb128 0xe
 407 000b 13       		.uleb128 0x13
 408 000c 0B       		.uleb128 0xb
 409 000d 03       		.uleb128 0x3
 410 000e 0E       		.uleb128 0xe
 411 000f 1B       		.uleb128 0x1b
 412 0010 0E       		.uleb128 0xe
 413 0011 00       		.byte	0x0
 414 0012 00       		.byte	0x0
 415 0013 02       		.uleb128 0x2
 416 0014 16       		.uleb128 0x16
 417 0015 00       		.byte	0x0
 418 0016 03       		.uleb128 0x3
 419 0017 08       		.uleb128 0x8
 420 0018 3A       		.uleb128 0x3a
 421 0019 0B       		.uleb128 0xb
 422 001a 3B       		.uleb128 0x3b
 423 001b 0B       		.uleb128 0xb
 424 001c 49       		.uleb128 0x49
 425 001d 13       		.uleb128 0x13
 426 001e 00       		.byte	0x0
 427 001f 00       		.byte	0x0
 428 0020 03       		.uleb128 0x3
 429 0021 24       		.uleb128 0x24
 430 0022 00       		.byte	0x0
 431 0023 03       		.uleb128 0x3
 432 0024 0E       		.uleb128 0xe
 433 0025 0B       		.uleb128 0xb
 434 0026 0B       		.uleb128 0xb
 435 0027 3E       		.uleb128 0x3e
 436 0028 0B       		.uleb128 0xb
 437 0029 00       		.byte	0x0
 438 002a 00       		.byte	0x0
 439 002b 04       		.uleb128 0x4
ARM GAS  /cygdrive/c/DOCUME~1/mkwapisz/LOCALS~1/Temp/ccIVkVvT.s 			page 10


 440 002c 16       		.uleb128 0x16
 441 002d 00       		.byte	0x0
 442 002e 03       		.uleb128 0x3
 443 002f 0E       		.uleb128 0xe
 444 0030 3A       		.uleb128 0x3a
 445 0031 0B       		.uleb128 0xb
 446 0032 3B       		.uleb128 0x3b
 447 0033 0B       		.uleb128 0xb
 448 0034 49       		.uleb128 0x49
 449 0035 13       		.uleb128 0x13
 450 0036 00       		.byte	0x0
 451 0037 00       		.byte	0x0
 452 0038 05       		.uleb128 0x5
 453 0039 24       		.uleb128 0x24
 454 003a 00       		.byte	0x0
 455 003b 03       		.uleb128 0x3
 456 003c 08       		.uleb128 0x8
 457 003d 0B       		.uleb128 0xb
 458 003e 0B       		.uleb128 0xb
 459 003f 3E       		.uleb128 0x3e
 460 0040 0B       		.uleb128 0xb
 461 0041 00       		.byte	0x0
 462 0042 00       		.byte	0x0
 463 0043 06       		.uleb128 0x6
 464 0044 2E       		.uleb128 0x2e
 465 0045 01       		.byte	0x1
 466 0046 01       		.uleb128 0x1
 467 0047 13       		.uleb128 0x13
 468 0048 3F       		.uleb128 0x3f
 469 0049 0C       		.uleb128 0xc
 470 004a 03       		.uleb128 0x3
 471 004b 0E       		.uleb128 0xe
 472 004c 3A       		.uleb128 0x3a
 473 004d 0B       		.uleb128 0xb
 474 004e 3B       		.uleb128 0x3b
 475 004f 0B       		.uleb128 0xb
 476 0050 49       		.uleb128 0x49
 477 0051 13       		.uleb128 0x13
 478 0052 11       		.uleb128 0x11
 479 0053 01       		.uleb128 0x1
 480 0054 12       		.uleb128 0x12
 481 0055 01       		.uleb128 0x1
 482 0056 40       		.uleb128 0x40
 483 0057 06       		.uleb128 0x6
 484 0058 00       		.byte	0x0
 485 0059 00       		.byte	0x0
 486 005a 07       		.uleb128 0x7
 487 005b 34       		.uleb128 0x34
 488 005c 00       		.byte	0x0
 489 005d 03       		.uleb128 0x3
 490 005e 0E       		.uleb128 0xe
 491 005f 3A       		.uleb128 0x3a
 492 0060 0B       		.uleb128 0xb
 493 0061 3B       		.uleb128 0x3b
 494 0062 0B       		.uleb128 0xb
 495 0063 49       		.uleb128 0x49
 496 0064 13       		.uleb128 0x13
ARM GAS  /cygdrive/c/DOCUME~1/mkwapisz/LOCALS~1/Temp/ccIVkVvT.s 			page 11


 497 0065 00       		.byte	0x0
 498 0066 00       		.byte	0x0
 499 0067 08       		.uleb128 0x8
 500 0068 34       		.uleb128 0x34
 501 0069 00       		.byte	0x0
 502 006a 03       		.uleb128 0x3
 503 006b 0E       		.uleb128 0xe
 504 006c 3A       		.uleb128 0x3a
 505 006d 0B       		.uleb128 0xb
 506 006e 3B       		.uleb128 0x3b
 507 006f 0B       		.uleb128 0xb
 508 0070 49       		.uleb128 0x49
 509 0071 13       		.uleb128 0x13
 510 0072 02       		.uleb128 0x2
 511 0073 06       		.uleb128 0x6
 512 0074 00       		.byte	0x0
 513 0075 00       		.byte	0x0
 514 0076 09       		.uleb128 0x9
 515 0077 2E       		.uleb128 0x2e
 516 0078 01       		.byte	0x1
 517 0079 3F       		.uleb128 0x3f
 518 007a 0C       		.uleb128 0xc
 519 007b 03       		.uleb128 0x3
 520 007c 0E       		.uleb128 0xe
 521 007d 3A       		.uleb128 0x3a
 522 007e 0B       		.uleb128 0xb
 523 007f 3B       		.uleb128 0x3b
 524 0080 0B       		.uleb128 0xb
 525 0081 49       		.uleb128 0x49
 526 0082 13       		.uleb128 0x13
 527 0083 11       		.uleb128 0x11
 528 0084 01       		.uleb128 0x1
 529 0085 12       		.uleb128 0x12
 530 0086 01       		.uleb128 0x1
 531 0087 40       		.uleb128 0x40
 532 0088 06       		.uleb128 0x6
 533 0089 00       		.byte	0x0
 534 008a 00       		.byte	0x0
 535 008b 00       		.byte	0x0
 536              		.section	.debug_pubnames,"",%progbits
 537 0000 3B000000 		.4byte	0x3b
 538 0004 0200     		.2byte	0x2
 539 0006 00000000 		.4byte	.Ldebug_info0
 540 000a C1000000 		.4byte	0xc1
 541 000e 65000000 		.4byte	0x65
 542 0012 64657465 		.ascii	"determineLedDelay\000"
 542      726D696E 
 542      654C6564 
 542      44656C61 
 542      7900
 543 0024 9C000000 		.4byte	0x9c
 544 0028 6C696768 		.ascii	"lightLedPatternOne\000"
 544      744C6564 
 544      50617474 
 544      65726E4F 
 544      6E6500
 545 003b 00000000 		.4byte	0x0
ARM GAS  /cygdrive/c/DOCUME~1/mkwapisz/LOCALS~1/Temp/ccIVkVvT.s 			page 12


 546              		.section	.debug_aranges,"",%progbits
 547 0000 1C000000 		.4byte	0x1c
 548 0004 0200     		.2byte	0x2
 549 0006 00000000 		.4byte	.Ldebug_info0
 550 000a 04       		.byte	0x4
 551 000b 00       		.byte	0x0
 552 000c 0000     		.2byte	0x0
 553 000e 0000     		.2byte	0x0
 554 0010 00000000 		.4byte	.Ltext0
 555 0014 66010000 		.4byte	.Letext0-.Ltext0
 556 0018 00000000 		.4byte	0x0
 557 001c 00000000 		.4byte	0x0
 558              		.section	.debug_str,"MS",%progbits,1
 559              	.LASF11:
 560 0000 64657465 		.ascii	"determineLedDelay\000"
 560      726D696E 
 560      654C6564 
 560      44656C61 
 560      7900
 561              	.LASF3:
 562 0012 756E7369 		.ascii	"unsigned int\000"
 562      676E6564 
 562      20696E74 
 562      00
 563              	.LASF6:
 564 001f 70636139 		.ascii	"pca9532Present\000"
 564      35333250 
 564      72657365 
 564      6E7400
 565              	.LASF10:
 566 002e 2F637967 		.ascii	"/cygdrive/z/IntergatedSystems\000"
 566      64726976 
 566      652F7A2F 
 566      496E7465 
 566      72676174 
 567              	.LASF4:
 568 004c 7369676E 		.ascii	"signed char\000"
 568      65642063 
 568      68617200 
 569              	.LASF2:
 570 0058 73686F72 		.ascii	"short unsigned int\000"
 570      7420756E 
 570      7369676E 
 570      65642069 
 570      6E7400
 571              	.LASF9:
 572 006b 6C65642F 		.ascii	"led/led_utils.c\000"
 572      6C65645F 
 572      7574696C 
 572      732E6300 
 573              	.LASF5:
 574 007b 73686F72 		.ascii	"short int\000"
 574      7420696E 
 574      7400
 575              	.LASF12:
 576 0085 6C696768 		.ascii	"lightLedPatternOne\000"
 576      744C6564 
ARM GAS  /cygdrive/c/DOCUME~1/mkwapisz/LOCALS~1/Temp/ccIVkVvT.s 			page 13


 576      50617474 
 576      65726E4F 
 576      6E6500
 577              	.LASF8:
 578 0098 474E5520 		.ascii	"GNU C 4.1.1\000"
 578      4320342E 
 578      312E3100 
 579              	.LASF1:
 580 00a4 756E7369 		.ascii	"unsigned char\000"
 580      676E6564 
 580      20636861 
 580      7200
 581              	.LASF7:
 582 00b2 6C65645F 		.ascii	"led_delay\000"
 582      64656C61 
 582      7900
 583              	.LASF0:
 584 00bc 74553136 		.ascii	"tU16\000"
 584      00
 585              		.ident	"GCC: (GNU) 4.1.1"
ARM GAS  /cygdrive/c/DOCUME~1/mkwapisz/LOCALS~1/Temp/ccIVkVvT.s 			page 14


DEFINED SYMBOLS
                            *ABS*:00000000 led_utils.c
/cygdrive/c/DOCUME~1/mkwapisz/LOCALS~1/Temp/ccIVkVvT.s:1      .text:00000000 $t
/cygdrive/c/DOCUME~1/mkwapisz/LOCALS~1/Temp/ccIVkVvT.s:16     .text:00000000 determineLedDelay
/cygdrive/c/DOCUME~1/mkwapisz/LOCALS~1/Temp/ccIVkVvT.s:48     .text:00000018 lightLedPatternOne

UNDEFINED SYMBOLS
pca9532Init
setPca9532Pin
osSleep
getPca9532Pin
