ARM GAS  /cygdrive/c/DOCUME~1/mkwapisz/LOCALS~1/Temp/ccIxHY5f.s 			page 1


   1              		.code	16
   2              		.file	"motor.c"
   3              		.section	.debug_abbrev,"",%progbits
   4              	.Ldebug_abbrev0:
   5              		.section	.debug_info,"",%progbits
   6              	.Ldebug_info0:
   7              		.section	.debug_line,"",%progbits
   8              	.Ldebug_line0:
   9 0000 8C000000 		.text
   9      02005F00 
   9      00000201 
   9      FB0E0D00 
   9      01010101 
  10              	.Ltext0:
  11              		.section	.rodata.str1.4,"aMS",%progbits,1
  12              		.align	2
  13              	.LC0:
  14 0000 4D6F746F 		.ascii	"Motor power\012\000"
  14      7220706F 
  14      7765720A 
  14      00
  15 000d 000000   		.text
  16              		.align	2
  17              		.global	procMotor
  18              		.code 16
  19              		.thumb_func
  20              		.type	procMotor, %function
  21              	procMotor:
  22              	.LFB2:
  23              		.file 1 "motor/motor.c"
   1:motor/motor.c **** /*
   2:motor/motor.c ****  * motor.c
   3:motor/motor.c ****  *
   4:motor/motor.c ****  *  Created on: 30-10-2013
   5:motor/motor.c ****  *      Author: embedded
   6:motor/motor.c ****  */
   7:motor/motor.c **** #include "../pre_emptive_os/api/osapi.h"
   8:motor/motor.c **** #include "../pre_emptive_os/api/general.h"
   9:motor/motor.c **** #include "../startup/printf_P.h"
  10:motor/motor.c **** #include "../startup/lpc2xxx.h"
  11:motor/motor.c **** #include "motor.h"
  12:motor/motor.c **** 
  13:motor/motor.c **** #define MOTORROC_STACK_SIZE 300
  14:motor/motor.c **** 
  15:motor/motor.c **** static tU8 motorProcStack[MOTORROC_STACK_SIZE];
  16:motor/motor.c **** static tU8 motorProcPid;
  17:motor/motor.c **** 
  18:motor/motor.c **** void procMotor(void) {
  24              		.loc 1 18 0
  25 0000 F0B5     		push	{r4, r5, r6, r7, lr}
  26              	.LCFI0:
  19:motor/motor.c **** 	printf("Motor power\n");
  27              		.loc 1 19 0
  28 0002 1448     		ldr	r0, .L7
  29 0004 FFF7FEFF 		bl	simplePrintf
  20:motor/motor.c **** 	static tU32 stepmotorSteps[4] = { 0x00201000, 0x00200000, 0x00000000,
  21:motor/motor.c **** 			0x00001000 }; //P0.21 and P0.12 are used to contol the stepper motor
ARM GAS  /cygdrive/c/DOCUME~1/mkwapisz/LOCALS~1/Temp/ccIxHY5f.s 			page 2


  22:motor/motor.c **** 	static tU8 stepmotorIndex = 0;
  23:motor/motor.c **** 	tU8 i;
  24:motor/motor.c **** 	unsigned long IODIR0TEMP=IODIR0;
  30              		.loc 1 24 0
  31 0008 134A     		ldr	r2, .L7+4
  25:motor/motor.c **** 	unsigned long IOCLR0TEMP=IOCLR0;
  32              		.loc 1 25 0
  33 000a 1448     		ldr	r0, .L7+8
  34              		.loc 1 24 0
  35 000c 1768     		ldr	r7, [r2]
  36              	.LVL0:
  26:motor/motor.c **** 	IODIR0 |= 0x00201000;
  37              		.loc 1 26 0
  38 000e 1449     		ldr	r1, .L7+12
  39              		.loc 1 25 0
  40 0010 0668     		ldr	r6, [r0]
  41              	.LVL1:
  42              		.loc 1 26 0
  43 0012 1368     		ldr	r3, [r2]
  44 0014 0B43     		orr	r3, r3, r1
  45 0016 1360     		str	r3, [r2]
  27:motor/motor.c **** 	IOCLR0 = stepmotorSteps[0];
  46              		.loc 1 27 0
  47 0018 0160     		str	r1, [r0]
  48 001a 0024     		mov	r4, #0
  49              	.LVL2:
  50              	.L2:
  28:motor/motor.c **** 
  29:motor/motor.c **** 	for (i = 0; i < 22; i++) {
  30:motor/motor.c **** 		//update to new step (forward)
  31:motor/motor.c **** 		stepmotorIndex = (stepmotorIndex + 1) & 0x03;
  51              		.loc 1 31 0
  52 001c 1149     		ldr	r1, .L7+16
  53 001e 0B78     		ldrb	r3, [r1]
  54 0020 0322     		mov	r2, #3
  55 0022 0133     		add	r3, r3, #1
  56 0024 1340     		and	r3, r3, r2
  32:motor/motor.c **** 
  33:motor/motor.c **** 		//output new step
  34:motor/motor.c **** 		IOCLR0 = stepmotorSteps[0];
  57              		.loc 1 34 0
  58 0026 0D4D     		ldr	r5, .L7+8
  59 0028 0D4A     		ldr	r2, .L7+12
  60              		.loc 1 31 0
  61 002a 0B70     		strb	r3, [r1]
  62              		.loc 1 34 0
  63 002c 2A60     		str	r2, [r5]
  35:motor/motor.c **** 		IOSET0 = stepmotorSteps[stepmotorIndex];
  64              		.loc 1 35 0
  65 002e 0E4A     		ldr	r2, .L7+20
  66 0030 9B00     		lsl	r3, r3, #2
  67 0032 9A58     		ldr	r2, [r3, r2]
  68 0034 0D4B     		ldr	r3, .L7+24
  36:motor/motor.c **** 		osSleep(5);
  69              		.loc 1 36 0
  70 0036 0520     		mov	r0, #5
  71              		.loc 1 35 0
ARM GAS  /cygdrive/c/DOCUME~1/mkwapisz/LOCALS~1/Temp/ccIxHY5f.s 			page 3


  72 0038 1A60     		str	r2, [r3]
  73              		.loc 1 36 0
  74 003a FFF7FEFF 		bl	osSleep
  75              		.loc 1 29 0
  76 003e 631C     		add	r3, r4, #1
  77 0040 1B06     		lsl	r3, r3, #24
  78 0042 1C0E     		lsr	r4, r3, #24
  79 0044 162C     		cmp	r4, #22
  80 0046 E9D1     		bne	.L2
  37:motor/motor.c **** 	}
  38:motor/motor.c **** 	IODIR0=IODIR0TEMP;
  81              		.loc 1 38 0
  82 0048 034B     		ldr	r3, .L7+4
  39:motor/motor.c **** 	IOCLR0=IOCLR0TEMP;
  40:motor/motor.c **** }
  83              		.loc 1 40 0
  84              		@ sp needed for prologue
  85              		.loc 1 38 0
  86 004a 1F60     		str	r7, [r3]
  87              		.loc 1 39 0
  88 004c 2E60     		str	r6, [r5]
  89              	.LVL3:
  90              	.LVL4:
  91              	.LVL5:
  92              		.loc 1 40 0
  93 004e F0BC     		pop	{r4, r5, r6, r7}
  94 0050 01BC     		pop	{r0}
  95 0052 0047     		bx	r0
  96              	.L8:
  97              		.align	2
  98              	.L7:
  99 0054 00000000 		.word	.LC0
 100 0058 088002E0 		.word	-536707064
 101 005c 0C8002E0 		.word	-536707060
 102 0060 00102000 		.word	2101248
 103 0064 00000000 		.word	stepmotorIndex.1406
 104 0068 00000000 		.word	stepmotorSteps.1405
 105 006c 048002E0 		.word	-536707068
 106              	.LFE2:
 107              		.size	procMotor, .-procMotor
 108              		.bss
 109              	stepmotorIndex.1406:
 110 0000 00       		.space	1
 111              		.section	.rodata
 112              		.align	2
 113              		.type	stepmotorSteps.1405, %object
 114              		.size	stepmotorSteps.1405, 16
 115              	stepmotorSteps.1405:
 116 0000 00102000 		.word	2101248
 117 0004 00002000 		.word	2097152
 118 0008 00000000 		.word	0
 119 000c 00100000 		.word	4096
 120              		.comm	spin,1,1
 121              		.section	.debug_frame,"",%progbits
 122              	.Lframe0:
 123 0000 0C000000 		.4byte	.LECIE0-.LSCIE0
 124              	.LSCIE0:
ARM GAS  /cygdrive/c/DOCUME~1/mkwapisz/LOCALS~1/Temp/ccIxHY5f.s 			page 4


 125 0004 FFFFFFFF 		.4byte	0xffffffff
 126 0008 01       		.byte	0x1
 127 0009 00       		.ascii	"\000"
 128 000a 01       		.uleb128 0x1
 129 000b 7C       		.sleb128 -4
 130 000c 0E       		.byte	0xe
 131 000d 0C       		.byte	0xc
 132 000e 0D       		.uleb128 0xd
 133 000f 00       		.uleb128 0x0
 134              		.align	2
 135              	.LECIE0:
 136              	.LSFDE0:
 137 0010 1C000000 		.4byte	.LEFDE0-.LASFDE0
 138              	.LASFDE0:
 139 0014 00000000 		.4byte	.Lframe0
 140 0018 00000000 		.4byte	.LFB2
 141 001c 70000000 		.4byte	.LFE2-.LFB2
 142 0020 42       		.byte	0x4
 143              		.4byte	.LCFI0-.LFB2
 144 0021 0E       		.byte	0xe
 145 0022 14       		.uleb128 0x14
 146 0023 84       		.byte	0x84
 147 0024 05       		.uleb128 0x5
 148 0025 85       		.byte	0x85
 149 0026 04       		.uleb128 0x4
 150 0027 86       		.byte	0x86
 151 0028 03       		.uleb128 0x3
 152 0029 87       		.byte	0x87
 153 002a 02       		.uleb128 0x2
 154 002b 8E       		.byte	0x8e
 155 002c 01       		.uleb128 0x1
 156 002d 000000   		.align	2
 157              	.LEFDE0:
 158              		.file 2 "motor/../pre_emptive_os/api/../api/general.h"
 159              		.file 3 "motor/motor.h"
 160              		.text
 161              	.Letext0:
 162              		.section	.debug_loc,"",%progbits
 163              	.Ldebug_loc0:
 164              	.LLST0:
 165 0000 00000000 		.4byte	.LFB2-.Ltext0
 166 0004 02000000 		.4byte	.LCFI0-.Ltext0
 167 0008 0100     		.2byte	0x1
 168 000a 5D       		.byte	0x5d
 169 000b 02000000 		.4byte	.LCFI0-.Ltext0
 170 000f 70000000 		.4byte	.LFE2-.Ltext0
 171 0013 0200     		.2byte	0x2
 172 0015 7D       		.byte	0x7d
 173 0016 14       		.sleb128 20
 174 0017 00000000 		.4byte	0x0
 175 001b 00000000 		.4byte	0x0
 176              	.LLST1:
 177 001f 1C000000 		.4byte	.LVL2-.Ltext0
 178 0023 4E000000 		.4byte	.LVL3-.Ltext0
 179 0027 0100     		.2byte	0x1
 180 0029 54       		.byte	0x54
 181 002a 00000000 		.4byte	0x0
ARM GAS  /cygdrive/c/DOCUME~1/mkwapisz/LOCALS~1/Temp/ccIxHY5f.s 			page 5


 182 002e 00000000 		.4byte	0x0
 183              	.LLST2:
 184 0032 0E000000 		.4byte	.LVL0-.Ltext0
 185 0036 4E000000 		.4byte	.LVL5-.Ltext0
 186 003a 0100     		.2byte	0x1
 187 003c 57       		.byte	0x57
 188 003d 00000000 		.4byte	0x0
 189 0041 00000000 		.4byte	0x0
 190              	.LLST3:
 191 0045 12000000 		.4byte	.LVL1-.Ltext0
 192 0049 4E000000 		.4byte	.LVL4-.Ltext0
 193 004d 0100     		.2byte	0x1
 194 004f 56       		.byte	0x56
 195 0050 00000000 		.4byte	0x0
 196 0054 00000000 		.4byte	0x0
 197              		.section	.debug_info
 198 0000 35010000 		.4byte	0x135
 199 0004 0200     		.2byte	0x2
 200 0006 00000000 		.4byte	.Ldebug_abbrev0
 201 000a 04       		.byte	0x4
 202 000b 01       		.uleb128 0x1
 203 000c 00000000 		.4byte	.Ldebug_line0
 204 0010 70000000 		.4byte	.Letext0
 205 0014 00000000 		.4byte	.Ltext0
 206 0018 A4000000 		.4byte	.LASF15
 207 001c 01       		.byte	0x1
 208 001d 2D000000 		.4byte	.LASF16
 209 0021 79000000 		.4byte	.LASF17
 210 0025 02       		.uleb128 0x2
 211 0026 74553800 		.ascii	"tU8\000"
 212 002a 02       		.byte	0x2
 213 002b 46       		.byte	0x46
 214 002c 30000000 		.4byte	0x30
 215 0030 03       		.uleb128 0x3
 216 0031 46000000 		.4byte	.LASF0
 217 0035 01       		.byte	0x1
 218 0036 08       		.byte	0x8
 219 0037 03       		.uleb128 0x3
 220 0038 66000000 		.4byte	.LASF1
 221 003c 02       		.byte	0x2
 222 003d 07       		.byte	0x7
 223 003e 04       		.uleb128 0x4
 224 003f BA000000 		.4byte	.LASF2
 225 0043 02       		.byte	0x2
 226 0044 48       		.byte	0x48
 227 0045 49000000 		.4byte	0x49
 228 0049 03       		.uleb128 0x3
 229 004a 97000000 		.4byte	.LASF3
 230 004e 04       		.byte	0x4
 231 004f 07       		.byte	0x7
 232 0050 03       		.uleb128 0x3
 233 0051 DB000000 		.4byte	.LASF4
 234 0055 01       		.byte	0x1
 235 0056 06       		.byte	0x6
 236 0057 03       		.uleb128 0x3
 237 0058 CC000000 		.4byte	.LASF5
 238 005c 02       		.byte	0x2
ARM GAS  /cygdrive/c/DOCUME~1/mkwapisz/LOCALS~1/Temp/ccIxHY5f.s 			page 6


 239 005d 05       		.byte	0x5
 240 005e 05       		.uleb128 0x5
 241 005f 696E7400 		.ascii	"int\000"
 242 0063 04       		.byte	0x4
 243 0064 05       		.byte	0x5
 244 0065 04       		.uleb128 0x4
 245 0066 E7000000 		.4byte	.LASF6
 246 006a 02       		.byte	0x2
 247 006b 4C       		.byte	0x4c
 248 006c 30000000 		.4byte	0x30
 249 0070 03       		.uleb128 0x3
 250 0071 54000000 		.4byte	.LASF7
 251 0075 04       		.byte	0x4
 252 0076 07       		.byte	0x7
 253 0077 06       		.uleb128 0x6
 254 0078 DE000000 		.4byte	0xde
 255 007c 01       		.byte	0x1
 256 007d B0000000 		.4byte	.LASF18
 257 0081 01       		.byte	0x1
 258 0082 12       		.byte	0x12
 259 0083 01       		.byte	0x1
 260 0084 00000000 		.4byte	.LFB2
 261 0088 70000000 		.4byte	.LFE2
 262 008c 00000000 		.4byte	.LLST0
 263 0090 07       		.uleb128 0x7
 264 0091 6900     		.ascii	"i\000"
 265 0093 01       		.byte	0x1
 266 0094 17       		.byte	0x17
 267 0095 25000000 		.4byte	0x25
 268 0099 1F000000 		.4byte	.LLST1
 269 009d 08       		.uleb128 0x8
 270 009e 3B000000 		.4byte	.LASF8
 271 00a2 01       		.byte	0x1
 272 00a3 18       		.byte	0x18
 273 00a4 DE000000 		.4byte	0xde
 274 00a8 32000000 		.4byte	.LLST2
 275 00ac 08       		.uleb128 0x8
 276 00ad ED000000 		.4byte	.LASF9
 277 00b1 01       		.byte	0x1
 278 00b2 19       		.byte	0x19
 279 00b3 DE000000 		.4byte	0xde
 280 00b7 45000000 		.4byte	.LLST3
 281 00bb 09       		.uleb128 0x9
 282 00bc 00000000 		.4byte	.LASF10
 283 00c0 01       		.byte	0x1
 284 00c1 16       		.byte	0x16
 285 00c2 25000000 		.4byte	0x25
 286 00c6 05       		.byte	0x5
 287 00c7 03       		.byte	0x3
 288 00c8 00000000 		.4byte	stepmotorIndex.1406
 289 00cc 09       		.uleb128 0x9
 290 00cd 1E000000 		.4byte	.LASF11
 291 00d1 01       		.byte	0x1
 292 00d2 14       		.byte	0x14
 293 00d3 F5000000 		.4byte	0xf5
 294 00d7 05       		.byte	0x5
 295 00d8 03       		.byte	0x3
ARM GAS  /cygdrive/c/DOCUME~1/mkwapisz/LOCALS~1/Temp/ccIxHY5f.s 			page 7


 296 00d9 00000000 		.4byte	stepmotorSteps.1405
 297 00dd 00       		.byte	0x0
 298 00de 03       		.uleb128 0x3
 299 00df 54000000 		.4byte	.LASF7
 300 00e3 04       		.byte	0x4
 301 00e4 07       		.byte	0x7
 302 00e5 0A       		.uleb128 0xa
 303 00e6 F5000000 		.4byte	0xf5
 304 00ea 3E000000 		.4byte	0x3e
 305 00ee 0B       		.uleb128 0xb
 306 00ef 70000000 		.4byte	0x70
 307 00f3 03       		.byte	0x3
 308 00f4 00       		.byte	0x0
 309 00f5 0C       		.uleb128 0xc
 310 00f6 E5000000 		.4byte	0xe5
 311 00fa 0A       		.uleb128 0xa
 312 00fb 0B010000 		.4byte	0x10b
 313 00ff 25000000 		.4byte	0x25
 314 0103 0D       		.uleb128 0xd
 315 0104 70000000 		.4byte	0x70
 316 0108 2B01     		.2byte	0x12b
 317 010a 00       		.byte	0x0
 318 010b 0E       		.uleb128 0xe
 319 010c 0F000000 		.4byte	.LASF12
 320 0110 01       		.byte	0x1
 321 0111 0F       		.byte	0xf
 322 0112 FA000000 		.4byte	0xfa
 323 0116 0E       		.uleb128 0xe
 324 0117 BF000000 		.4byte	.LASF13
 325 011b 01       		.byte	0x1
 326 011c 10       		.byte	0x10
 327 011d 25000000 		.4byte	0x25
 328 0121 0F       		.uleb128 0xf
 329 0122 D6000000 		.4byte	.LASF14
 330 0126 03       		.byte	0x3
 331 0127 0B       		.byte	0xb
 332 0128 33010000 		.4byte	0x133
 333 012c 01       		.byte	0x1
 334 012d 05       		.byte	0x5
 335 012e 03       		.byte	0x3
 336 012f 00000000 		.4byte	spin
 337 0133 10       		.uleb128 0x10
 338 0134 65000000 		.4byte	0x65
 339 0138 00       		.byte	0x0
 340              		.section	.debug_abbrev
 341 0000 01       		.uleb128 0x1
 342 0001 11       		.uleb128 0x11
 343 0002 01       		.byte	0x1
 344 0003 10       		.uleb128 0x10
 345 0004 06       		.uleb128 0x6
 346 0005 12       		.uleb128 0x12
 347 0006 01       		.uleb128 0x1
 348 0007 11       		.uleb128 0x11
 349 0008 01       		.uleb128 0x1
 350 0009 25       		.uleb128 0x25
 351 000a 0E       		.uleb128 0xe
 352 000b 13       		.uleb128 0x13
ARM GAS  /cygdrive/c/DOCUME~1/mkwapisz/LOCALS~1/Temp/ccIxHY5f.s 			page 8


 353 000c 0B       		.uleb128 0xb
 354 000d 03       		.uleb128 0x3
 355 000e 0E       		.uleb128 0xe
 356 000f 1B       		.uleb128 0x1b
 357 0010 0E       		.uleb128 0xe
 358 0011 00       		.byte	0x0
 359 0012 00       		.byte	0x0
 360 0013 02       		.uleb128 0x2
 361 0014 16       		.uleb128 0x16
 362 0015 00       		.byte	0x0
 363 0016 03       		.uleb128 0x3
 364 0017 08       		.uleb128 0x8
 365 0018 3A       		.uleb128 0x3a
 366 0019 0B       		.uleb128 0xb
 367 001a 3B       		.uleb128 0x3b
 368 001b 0B       		.uleb128 0xb
 369 001c 49       		.uleb128 0x49
 370 001d 13       		.uleb128 0x13
 371 001e 00       		.byte	0x0
 372 001f 00       		.byte	0x0
 373 0020 03       		.uleb128 0x3
 374 0021 24       		.uleb128 0x24
 375 0022 00       		.byte	0x0
 376 0023 03       		.uleb128 0x3
 377 0024 0E       		.uleb128 0xe
 378 0025 0B       		.uleb128 0xb
 379 0026 0B       		.uleb128 0xb
 380 0027 3E       		.uleb128 0x3e
 381 0028 0B       		.uleb128 0xb
 382 0029 00       		.byte	0x0
 383 002a 00       		.byte	0x0
 384 002b 04       		.uleb128 0x4
 385 002c 16       		.uleb128 0x16
 386 002d 00       		.byte	0x0
 387 002e 03       		.uleb128 0x3
 388 002f 0E       		.uleb128 0xe
 389 0030 3A       		.uleb128 0x3a
 390 0031 0B       		.uleb128 0xb
 391 0032 3B       		.uleb128 0x3b
 392 0033 0B       		.uleb128 0xb
 393 0034 49       		.uleb128 0x49
 394 0035 13       		.uleb128 0x13
 395 0036 00       		.byte	0x0
 396 0037 00       		.byte	0x0
 397 0038 05       		.uleb128 0x5
 398 0039 24       		.uleb128 0x24
 399 003a 00       		.byte	0x0
 400 003b 03       		.uleb128 0x3
 401 003c 08       		.uleb128 0x8
 402 003d 0B       		.uleb128 0xb
 403 003e 0B       		.uleb128 0xb
 404 003f 3E       		.uleb128 0x3e
 405 0040 0B       		.uleb128 0xb
 406 0041 00       		.byte	0x0
 407 0042 00       		.byte	0x0
 408 0043 06       		.uleb128 0x6
 409 0044 2E       		.uleb128 0x2e
ARM GAS  /cygdrive/c/DOCUME~1/mkwapisz/LOCALS~1/Temp/ccIxHY5f.s 			page 9


 410 0045 01       		.byte	0x1
 411 0046 01       		.uleb128 0x1
 412 0047 13       		.uleb128 0x13
 413 0048 3F       		.uleb128 0x3f
 414 0049 0C       		.uleb128 0xc
 415 004a 03       		.uleb128 0x3
 416 004b 0E       		.uleb128 0xe
 417 004c 3A       		.uleb128 0x3a
 418 004d 0B       		.uleb128 0xb
 419 004e 3B       		.uleb128 0x3b
 420 004f 0B       		.uleb128 0xb
 421 0050 27       		.uleb128 0x27
 422 0051 0C       		.uleb128 0xc
 423 0052 11       		.uleb128 0x11
 424 0053 01       		.uleb128 0x1
 425 0054 12       		.uleb128 0x12
 426 0055 01       		.uleb128 0x1
 427 0056 40       		.uleb128 0x40
 428 0057 06       		.uleb128 0x6
 429 0058 00       		.byte	0x0
 430 0059 00       		.byte	0x0
 431 005a 07       		.uleb128 0x7
 432 005b 34       		.uleb128 0x34
 433 005c 00       		.byte	0x0
 434 005d 03       		.uleb128 0x3
 435 005e 08       		.uleb128 0x8
 436 005f 3A       		.uleb128 0x3a
 437 0060 0B       		.uleb128 0xb
 438 0061 3B       		.uleb128 0x3b
 439 0062 0B       		.uleb128 0xb
 440 0063 49       		.uleb128 0x49
 441 0064 13       		.uleb128 0x13
 442 0065 02       		.uleb128 0x2
 443 0066 06       		.uleb128 0x6
 444 0067 00       		.byte	0x0
 445 0068 00       		.byte	0x0
 446 0069 08       		.uleb128 0x8
 447 006a 34       		.uleb128 0x34
 448 006b 00       		.byte	0x0
 449 006c 03       		.uleb128 0x3
 450 006d 0E       		.uleb128 0xe
 451 006e 3A       		.uleb128 0x3a
 452 006f 0B       		.uleb128 0xb
 453 0070 3B       		.uleb128 0x3b
 454 0071 0B       		.uleb128 0xb
 455 0072 49       		.uleb128 0x49
 456 0073 13       		.uleb128 0x13
 457 0074 02       		.uleb128 0x2
 458 0075 06       		.uleb128 0x6
 459 0076 00       		.byte	0x0
 460 0077 00       		.byte	0x0
 461 0078 09       		.uleb128 0x9
 462 0079 34       		.uleb128 0x34
 463 007a 00       		.byte	0x0
 464 007b 03       		.uleb128 0x3
 465 007c 0E       		.uleb128 0xe
 466 007d 3A       		.uleb128 0x3a
ARM GAS  /cygdrive/c/DOCUME~1/mkwapisz/LOCALS~1/Temp/ccIxHY5f.s 			page 10


 467 007e 0B       		.uleb128 0xb
 468 007f 3B       		.uleb128 0x3b
 469 0080 0B       		.uleb128 0xb
 470 0081 49       		.uleb128 0x49
 471 0082 13       		.uleb128 0x13
 472 0083 02       		.uleb128 0x2
 473 0084 0A       		.uleb128 0xa
 474 0085 00       		.byte	0x0
 475 0086 00       		.byte	0x0
 476 0087 0A       		.uleb128 0xa
 477 0088 01       		.uleb128 0x1
 478 0089 01       		.byte	0x1
 479 008a 01       		.uleb128 0x1
 480 008b 13       		.uleb128 0x13
 481 008c 49       		.uleb128 0x49
 482 008d 13       		.uleb128 0x13
 483 008e 00       		.byte	0x0
 484 008f 00       		.byte	0x0
 485 0090 0B       		.uleb128 0xb
 486 0091 21       		.uleb128 0x21
 487 0092 00       		.byte	0x0
 488 0093 49       		.uleb128 0x49
 489 0094 13       		.uleb128 0x13
 490 0095 2F       		.uleb128 0x2f
 491 0096 0B       		.uleb128 0xb
 492 0097 00       		.byte	0x0
 493 0098 00       		.byte	0x0
 494 0099 0C       		.uleb128 0xc
 495 009a 26       		.uleb128 0x26
 496 009b 00       		.byte	0x0
 497 009c 49       		.uleb128 0x49
 498 009d 13       		.uleb128 0x13
 499 009e 00       		.byte	0x0
 500 009f 00       		.byte	0x0
 501 00a0 0D       		.uleb128 0xd
 502 00a1 21       		.uleb128 0x21
 503 00a2 00       		.byte	0x0
 504 00a3 49       		.uleb128 0x49
 505 00a4 13       		.uleb128 0x13
 506 00a5 2F       		.uleb128 0x2f
 507 00a6 05       		.uleb128 0x5
 508 00a7 00       		.byte	0x0
 509 00a8 00       		.byte	0x0
 510 00a9 0E       		.uleb128 0xe
 511 00aa 34       		.uleb128 0x34
 512 00ab 00       		.byte	0x0
 513 00ac 03       		.uleb128 0x3
 514 00ad 0E       		.uleb128 0xe
 515 00ae 3A       		.uleb128 0x3a
 516 00af 0B       		.uleb128 0xb
 517 00b0 3B       		.uleb128 0x3b
 518 00b1 0B       		.uleb128 0xb
 519 00b2 49       		.uleb128 0x49
 520 00b3 13       		.uleb128 0x13
 521 00b4 00       		.byte	0x0
 522 00b5 00       		.byte	0x0
 523 00b6 0F       		.uleb128 0xf
ARM GAS  /cygdrive/c/DOCUME~1/mkwapisz/LOCALS~1/Temp/ccIxHY5f.s 			page 11


 524 00b7 34       		.uleb128 0x34
 525 00b8 00       		.byte	0x0
 526 00b9 03       		.uleb128 0x3
 527 00ba 0E       		.uleb128 0xe
 528 00bb 3A       		.uleb128 0x3a
 529 00bc 0B       		.uleb128 0xb
 530 00bd 3B       		.uleb128 0x3b
 531 00be 0B       		.uleb128 0xb
 532 00bf 49       		.uleb128 0x49
 533 00c0 13       		.uleb128 0x13
 534 00c1 3F       		.uleb128 0x3f
 535 00c2 0C       		.uleb128 0xc
 536 00c3 02       		.uleb128 0x2
 537 00c4 0A       		.uleb128 0xa
 538 00c5 00       		.byte	0x0
 539 00c6 00       		.byte	0x0
 540 00c7 10       		.uleb128 0x10
 541 00c8 35       		.uleb128 0x35
 542 00c9 00       		.byte	0x0
 543 00ca 49       		.uleb128 0x49
 544 00cb 13       		.uleb128 0x13
 545 00cc 00       		.byte	0x0
 546 00cd 00       		.byte	0x0
 547 00ce 00       		.byte	0x0
 548              		.section	.debug_pubnames,"",%progbits
 549 0000 25000000 		.4byte	0x25
 550 0004 0200     		.2byte	0x2
 551 0006 00000000 		.4byte	.Ldebug_info0
 552 000a 39010000 		.4byte	0x139
 553 000e 77000000 		.4byte	0x77
 554 0012 70726F63 		.ascii	"procMotor\000"
 554      4D6F746F 
 554      7200
 555 001c 21010000 		.4byte	0x121
 556 0020 7370696E 		.ascii	"spin\000"
 556      00
 557 0025 00000000 		.4byte	0x0
 558              		.section	.debug_aranges,"",%progbits
 559 0000 1C000000 		.4byte	0x1c
 560 0004 0200     		.2byte	0x2
 561 0006 00000000 		.4byte	.Ldebug_info0
 562 000a 04       		.byte	0x4
 563 000b 00       		.byte	0x0
 564 000c 0000     		.2byte	0x0
 565 000e 0000     		.2byte	0x0
 566 0010 00000000 		.4byte	.Ltext0
 567 0014 70000000 		.4byte	.Letext0-.Ltext0
 568 0018 00000000 		.4byte	0x0
 569 001c 00000000 		.4byte	0x0
 570              		.section	.debug_str,"MS",%progbits,1
 571              	.LASF10:
 572 0000 73746570 		.ascii	"stepmotorIndex\000"
 572      6D6F746F 
 572      72496E64 
 572      657800
 573              	.LASF12:
 574 000f 6D6F746F 		.ascii	"motorProcStack\000"
ARM GAS  /cygdrive/c/DOCUME~1/mkwapisz/LOCALS~1/Temp/ccIxHY5f.s 			page 12


 574      7250726F 
 574      63537461 
 574      636B00
 575              	.LASF11:
 576 001e 73746570 		.ascii	"stepmotorSteps\000"
 576      6D6F746F 
 576      72537465 
 576      707300
 577              	.LASF16:
 578 002d 6D6F746F 		.ascii	"motor/motor.c\000"
 578      722F6D6F 
 578      746F722E 
 578      6300
 579              	.LASF8:
 580 003b 494F4449 		.ascii	"IODIR0TEMP\000"
 580      52305445 
 580      4D5000
 581              	.LASF0:
 582 0046 756E7369 		.ascii	"unsigned char\000"
 582      676E6564 
 582      20636861 
 582      7200
 583              	.LASF7:
 584 0054 6C6F6E67 		.ascii	"long unsigned int\000"
 584      20756E73 
 584      69676E65 
 584      6420696E 
 584      7400
 585              	.LASF1:
 586 0066 73686F72 		.ascii	"short unsigned int\000"
 586      7420756E 
 586      7369676E 
 586      65642069 
 586      6E7400
 587              	.LASF17:
 588 0079 2F637967 		.ascii	"/cygdrive/z/IntergatedSystems\000"
 588      64726976 
 588      652F7A2F 
 588      496E7465 
 588      72676174 
 589              	.LASF3:
 590 0097 756E7369 		.ascii	"unsigned int\000"
 590      676E6564 
 590      20696E74 
 590      00
 591              	.LASF15:
 592 00a4 474E5520 		.ascii	"GNU C 4.1.1\000"
 592      4320342E 
 592      312E3100 
 593              	.LASF18:
 594 00b0 70726F63 		.ascii	"procMotor\000"
 594      4D6F746F 
 594      7200
 595              	.LASF2:
 596 00ba 74553332 		.ascii	"tU32\000"
 596      00
 597              	.LASF13:
ARM GAS  /cygdrive/c/DOCUME~1/mkwapisz/LOCALS~1/Temp/ccIxHY5f.s 			page 13


 598 00bf 6D6F746F 		.ascii	"motorProcPid\000"
 598      7250726F 
 598      63506964 
 598      00
 599              	.LASF5:
 600 00cc 73686F72 		.ascii	"short int\000"
 600      7420696E 
 600      7400
 601              	.LASF14:
 602 00d6 7370696E 		.ascii	"spin\000"
 602      00
 603              	.LASF4:
 604 00db 7369676E 		.ascii	"signed char\000"
 604      65642063 
 604      68617200 
 605              	.LASF6:
 606 00e7 74426F6F 		.ascii	"tBool\000"
 606      6C00
 607              	.LASF9:
 608 00ed 494F434C 		.ascii	"IOCLR0TEMP\000"
 608      52305445 
 608      4D5000
 609              		.ident	"GCC: (GNU) 4.1.1"
ARM GAS  /cygdrive/c/DOCUME~1/mkwapisz/LOCALS~1/Temp/ccIxHY5f.s 			page 14


DEFINED SYMBOLS
                            *ABS*:00000000 motor.c
/cygdrive/c/DOCUME~1/mkwapisz/LOCALS~1/Temp/ccIxHY5f.s:1      .text:00000000 $t
/cygdrive/c/DOCUME~1/mkwapisz/LOCALS~1/Temp/ccIxHY5f.s:21     .text:00000000 procMotor
/cygdrive/c/DOCUME~1/mkwapisz/LOCALS~1/Temp/ccIxHY5f.s:99     .text:00000054 $d
/cygdrive/c/DOCUME~1/mkwapisz/LOCALS~1/Temp/ccIxHY5f.s:109    .bss:00000000 stepmotorIndex.1406
/cygdrive/c/DOCUME~1/mkwapisz/LOCALS~1/Temp/ccIxHY5f.s:115    .rodata:00000000 stepmotorSteps.1405
/cygdrive/c/DOCUME~1/mkwapisz/LOCALS~1/Temp/ccIxHY5f.s:116    .rodata:00000000 $d
                            *COM*:00000001 spin

UNDEFINED SYMBOLS
simplePrintf
osSleep
