ARM GAS  /cygdrive/c/DOCUME~1/mkwapisz/LOCALS~1/Temp/cc8t7ksv.s 			page 1


   1              		.code	16
   2              		.file	"sd.c"
   3              		.section	.debug_abbrev,"",%progbits
   4              	.Ldebug_abbrev0:
   5              		.section	.debug_info,"",%progbits
   6              	.Ldebug_info0:
   7              		.section	.debug_line,"",%progbits
   8              	.Ldebug_line0:
   9 0000 96000000 		.text
   9      02002E00 
   9      00000201 
   9      FB0E0D00 
   9      01010101 
  10              	.Ltext0:
  11              		.align	2
  12              		.global	sdResp8bError
  13              		.code 16
  14              		.thumb_func
  15              		.type	sdResp8bError, %function
  16              	sdResp8bError:
  17              	.LFB6:
  18              		.file 1 "sd/sd.c"
   1:sd/sd.c       **** #include "sd.h"
   2:sd/sd.c       **** #include "spi.h"
   3:sd/sd.c       **** 
   4:sd/sd.c       **** #include "../startup/printf_P.h"
   5:sd/sd.c       **** 
   6:sd/sd.c       **** CHAR sdInit(void) {
   7:sd/sd.c       **** 
   8:sd/sd.c       **** 	SHORT i;
   9:sd/sd.c       **** 	BYTE resp;
  10:sd/sd.c       **** 
  11:sd/sd.c       **** 	/* Try to send reset command up to 100 times */
  12:sd/sd.c       **** 	i = 100;
  13:sd/sd.c       **** 	do {
  14:sd/sd.c       **** 		sdCommand(0, 0, 0);
  15:sd/sd.c       **** 		resp = sdResp8b();
  16:sd/sd.c       **** 	} while (resp != 1 && i--);
  17:sd/sd.c       **** 
  18:sd/sd.c       **** 	if (resp != 1) {
  19:sd/sd.c       **** 		if (resp == 0xff) {
  20:sd/sd.c       **** 			return (-1);
  21:sd/sd.c       **** 		} else {
  22:sd/sd.c       **** 			sdResp8bError(resp);
  23:sd/sd.c       **** 			return (-2);
  24:sd/sd.c       **** 		}
  25:sd/sd.c       **** 	}
  26:sd/sd.c       **** 
  27:sd/sd.c       **** 	/* Wait till card is ready initialising (returns 0 on CMD1) */
  28:sd/sd.c       **** 	/* Try up to 32000 times. */
  29:sd/sd.c       **** 	i = 32000;
  30:sd/sd.c       **** 	do {
  31:sd/sd.c       **** 		sdCommand(1, 0, 0);
  32:sd/sd.c       **** 
  33:sd/sd.c       **** 		resp = sdResp8b();
  34:sd/sd.c       **** 		if (resp != 0)
  35:sd/sd.c       **** 			sdResp8bError(resp);
ARM GAS  /cygdrive/c/DOCUME~1/mkwapisz/LOCALS~1/Temp/cc8t7ksv.s 			page 2


  36:sd/sd.c       **** 	} while (resp == 1 && i--);
  37:sd/sd.c       **** 
  38:sd/sd.c       **** 	if (resp != 0) {
  39:sd/sd.c       **** 		sdResp8bError(resp);
  40:sd/sd.c       **** 		return (-3);
  41:sd/sd.c       **** 	}
  42:sd/sd.c       **** 
  43:sd/sd.c       **** 	return (0);
  44:sd/sd.c       **** 
  45:sd/sd.c       **** }
  46:sd/sd.c       **** 
  47:sd/sd.c       **** void sdCommand(BYTE cmd, WORD paramx, WORD paramy) {
  48:sd/sd.c       **** 	SELECT_CARD();
  49:sd/sd.c       **** 
  50:sd/sd.c       **** 	spiSend(0xff);
  51:sd/sd.c       **** 
  52:sd/sd.c       **** 	spiSend(0x40 | cmd);
  53:sd/sd.c       **** 	spiSend((BYTE) (paramx >> 8)); /* MSB of parameter x */
  54:sd/sd.c       **** 	spiSend((BYTE) (paramx)); /* LSB of parameter x */
  55:sd/sd.c       **** 	spiSend((BYTE) (paramy >> 8)); /* MSB of parameter y */
  56:sd/sd.c       **** 	spiSend((BYTE) (paramy)); /* LSB of parameter y */
  57:sd/sd.c       **** 
  58:sd/sd.c       **** 	spiSend(0x95); /* Checksum (should be only valid for first command (0) */
  59:sd/sd.c       **** 
  60:sd/sd.c       **** 	spiSend(0xff); /* eat empty command - response */
  61:sd/sd.c       **** 
  62:sd/sd.c       **** 	UNSELECT_CARD();
  63:sd/sd.c       **** 
  64:sd/sd.c       **** }
  65:sd/sd.c       **** 
  66:sd/sd.c       **** BYTE i;
  67:sd/sd.c       **** BYTE resp8b;
  68:sd/sd.c       **** 
  69:sd/sd.c       **** BYTE sdResp8b(void) {
  70:sd/sd.c       **** 
  71:sd/sd.c       **** 	SELECT_CARD();
  72:sd/sd.c       **** 	/* Respone will come after 1 - 8 pings */
  73:sd/sd.c       **** 	for (i = 0; i < 8; i++) {
  74:sd/sd.c       **** 		resp8b = spiSend(0xff);
  75:sd/sd.c       **** 		if (resp8b != 0xff)
  76:sd/sd.c       **** 			return (resp8b);
  77:sd/sd.c       **** 	}
  78:sd/sd.c       **** 	UNSELECT_CARD();
  79:sd/sd.c       **** 	return (resp8b);
  80:sd/sd.c       **** }
  81:sd/sd.c       **** 
  82:sd/sd.c       **** WORD resp16;
  83:sd/sd.c       **** WORD sdResp16b(void) {
  84:sd/sd.c       **** 	SELECT_CARD();
  85:sd/sd.c       **** 	resp16 = (sdResp8b() << 8) & 0xff00;
  86:sd/sd.c       **** 	SELECT_CARD();
  87:sd/sd.c       **** 	resp16 |= spiSend(0xff);
  88:sd/sd.c       **** 	UNSELECT_CARD();
  89:sd/sd.c       **** 	return (resp16);
  90:sd/sd.c       **** }
  91:sd/sd.c       **** 
  92:sd/sd.c       **** void sdResp8bError(BYTE value) {
ARM GAS  /cygdrive/c/DOCUME~1/mkwapisz/LOCALS~1/Temp/cc8t7ksv.s 			page 3


  19              		.loc 1 92 0
  20              	.LVL0:
  21              		@ lr needed for prologue
  93:sd/sd.c       **** #ifdef DEBUG
  94:sd/sd.c       **** 	switch(value) {
  95:sd/sd.c       **** 		case 0x40:
  96:sd/sd.c       **** 		printf("Argument out of bounds.\n");
  97:sd/sd.c       **** 		break;
  98:sd/sd.c       **** 		case 0x20:
  99:sd/sd.c       **** 		printf("Address out of bounds.\n");
 100:sd/sd.c       **** 		break;
 101:sd/sd.c       **** 		case 0x10:
 102:sd/sd.c       **** 		printf("Error during erase sequence.\n");
 103:sd/sd.c       **** 		break;
 104:sd/sd.c       **** 		case 0x08:
 105:sd/sd.c       **** 		printf("CRC failed.\n");
 106:sd/sd.c       **** 		break;
 107:sd/sd.c       **** 		case 0x04:
 108:sd/sd.c       **** 		printf("Illegal command.\n");
 109:sd/sd.c       **** 		break;
 110:sd/sd.c       **** 		case 0x02:
 111:sd/sd.c       **** 		printf("Erase reset (see SanDisk docs p5-13).\n");
 112:sd/sd.c       **** 		break;
 113:sd/sd.c       **** 		case 0x01:
 114:sd/sd.c       **** 		printf("Card is initialising.\n");
 115:sd/sd.c       **** 		break;
 116:sd/sd.c       **** 		default:
 117:sd/sd.c       **** 		printf("Unknown error 0x%x (see SanDisk docs p5-13).\n",value);
 118:sd/sd.c       **** 		break;
 119:sd/sd.c       **** 	}
 120:sd/sd.c       **** #endif
 121:sd/sd.c       **** }
  22              		.loc 1 121 0
  23              		@ sp needed for prologue
  24 0000 7047     		bx	lr
  25              	.LFE6:
  26              		.size	sdResp8bError, .-sdResp8bError
  27 0002 0000     		.align	2
  28              		.global	sdResp8b
  29              		.code 16
  30              		.thumb_func
  31              		.type	sdResp8b, %function
  32              	sdResp8b:
  33              	.LFB4:
  34              		.loc 1 69 0
  35 0004 00B5     		push	{lr}
  36              	.LCFI0:
  37              		.loc 1 71 0
  38 0006 0E4A     		ldr	r2, .L12
  39 0008 8023     		mov	r3, #128
  40 000a 9B01     		lsl	r3, r3, #6
  41 000c 1360     		str	r3, [r2]
  42              		.loc 1 73 0
  43 000e 0D4A     		ldr	r2, .L12+4
  44 0010 0023     		mov	r3, #0
  45 0012 1370     		strb	r3, [r2]
  46              	.L4:
ARM GAS  /cygdrive/c/DOCUME~1/mkwapisz/LOCALS~1/Temp/cc8t7ksv.s 			page 4


  47              		.loc 1 74 0
  48 0014 FF20     		mov	r0, #255
  49 0016 FFF7FEFF 		bl	spiSend
  50 001a 0B4B     		ldr	r3, .L12+8
  51 001c 1870     		strb	r0, [r3]
  52              		.loc 1 75 0
  53 001e FF28     		cmp	r0, #255
  54 0020 0CD1     		bne	.L7
  55              		.loc 1 73 0
  56 0022 084A     		ldr	r2, .L12+4
  57 0024 1378     		ldrb	r3, [r2]
  58 0026 0133     		add	r3, r3, #1
  59 0028 1B06     		lsl	r3, r3, #24
  60 002a 1B0E     		lsr	r3, r3, #24
  61 002c 1370     		strb	r3, [r2]
  62 002e 072B     		cmp	r3, #7
  63 0030 F0D9     		bls	.L4
  64              		.loc 1 78 0
  65 0032 8023     		mov	r3, #128
  66 0034 054A     		ldr	r2, .L12+12
  67 0036 9B01     		lsl	r3, r3, #6
  68 0038 1360     		str	r3, [r2]
  69 003a FF20     		mov	r0, #255
  70              	.L7:
  71              		.loc 1 80 0
  72              		@ sp needed for prologue
  73 003c 02BC     		pop	{r1}
  74 003e 0847     		bx	r1
  75              	.L13:
  76              		.align	2
  77              	.L12:
  78 0040 0C8002E0 		.word	-536707060
  79 0044 00000000 		.word	i
  80 0048 00000000 		.word	resp8b
  81 004c 048002E0 		.word	-536707068
  82              	.LFE4:
  83              		.size	sdResp8b, .-sdResp8b
  84              		.align	2
  85              		.global	sdResp16b
  86              		.code 16
  87              		.thumb_func
  88              		.type	sdResp16b, %function
  89              	sdResp16b:
  90              	.LFB5:
  91              		.loc 1 83 0
  92 0050 F0B5     		push	{r4, r5, r6, r7, lr}
  93              	.LCFI1:
  94              		.loc 1 84 0
  95 0052 0C4F     		ldr	r7, .L16
  96 0054 8025     		mov	r5, #128
  97 0056 AD01     		lsl	r5, r5, #6
  98 0058 3D60     		str	r5, [r7]
  99              		.loc 1 85 0
 100 005a FFF7FEFF 		bl	sdResp8b
 101 005e 0A4E     		ldr	r6, .L16+4
 102 0060 0406     		lsl	r4, r0, #24
 103 0062 240C     		lsr	r4, r4, #16
ARM GAS  /cygdrive/c/DOCUME~1/mkwapisz/LOCALS~1/Temp/cc8t7ksv.s 			page 5


 104 0064 3480     		strh	r4, [r6]
 105              		.loc 1 86 0
 106 0066 3D60     		str	r5, [r7]
 107              		.loc 1 87 0
 108 0068 FF20     		mov	r0, #255
 109 006a FFF7FEFF 		bl	spiSend
 110 006e 0443     		orr	r4, r4, r0
 111 0070 2404     		lsl	r4, r4, #16
 112 0072 240C     		lsr	r4, r4, #16
 113              		.loc 1 88 0
 114 0074 054B     		ldr	r3, .L16+8
 115              		.loc 1 90 0
 116 0076 201C     		mov	r0, r4
 117              		.loc 1 87 0
 118 0078 3480     		strh	r4, [r6]
 119              		.loc 1 88 0
 120 007a 1D60     		str	r5, [r3]
 121              		.loc 1 90 0
 122              		@ sp needed for prologue
 123 007c F0BC     		pop	{r4, r5, r6, r7}
 124 007e 02BC     		pop	{r1}
 125 0080 0847     		bx	r1
 126              	.L17:
 127 0082 0000     		.align	2
 128              	.L16:
 129 0084 0C8002E0 		.word	-536707060
 130 0088 00000000 		.word	resp16
 131 008c 048002E0 		.word	-536707068
 132              	.LFE5:
 133              		.size	sdResp16b, .-sdResp16b
 134              		.align	2
 135              		.global	sdCommand
 136              		.code 16
 137              		.thumb_func
 138              		.type	sdCommand, %function
 139              	sdCommand:
 140              	.LFB3:
 141              		.loc 1 47 0
 142 0090 F0B5     		push	{r4, r5, r6, r7, lr}
 143              	.LCFI2:
 144              	.LVL1:
 145 0092 1204     		lsl	r2, r2, #16
 146              	.LVL2:
 147 0094 82B0     		sub	sp, sp, #8
 148              	.LCFI3:
 149              		.loc 1 47 0
 150 0096 130C     		lsr	r3, r2, #16
 151 0098 0193     		str	r3, [sp, #4]
 152              	.LVL3:
 153              		.loc 1 48 0
 154 009a 8027     		mov	r7, #128
 155 009c 174B     		ldr	r3, .L20
 156 009e BF01     		lsl	r7, r7, #6
 157 00a0 1F60     		str	r7, [r3]
 158              		.loc 1 47 0
 159 00a2 0406     		lsl	r4, r0, #24
 160              		.loc 1 50 0
ARM GAS  /cygdrive/c/DOCUME~1/mkwapisz/LOCALS~1/Temp/cc8t7ksv.s 			page 6


 161 00a4 FF20     		mov	r0, #255
 162              	.LVL4:
 163              		.loc 1 47 0
 164 00a6 0D04     		lsl	r5, r1, #16
 165 00a8 0092     		str	r2, [sp]
 166 00aa 240E     		lsr	r4, r4, #24
 167              	.LVL5:
 168              		.loc 1 50 0
 169 00ac FFF7FEFF 		bl	spiSend
 170              	.LVL6:
 171              		.loc 1 52 0
 172 00b0 4023     		mov	r3, #64
 173 00b2 1C43     		orr	r4, r4, r3
 174              	.LVL7:
 175 00b4 2406     		lsl	r4, r4, #24
 176              		.loc 1 47 0
 177 00b6 2E0C     		lsr	r6, r5, #16
 178              	.LVL8:
 179              		.loc 1 52 0
 180 00b8 240E     		lsr	r4, r4, #24
 181              		.loc 1 53 0
 182 00ba 2D0E     		lsr	r5, r5, #24
 183              		.loc 1 52 0
 184 00bc 201C     		mov	r0, r4
 185              		.loc 1 54 0
 186 00be 3606     		lsl	r6, r6, #24
 187              	.LVL9:
 188              		.loc 1 52 0
 189 00c0 FFF7FEFF 		bl	spiSend
 190              		.loc 1 54 0
 191 00c4 360E     		lsr	r6, r6, #24
 192              		.loc 1 53 0
 193 00c6 281C     		mov	r0, r5
 194 00c8 FFF7FEFF 		bl	spiSend
 195              		.loc 1 54 0
 196 00cc 301C     		mov	r0, r6
 197 00ce FFF7FEFF 		bl	spiSend
 198              		.loc 1 55 0
 199 00d2 009B     		ldr	r3, [sp]
 200 00d4 180E     		lsr	r0, r3, #24
 201 00d6 FFF7FEFF 		bl	spiSend
 202              		.loc 1 56 0
 203 00da 019B     		ldr	r3, [sp, #4]
 204 00dc 1806     		lsl	r0, r3, #24
 205 00de 000E     		lsr	r0, r0, #24
 206 00e0 FFF7FEFF 		bl	spiSend
 207              		.loc 1 58 0
 208 00e4 9520     		mov	r0, #149
 209 00e6 FFF7FEFF 		bl	spiSend
 210              		.loc 1 60 0
 211 00ea FF20     		mov	r0, #255
 212 00ec FFF7FEFF 		bl	spiSend
 213              		.loc 1 62 0
 214 00f0 034B     		ldr	r3, .L20+4
 215              		.loc 1 64 0
 216 00f2 02B0     		add	sp, sp, #8
 217              		.loc 1 62 0
ARM GAS  /cygdrive/c/DOCUME~1/mkwapisz/LOCALS~1/Temp/cc8t7ksv.s 			page 7


 218 00f4 1F60     		str	r7, [r3]
 219              		.loc 1 64 0
 220              		@ sp needed for prologue
 221 00f6 F0BC     		pop	{r4, r5, r6, r7}
 222 00f8 01BC     		pop	{r0}
 223 00fa 0047     		bx	r0
 224              	.L21:
 225              		.align	2
 226              	.L20:
 227 00fc 0C8002E0 		.word	-536707060
 228 0100 048002E0 		.word	-536707068
 229              	.LFE3:
 230              		.size	sdCommand, .-sdCommand
 231              		.section	.rodata.str1.4,"aMS",%progbits,1
 232              		.align	2
 233              	.LC3:
 234 0000 43617264 		.ascii	"Card is Locked.\012\000"
 234      20697320 
 234      4C6F636B 
 234      65642E0A 
 234      00
 235 0011 000000   		.align	2
 236              	.LC5:
 237 0014 57502045 		.ascii	"WP Erase Skip, Lock/Unlock Cmd Failed.\012\000"
 237      72617365 
 237      20536B69 
 237      702C204C 
 237      6F636B2F 
 238              		.align	2
 239              	.LC7:
 240 003c 47656E65 		.ascii	"General / Unknown error -- card broken?.\012\000"
 240      72616C20 
 240      2F20556E 
 240      6B6E6F77 
 240      6E206572 
 241 0066 0000     		.align	2
 242              	.LC9:
 243 0068 496E7465 		.ascii	"Internal card controller error.\012\000"
 243      726E616C 
 243      20636172 
 243      6420636F 
 243      6E74726F 
 244 0089 000000   		.align	2
 245              	.LC11:
 246 008c 43617264 		.ascii	"Card internal ECC was applied, but failed to correc"
 246      20696E74 
 246      65726E61 
 246      6C204543 
 246      43207761 
 247 00bf 74207468 		.ascii	"t the data.\012\000"
 247      65206461 
 247      74612E0A 
 247      00
 248              		.align	2
 249              	.LC13:
 250 00cc 57726974 		.ascii	"Write protect violation.\012\000"
 250      65207072 
ARM GAS  /cygdrive/c/DOCUME~1/mkwapisz/LOCALS~1/Temp/cc8t7ksv.s 			page 8


 250      6F746563 
 250      74207669 
 250      6F6C6174 
 251 00e6 0000     		.align	2
 252              	.LC15:
 253 00e8 416E2069 		.ascii	"An invalid selection, sectors for erase.\012\000"
 253      6E76616C 
 253      69642073 
 253      656C6563 
 253      74696F6E 
 254 0112 0000     		.align	2
 255              	.LC17:
 256 0114 4F757420 		.ascii	"Out of Range, CSD_Overwrite.\012\000"
 256      6F662052 
 256      616E6765 
 256      2C204353 
 256      445F4F76 
 257 0132 0000     		.align	2
 258              	.LC19:
 259 0134 556E6B6E 		.ascii	"Unknown error: 0x%x (see SanDisk docs).\012\000"
 259      6F776E20 
 259      6572726F 
 259      723A2030 
 259      78257820 
 260 015d 000000   		.text
 261              		.align	2
 262              		.global	sdState
 263              		.code 16
 264              		.thumb_func
 265              		.type	sdState, %function
 266              	sdState:
 267              	.LFB7:
 122:sd/sd.c       **** 
 123:sd/sd.c       **** CHAR sdState(void) {
 268              		.loc 1 123 0
 269 0104 00B5     		push	{lr}
 270              	.LCFI4:
 124:sd/sd.c       **** 	WORD value;
 125:sd/sd.c       **** 
 126:sd/sd.c       **** 	sdCommand(13, 0, 0);
 271              		.loc 1 126 0
 272 0106 0021     		mov	r1, #0
 273 0108 0D20     		mov	r0, #13
 274 010a 0022     		mov	r2, #0
 275 010c FFF7FEFF 		bl	sdCommand
 127:sd/sd.c       **** 	value = sdResp16b();
 276              		.loc 1 127 0
 277 0110 FFF7FEFF 		bl	sdResp16b
 278 0114 011C     		mov	r1, r0
 279              	.LVL10:
 128:sd/sd.c       **** 
 129:sd/sd.c       **** 	switch (value) {
 280              		.loc 1 129 0
 281 0116 0828     		cmp	r0, #8
 282 0118 1ED0     		beq	.L28
 283              	.LVL11:
 284 011a 0828     		cmp	r0, #8
ARM GAS  /cygdrive/c/DOCUME~1/mkwapisz/LOCALS~1/Temp/cc8t7ksv.s 			page 9


 285 011c 08D8     		bhi	.L33
 286 011e 0128     		cmp	r0, #1
 287 0120 14D0     		beq	.L25
 288 0122 0128     		cmp	r0, #1
 289 0124 10D3     		bcc	.L24
 290 0126 0228     		cmp	r0, #2
 291 0128 12D0     		beq	.L26
 292 012a 0428     		cmp	r0, #4
 293 012c 20D1     		bne	.L23
 294 012e 11E0     		b	.L27
 295              	.L33:
 296 0130 2028     		cmp	r0, #32
 297 0132 15D0     		beq	.L30
 298 0134 2028     		cmp	r0, #32
 299 0136 02D8     		bhi	.L34
 300 0138 1028     		cmp	r0, #16
 301 013a 19D1     		bne	.L23
 302 013c 0EE0     		b	.L29
 303              	.L34:
 304 013e 4028     		cmp	r0, #64
 305 0140 10D0     		beq	.L31
 306 0142 8028     		cmp	r0, #128
 307 0144 14D1     		bne	.L23
 308 0146 0FE0     		b	.L32
 309              	.L24:
 310 0148 0120     		mov	r0, #1
 311              	.LVL12:
 312 014a 18E0     		b	.L35
 313              	.LVL13:
 314              	.L25:
 130:sd/sd.c       **** 	case 0x000:
 131:sd/sd.c       **** 		return (1);
 132:sd/sd.c       **** 		break;
 133:sd/sd.c       **** 	case 0x0001:
 134:sd/sd.c       **** 		printf("Card is Locked.\n");
 315              		.loc 1 134 0
 316 014c 0D48     		ldr	r0, .L41
 317              	.LVL14:
 318 014e 0CE0     		b	.L40
 319              	.LVL15:
 320              	.L26:
 135:sd/sd.c       **** 		break;
 136:sd/sd.c       **** 	case 0x0002:
 137:sd/sd.c       **** 		printf("WP Erase Skip, Lock/Unlock Cmd Failed.\n");
 321              		.loc 1 137 0
 322 0150 0D48     		ldr	r0, .L41+4
 323              	.LVL16:
 324 0152 0AE0     		b	.L40
 325              	.LVL17:
 326              	.L27:
 138:sd/sd.c       **** 		break;
 139:sd/sd.c       **** 	case 0x0004:
 140:sd/sd.c       **** 		printf("General / Unknown error -- card broken?.\n");
 327              		.loc 1 140 0
 328 0154 0D48     		ldr	r0, .L41+8
 329              	.LVL18:
 330 0156 08E0     		b	.L40
ARM GAS  /cygdrive/c/DOCUME~1/mkwapisz/LOCALS~1/Temp/cc8t7ksv.s 			page 10


 331              	.LVL19:
 332              	.L28:
 141:sd/sd.c       **** 		break;
 142:sd/sd.c       **** 	case 0x0008:
 143:sd/sd.c       **** 		printf("Internal card controller error.\n");
 333              		.loc 1 143 0
 334 0158 0D48     		ldr	r0, .L41+12
 335              	.LVL20:
 336 015a 06E0     		b	.L40
 337              	.LVL21:
 338              	.L29:
 144:sd/sd.c       **** 		break;
 145:sd/sd.c       **** 	case 0x0010:
 146:sd/sd.c       **** 		printf(
 339              		.loc 1 146 0
 340 015c 0D48     		ldr	r0, .L41+16
 341              	.LVL22:
 342 015e 04E0     		b	.L40
 343              	.LVL23:
 344              	.L30:
 147:sd/sd.c       **** 				"Card internal ECC was applied, but failed to correct the data.\n");
 148:sd/sd.c       **** 		break;
 149:sd/sd.c       **** 	case 0x0020:
 150:sd/sd.c       **** 		printf("Write protect violation.\n");
 345              		.loc 1 150 0
 346 0160 0D48     		ldr	r0, .L41+20
 347              	.LVL24:
 348 0162 02E0     		b	.L40
 349              	.LVL25:
 350              	.L31:
 151:sd/sd.c       **** 		break;
 152:sd/sd.c       **** 	case 0x0040:
 153:sd/sd.c       **** 		printf("An invalid selection, sectors for erase.\n");
 351              		.loc 1 153 0
 352 0164 0D48     		ldr	r0, .L41+24
 353              	.LVL26:
 354 0166 00E0     		b	.L40
 355              	.LVL27:
 356              	.L32:
 154:sd/sd.c       **** 		break;
 155:sd/sd.c       **** 	case 0x0080:
 156:sd/sd.c       **** 		printf("Out of Range, CSD_Overwrite.\n");
 357              		.loc 1 156 0
 358 0168 0D48     		ldr	r0, .L41+28
 359              	.LVL28:
 360              	.L40:
 361 016a FFF7FEFF 		bl	simplePrintf
 362              	.LVL29:
 363 016e 04E0     		b	.L39
 364              	.LVL30:
 365              	.L23:
 157:sd/sd.c       **** 		break;
 158:sd/sd.c       **** 	default:
 159:sd/sd.c       **** 		if (value > 0x00FF)
 366              		.loc 1 159 0
 367 0170 FF29     		cmp	r1, #255
 368 0172 02D8     		bhi	.L39
ARM GAS  /cygdrive/c/DOCUME~1/mkwapisz/LOCALS~1/Temp/cc8t7ksv.s 			page 11


 369              	.LVL31:
 160:sd/sd.c       **** 			sdResp8bError((BYTE) (value >> 8));
 161:sd/sd.c       **** 		else
 162:sd/sd.c       **** 			printf("Unknown error: 0x%x (see SanDisk docs).\n", value);
 370              		.loc 1 162 0
 371 0174 0B48     		ldr	r0, .L41+32
 372 0176 FFF7FEFF 		bl	simplePrintf
 373              	.LVL32:
 374              	.L39:
 375 017a 0120     		mov	r0, #1
 376 017c 4042     		neg	r0, r0
 377              	.L35:
 163:sd/sd.c       **** 		break;
 164:sd/sd.c       **** 	}
 165:sd/sd.c       **** 	return (-1);
 166:sd/sd.c       **** }
 378              		.loc 1 166 0
 379              		@ sp needed for prologue
 380 017e 02BC     		pop	{r1}
 381 0180 0847     		bx	r1
 382              	.L42:
 383 0182 0000     		.align	2
 384              	.L41:
 385 0184 00000000 		.word	.LC3
 386 0188 14000000 		.word	.LC5
 387 018c 3C000000 		.word	.LC7
 388 0190 68000000 		.word	.LC9
 389 0194 8C000000 		.word	.LC11
 390 0198 CC000000 		.word	.LC13
 391 019c E8000000 		.word	.LC15
 392 01a0 14010000 		.word	.LC17
 393 01a4 34010000 		.word	.LC19
 394              	.LFE7:
 395              		.size	sdState, .-sdState
 396              		.align	2
 397              		.global	sdInit
 398              		.code 16
 399              		.thumb_func
 400              		.type	sdInit, %function
 401              	sdInit:
 402              	.LFB2:
 403              		.loc 1 6 0
 404 01a8 10B5     		push	{r4, lr}
 405              	.LCFI5:
 406              		.loc 1 6 0
 407 01aa 6424     		mov	r4, #100
 408              	.LVL33:
 409              	.L44:
 410              		.loc 1 14 0
 411 01ac 0020     		mov	r0, #0
 412 01ae 0021     		mov	r1, #0
 413 01b0 0022     		mov	r2, #0
 414 01b2 FFF7FEFF 		bl	sdCommand
 415              		.loc 1 15 0
 416 01b6 FFF7FEFF 		bl	sdResp8b
 417              		.loc 1 16 0
 418 01ba 0128     		cmp	r0, #1
ARM GAS  /cygdrive/c/DOCUME~1/mkwapisz/LOCALS~1/Temp/cc8t7ksv.s 			page 12


 419 01bc 0BD0     		beq	.L45
 420 01be 631E     		sub	r3, r4, #1
 421 01c0 1B04     		lsl	r3, r3, #16
 422 01c2 1C0C     		lsr	r4, r3, #16
 423 01c4 1B14     		asr	r3, r3, #16
 424 01c6 0133     		add	r3, r3, #1
 425 01c8 F0D1     		bne	.L44
 426              		.loc 1 19 0
 427 01ca FF28     		cmp	r0, #255
 428 01cc 01D1     		bne	.L48
 429 01ce 0120     		mov	r0, #1
 430 01d0 16E0     		b	.L60
 431              	.L48:
 432 01d2 0220     		mov	r0, #2
 433 01d4 14E0     		b	.L60
 434              	.L45:
 435 01d6 FA24     		mov	r4, #250
 436              	.LVL34:
 437 01d8 E401     		lsl	r4, r4, #7
 438              	.LVL35:
 439              	.L51:
 440              		.loc 1 31 0
 441 01da 0120     		mov	r0, #1
 442              	.LVL36:
 443 01dc 0021     		mov	r1, #0
 444 01de 0022     		mov	r2, #0
 445 01e0 FFF7FEFF 		bl	sdCommand
 446              		.loc 1 33 0
 447 01e4 FFF7FEFF 		bl	sdResp8b
 448              	.LVL37:
 449              		.loc 1 36 0
 450 01e8 0128     		cmp	r0, #1
 451 01ea 06D1     		bne	.L52
 452 01ec 631E     		sub	r3, r4, #1
 453 01ee 1B04     		lsl	r3, r3, #16
 454 01f0 1C0C     		lsr	r4, r3, #16
 455 01f2 1B14     		asr	r3, r3, #16
 456 01f4 0133     		add	r3, r3, #1
 457 01f6 02D0     		beq	.L54
 458 01f8 EFE7     		b	.L51
 459              	.L52:
 460              		.loc 1 38 0
 461 01fa 0028     		cmp	r0, #0
 462 01fc 01D0     		beq	.L50
 463              	.L54:
 464 01fe 0320     		mov	r0, #3
 465              	.LVL38:
 466              	.L60:
 467 0200 4042     		neg	r0, r0
 468              	.LVL39:
 469              	.L50:
 470              	.LVL40:
 471              		.loc 1 45 0
 472              		@ sp needed for prologue
 473              	.LVL41:
 474 0202 10BC     		pop	{r4}
 475 0204 02BC     		pop	{r1}
ARM GAS  /cygdrive/c/DOCUME~1/mkwapisz/LOCALS~1/Temp/cc8t7ksv.s 			page 13


 476 0206 0847     		bx	r1
 477              	.LFE2:
 478              		.size	sdInit, .-sdInit
 479              		.comm	i,1,1
 480              		.comm	resp8b,1,1
 481              		.comm	resp16,2,2
 482              		.section	.debug_frame,"",%progbits
 483              	.Lframe0:
 484 0000 0C000000 		.4byte	.LECIE0-.LSCIE0
 485              	.LSCIE0:
 486 0004 FFFFFFFF 		.4byte	0xffffffff
 487 0008 01       		.byte	0x1
 488 0009 00       		.ascii	"\000"
 489 000a 01       		.uleb128 0x1
 490 000b 7C       		.sleb128 -4
 491 000c 0E       		.byte	0xe
 492 000d 0C       		.byte	0xc
 493 000e 0D       		.uleb128 0xd
 494 000f 00       		.uleb128 0x0
 495              		.align	2
 496              	.LECIE0:
 497              	.LSFDE0:
 498 0010 0C000000 		.4byte	.LEFDE0-.LASFDE0
 499              	.LASFDE0:
 500 0014 00000000 		.4byte	.Lframe0
 501 0018 00000000 		.4byte	.LFB6
 502 001c 02000000 		.4byte	.LFE6-.LFB6
 503              		.align	2
 504              	.LEFDE0:
 505              	.LSFDE2:
 506 0020 14000000 		.4byte	.LEFDE2-.LASFDE2
 507              	.LASFDE2:
 508 0024 00000000 		.4byte	.Lframe0
 509 0028 04000000 		.4byte	.LFB4
 510 002c 4C000000 		.4byte	.LFE4-.LFB4
 511 0030 42       		.byte	0x4
 512              		.4byte	.LCFI0-.LFB4
 513 0031 0E       		.byte	0xe
 514 0032 04       		.uleb128 0x4
 515 0033 8E       		.byte	0x8e
 516 0034 01       		.uleb128 0x1
 517 0035 000000   		.align	2
 518              	.LEFDE2:
 519              	.LSFDE4:
 520 0038 1C000000 		.4byte	.LEFDE4-.LASFDE4
 521              	.LASFDE4:
 522 003c 00000000 		.4byte	.Lframe0
 523 0040 50000000 		.4byte	.LFB5
 524 0044 40000000 		.4byte	.LFE5-.LFB5
 525 0048 42       		.byte	0x4
 526              		.4byte	.LCFI1-.LFB5
 527 0049 0E       		.byte	0xe
 528 004a 14       		.uleb128 0x14
 529 004b 84       		.byte	0x84
 530 004c 05       		.uleb128 0x5
 531 004d 85       		.byte	0x85
 532 004e 04       		.uleb128 0x4
ARM GAS  /cygdrive/c/DOCUME~1/mkwapisz/LOCALS~1/Temp/cc8t7ksv.s 			page 14


 533 004f 86       		.byte	0x86
 534 0050 03       		.uleb128 0x3
 535 0051 87       		.byte	0x87
 536 0052 02       		.uleb128 0x2
 537 0053 8E       		.byte	0x8e
 538 0054 01       		.uleb128 0x1
 539 0055 000000   		.align	2
 540              	.LEFDE4:
 541              	.LSFDE6:
 542 0058 1C000000 		.4byte	.LEFDE6-.LASFDE6
 543              	.LASFDE6:
 544 005c 00000000 		.4byte	.Lframe0
 545 0060 90000000 		.4byte	.LFB3
 546 0064 74000000 		.4byte	.LFE3-.LFB3
 547 0068 42       		.byte	0x4
 548              		.4byte	.LCFI2-.LFB3
 549 0069 0E       		.byte	0xe
 550 006a 14       		.uleb128 0x14
 551 006b 84       		.byte	0x84
 552 006c 05       		.uleb128 0x5
 553 006d 85       		.byte	0x85
 554 006e 04       		.uleb128 0x4
 555 006f 86       		.byte	0x86
 556 0070 03       		.uleb128 0x3
 557 0071 87       		.byte	0x87
 558 0072 02       		.uleb128 0x2
 559 0073 8E       		.byte	0x8e
 560 0074 01       		.uleb128 0x1
 561 0075 44       		.byte	0x4
 562              		.4byte	.LCFI3-.LCFI2
 563 0076 0E       		.byte	0xe
 564 0077 1C       		.uleb128 0x1c
 565              		.align	2
 566              	.LEFDE6:
 567              	.LSFDE8:
 568 0078 14000000 		.4byte	.LEFDE8-.LASFDE8
 569              	.LASFDE8:
 570 007c 00000000 		.4byte	.Lframe0
 571 0080 04010000 		.4byte	.LFB7
 572 0084 A4000000 		.4byte	.LFE7-.LFB7
 573 0088 42       		.byte	0x4
 574              		.4byte	.LCFI4-.LFB7
 575 0089 0E       		.byte	0xe
 576 008a 04       		.uleb128 0x4
 577 008b 8E       		.byte	0x8e
 578 008c 01       		.uleb128 0x1
 579 008d 000000   		.align	2
 580              	.LEFDE8:
 581              	.LSFDE10:
 582 0090 14000000 		.4byte	.LEFDE10-.LASFDE10
 583              	.LASFDE10:
 584 0094 00000000 		.4byte	.Lframe0
 585 0098 A8010000 		.4byte	.LFB2
 586 009c 60000000 		.4byte	.LFE2-.LFB2
 587 00a0 42       		.byte	0x4
 588              		.4byte	.LCFI5-.LFB2
 589 00a1 0E       		.byte	0xe
ARM GAS  /cygdrive/c/DOCUME~1/mkwapisz/LOCALS~1/Temp/cc8t7ksv.s 			page 15


 590 00a2 08       		.uleb128 0x8
 591 00a3 84       		.byte	0x84
 592 00a4 02       		.uleb128 0x2
 593 00a5 8E       		.byte	0x8e
 594 00a6 01       		.uleb128 0x1
 595 00a7 00       		.align	2
 596              	.LEFDE10:
 597              		.file 2 "sd/integer.h"
 598              		.text
 599              	.Letext0:
 600              		.section	.debug_loc,"",%progbits
 601              	.Ldebug_loc0:
 602              	.LLST1:
 603 0000 04000000 		.4byte	.LFB4-.Ltext0
 604 0004 06000000 		.4byte	.LCFI0-.Ltext0
 605 0008 0100     		.2byte	0x1
 606 000a 5D       		.byte	0x5d
 607 000b 06000000 		.4byte	.LCFI0-.Ltext0
 608 000f 50000000 		.4byte	.LFE4-.Ltext0
 609 0013 0200     		.2byte	0x2
 610 0015 7D       		.byte	0x7d
 611 0016 04       		.sleb128 4
 612 0017 00000000 		.4byte	0x0
 613 001b 00000000 		.4byte	0x0
 614              	.LLST2:
 615 001f 50000000 		.4byte	.LFB5-.Ltext0
 616 0023 52000000 		.4byte	.LCFI1-.Ltext0
 617 0027 0100     		.2byte	0x1
 618 0029 5D       		.byte	0x5d
 619 002a 52000000 		.4byte	.LCFI1-.Ltext0
 620 002e 90000000 		.4byte	.LFE5-.Ltext0
 621 0032 0200     		.2byte	0x2
 622 0034 7D       		.byte	0x7d
 623 0035 14       		.sleb128 20
 624 0036 00000000 		.4byte	0x0
 625 003a 00000000 		.4byte	0x0
 626              	.LLST3:
 627 003e 90000000 		.4byte	.LFB3-.Ltext0
 628 0042 92000000 		.4byte	.LCFI2-.Ltext0
 629 0046 0100     		.2byte	0x1
 630 0048 5D       		.byte	0x5d
 631 0049 92000000 		.4byte	.LCFI2-.Ltext0
 632 004d 96000000 		.4byte	.LCFI3-.Ltext0
 633 0051 0200     		.2byte	0x2
 634 0053 7D       		.byte	0x7d
 635 0054 14       		.sleb128 20
 636 0055 96000000 		.4byte	.LCFI3-.Ltext0
 637 0059 04010000 		.4byte	.LFE3-.Ltext0
 638 005d 0200     		.2byte	0x2
 639 005f 7D       		.byte	0x7d
 640 0060 1C       		.sleb128 28
 641 0061 00000000 		.4byte	0x0
 642 0065 00000000 		.4byte	0x0
 643              	.LLST4:
 644 0069 92000000 		.4byte	.LVL1-.Ltext0
 645 006d A6000000 		.4byte	.LVL4-.Ltext0
 646 0071 0100     		.2byte	0x1
ARM GAS  /cygdrive/c/DOCUME~1/mkwapisz/LOCALS~1/Temp/cc8t7ksv.s 			page 16


 647 0073 50       		.byte	0x50
 648 0074 AC000000 		.4byte	.LVL5-.Ltext0
 649 0078 B4000000 		.4byte	.LVL7-.Ltext0
 650 007c 0100     		.2byte	0x1
 651 007e 54       		.byte	0x54
 652 007f 00000000 		.4byte	0x0
 653 0083 00000000 		.4byte	0x0
 654              	.LLST5:
 655 0087 92000000 		.4byte	.LVL1-.Ltext0
 656 008b B0000000 		.4byte	.LVL6-.Ltext0
 657 008f 0100     		.2byte	0x1
 658 0091 51       		.byte	0x51
 659 0092 B8000000 		.4byte	.LVL8-.Ltext0
 660 0096 C0000000 		.4byte	.LVL9-.Ltext0
 661 009a 0100     		.2byte	0x1
 662 009c 56       		.byte	0x56
 663 009d 00000000 		.4byte	0x0
 664 00a1 00000000 		.4byte	0x0
 665              	.LLST6:
 666 00a5 92000000 		.4byte	.LVL1-.Ltext0
 667 00a9 94000000 		.4byte	.LVL2-.Ltext0
 668 00ad 0100     		.2byte	0x1
 669 00af 52       		.byte	0x52
 670 00b0 9A000000 		.4byte	.LVL3-.Ltext0
 671 00b4 04010000 		.4byte	.LFE3-.Ltext0
 672 00b8 0200     		.2byte	0x2
 673 00ba 91       		.byte	0x91
 674 00bb 7C       		.sleb128 -4
 675 00bc 00000000 		.4byte	0x0
 676 00c0 00000000 		.4byte	0x0
 677              	.LLST7:
 678 00c4 04010000 		.4byte	.LFB7-.Ltext0
 679 00c8 06010000 		.4byte	.LCFI4-.Ltext0
 680 00cc 0100     		.2byte	0x1
 681 00ce 5D       		.byte	0x5d
 682 00cf 06010000 		.4byte	.LCFI4-.Ltext0
 683 00d3 A8010000 		.4byte	.LFE7-.Ltext0
 684 00d7 0200     		.2byte	0x2
 685 00d9 7D       		.byte	0x7d
 686 00da 04       		.sleb128 4
 687 00db 00000000 		.4byte	0x0
 688 00df 00000000 		.4byte	0x0
 689              	.LLST8:
 690 00e3 16010000 		.4byte	.LVL10-.Ltext0
 691 00e7 1A010000 		.4byte	.LVL11-.Ltext0
 692 00eb 0100     		.2byte	0x1
 693 00ed 51       		.byte	0x51
 694 00ee 1A010000 		.4byte	.LVL11-.Ltext0
 695 00f2 4A010000 		.4byte	.LVL12-.Ltext0
 696 00f6 0100     		.2byte	0x1
 697 00f8 50       		.byte	0x50
 698 00f9 4A010000 		.4byte	.LVL12-.Ltext0
 699 00fd 4C010000 		.4byte	.LVL13-.Ltext0
 700 0101 0100     		.2byte	0x1
 701 0103 51       		.byte	0x51
 702 0104 4C010000 		.4byte	.LVL13-.Ltext0
 703 0108 4E010000 		.4byte	.LVL14-.Ltext0
ARM GAS  /cygdrive/c/DOCUME~1/mkwapisz/LOCALS~1/Temp/cc8t7ksv.s 			page 17


 704 010c 0100     		.2byte	0x1
 705 010e 50       		.byte	0x50
 706 010f 4E010000 		.4byte	.LVL14-.Ltext0
 707 0113 50010000 		.4byte	.LVL15-.Ltext0
 708 0117 0100     		.2byte	0x1
 709 0119 51       		.byte	0x51
 710 011a 50010000 		.4byte	.LVL15-.Ltext0
 711 011e 52010000 		.4byte	.LVL16-.Ltext0
 712 0122 0100     		.2byte	0x1
 713 0124 50       		.byte	0x50
 714 0125 52010000 		.4byte	.LVL16-.Ltext0
 715 0129 54010000 		.4byte	.LVL17-.Ltext0
 716 012d 0100     		.2byte	0x1
 717 012f 51       		.byte	0x51
 718 0130 54010000 		.4byte	.LVL17-.Ltext0
 719 0134 56010000 		.4byte	.LVL18-.Ltext0
 720 0138 0100     		.2byte	0x1
 721 013a 50       		.byte	0x50
 722 013b 56010000 		.4byte	.LVL18-.Ltext0
 723 013f 58010000 		.4byte	.LVL19-.Ltext0
 724 0143 0100     		.2byte	0x1
 725 0145 51       		.byte	0x51
 726 0146 58010000 		.4byte	.LVL19-.Ltext0
 727 014a 5A010000 		.4byte	.LVL20-.Ltext0
 728 014e 0100     		.2byte	0x1
 729 0150 50       		.byte	0x50
 730 0151 5A010000 		.4byte	.LVL20-.Ltext0
 731 0155 5C010000 		.4byte	.LVL21-.Ltext0
 732 0159 0100     		.2byte	0x1
 733 015b 51       		.byte	0x51
 734 015c 5C010000 		.4byte	.LVL21-.Ltext0
 735 0160 5E010000 		.4byte	.LVL22-.Ltext0
 736 0164 0100     		.2byte	0x1
 737 0166 50       		.byte	0x50
 738 0167 5E010000 		.4byte	.LVL22-.Ltext0
 739 016b 60010000 		.4byte	.LVL23-.Ltext0
 740 016f 0100     		.2byte	0x1
 741 0171 51       		.byte	0x51
 742 0172 60010000 		.4byte	.LVL23-.Ltext0
 743 0176 62010000 		.4byte	.LVL24-.Ltext0
 744 017a 0100     		.2byte	0x1
 745 017c 50       		.byte	0x50
 746 017d 62010000 		.4byte	.LVL24-.Ltext0
 747 0181 64010000 		.4byte	.LVL25-.Ltext0
 748 0185 0100     		.2byte	0x1
 749 0187 51       		.byte	0x51
 750 0188 64010000 		.4byte	.LVL25-.Ltext0
 751 018c 66010000 		.4byte	.LVL26-.Ltext0
 752 0190 0100     		.2byte	0x1
 753 0192 50       		.byte	0x50
 754 0193 66010000 		.4byte	.LVL26-.Ltext0
 755 0197 68010000 		.4byte	.LVL27-.Ltext0
 756 019b 0100     		.2byte	0x1
 757 019d 51       		.byte	0x51
 758 019e 68010000 		.4byte	.LVL27-.Ltext0
 759 01a2 6A010000 		.4byte	.LVL28-.Ltext0
 760 01a6 0100     		.2byte	0x1
ARM GAS  /cygdrive/c/DOCUME~1/mkwapisz/LOCALS~1/Temp/cc8t7ksv.s 			page 18


 761 01a8 50       		.byte	0x50
 762 01a9 6A010000 		.4byte	.LVL28-.Ltext0
 763 01ad 6E010000 		.4byte	.LVL29-.Ltext0
 764 01b1 0100     		.2byte	0x1
 765 01b3 51       		.byte	0x51
 766 01b4 70010000 		.4byte	.LVL30-.Ltext0
 767 01b8 74010000 		.4byte	.LVL31-.Ltext0
 768 01bc 0100     		.2byte	0x1
 769 01be 50       		.byte	0x50
 770 01bf 74010000 		.4byte	.LVL31-.Ltext0
 771 01c3 7A010000 		.4byte	.LVL32-.Ltext0
 772 01c7 0100     		.2byte	0x1
 773 01c9 51       		.byte	0x51
 774 01ca 7A010000 		.4byte	.LVL32-.Ltext0
 775 01ce A8010000 		.4byte	.LFE7-.Ltext0
 776 01d2 0100     		.2byte	0x1
 777 01d4 51       		.byte	0x51
 778 01d5 00000000 		.4byte	0x0
 779 01d9 00000000 		.4byte	0x0
 780              	.LLST9:
 781 01dd A8010000 		.4byte	.LFB2-.Ltext0
 782 01e1 AA010000 		.4byte	.LCFI5-.Ltext0
 783 01e5 0100     		.2byte	0x1
 784 01e7 5D       		.byte	0x5d
 785 01e8 AA010000 		.4byte	.LCFI5-.Ltext0
 786 01ec 08020000 		.4byte	.LFE2-.Ltext0
 787 01f0 0200     		.2byte	0x2
 788 01f2 7D       		.byte	0x7d
 789 01f3 08       		.sleb128 8
 790 01f4 00000000 		.4byte	0x0
 791 01f8 00000000 		.4byte	0x0
 792              	.LLST10:
 793 01fc AC010000 		.4byte	.LVL33-.Ltext0
 794 0200 D8010000 		.4byte	.LVL34-.Ltext0
 795 0204 0100     		.2byte	0x1
 796 0206 54       		.byte	0x54
 797 0207 D8010000 		.4byte	.LVL34-.Ltext0
 798 020b 02020000 		.4byte	.LVL41-.Ltext0
 799 020f 0100     		.2byte	0x1
 800 0211 54       		.byte	0x54
 801 0212 00000000 		.4byte	0x0
 802 0216 00000000 		.4byte	0x0
 803              	.LLST11:
 804 021a DA010000 		.4byte	.LVL35-.Ltext0
 805 021e DC010000 		.4byte	.LVL36-.Ltext0
 806 0222 0100     		.2byte	0x1
 807 0224 50       		.byte	0x50
 808 0225 E8010000 		.4byte	.LVL37-.Ltext0
 809 0229 00020000 		.4byte	.LVL38-.Ltext0
 810 022d 0100     		.2byte	0x1
 811 022f 50       		.byte	0x50
 812 0230 02020000 		.4byte	.LVL39-.Ltext0
 813 0234 02020000 		.4byte	.LVL40-.Ltext0
 814 0238 0100     		.2byte	0x1
 815 023a 50       		.byte	0x50
 816 023b 00000000 		.4byte	0x0
 817 023f 00000000 		.4byte	0x0
ARM GAS  /cygdrive/c/DOCUME~1/mkwapisz/LOCALS~1/Temp/cc8t7ksv.s 			page 19


 818              		.section	.debug_info
 819 0000 CF010000 		.4byte	0x1cf
 820 0004 0200     		.2byte	0x2
 821 0006 00000000 		.4byte	.Ldebug_abbrev0
 822 000a 04       		.byte	0x4
 823 000b 01       		.uleb128 0x1
 824 000c 00000000 		.4byte	.Ldebug_line0
 825 0010 08020000 		.4byte	.Letext0
 826 0014 00000000 		.4byte	.Ltext0
 827 0018 94000000 		.4byte	.LASF23
 828 001c 01       		.byte	0x1
 829 001d 56000000 		.4byte	.LASF24
 830 0021 E9000000 		.4byte	.LASF25
 831 0025 02       		.uleb128 0x2
 832 0026 696E7400 		.ascii	"int\000"
 833 002a 04       		.byte	0x4
 834 002b 05       		.byte	0x5
 835 002c 03       		.uleb128 0x3
 836 002d 05000000 		.4byte	.LASF0
 837 0031 04       		.byte	0x4
 838 0032 07       		.byte	0x7
 839 0033 04       		.uleb128 0x4
 840 0034 8A000000 		.4byte	.LASF3
 841 0038 02       		.byte	0x2
 842 0039 13       		.byte	0x13
 843 003a 3E000000 		.4byte	0x3e
 844 003e 03       		.uleb128 0x3
 845 003f B3000000 		.4byte	.LASF1
 846 0043 01       		.byte	0x1
 847 0044 06       		.byte	0x6
 848 0045 03       		.uleb128 0x3
 849 0046 6C000000 		.4byte	.LASF2
 850 004a 01       		.byte	0x1
 851 004b 08       		.byte	0x8
 852 004c 04       		.uleb128 0x4
 853 004d C6000000 		.4byte	.LASF4
 854 0051 02       		.byte	0x2
 855 0052 15       		.byte	0x15
 856 0053 45000000 		.4byte	0x45
 857 0057 04       		.uleb128 0x4
 858 0058 CB000000 		.4byte	.LASF5
 859 005c 02       		.byte	0x2
 860 005d 18       		.byte	0x18
 861 005e 62000000 		.4byte	0x62
 862 0062 03       		.uleb128 0x3
 863 0063 DF000000 		.4byte	.LASF6
 864 0067 02       		.byte	0x2
 865 0068 05       		.byte	0x5
 866 0069 03       		.uleb128 0x3
 867 006a A0000000 		.4byte	.LASF7
 868 006e 02       		.byte	0x2
 869 006f 07       		.byte	0x7
 870 0070 04       		.uleb128 0x4
 871 0071 00000000 		.4byte	.LASF8
 872 0075 02       		.byte	0x2
 873 0076 1A       		.byte	0x1a
 874 0077 69000000 		.4byte	0x69
ARM GAS  /cygdrive/c/DOCUME~1/mkwapisz/LOCALS~1/Temp/cc8t7ksv.s 			page 20


 875 007b 03       		.uleb128 0x3
 876 007c 7A000000 		.4byte	.LASF9
 877 0080 04       		.byte	0x4
 878 0081 05       		.byte	0x5
 879 0082 03       		.uleb128 0x3
 880 0083 3D000000 		.4byte	.LASF10
 881 0087 04       		.byte	0x4
 882 0088 07       		.byte	0x7
 883 0089 05       		.uleb128 0x5
 884 008a A3000000 		.4byte	0xa3
 885 008e 01       		.byte	0x1
 886 008f 12000000 		.4byte	.LASF13
 887 0093 01       		.byte	0x1
 888 0094 5C       		.byte	0x5c
 889 0095 01       		.byte	0x1
 890 0096 01       		.byte	0x1
 891 0097 06       		.uleb128 0x6
 892 0098 D1000000 		.4byte	.LASF15
 893 009c 01       		.byte	0x1
 894 009d 5C       		.byte	0x5c
 895 009e 4C000000 		.4byte	0x4c
 896 00a2 00       		.byte	0x0
 897 00a3 07       		.uleb128 0x7
 898 00a4 BE000000 		.4byte	0xbe
 899 00a8 89000000 		.4byte	0x89
 900 00ac 00000000 		.4byte	.LFB6
 901 00b0 02000000 		.4byte	.LFE6
 902 00b4 01       		.byte	0x1
 903 00b5 5D       		.byte	0x5d
 904 00b6 08       		.uleb128 0x8
 905 00b7 97000000 		.4byte	0x97
 906 00bb 01       		.byte	0x1
 907 00bc 50       		.byte	0x50
 908 00bd 00       		.byte	0x0
 909 00be 09       		.uleb128 0x9
 910 00bf 01       		.byte	0x1
 911 00c0 2A000000 		.4byte	.LASF11
 912 00c4 01       		.byte	0x1
 913 00c5 45       		.byte	0x45
 914 00c6 01       		.byte	0x1
 915 00c7 4C000000 		.4byte	0x4c
 916 00cb 04000000 		.4byte	.LFB4
 917 00cf 50000000 		.4byte	.LFE4
 918 00d3 00000000 		.4byte	.LLST1
 919 00d7 09       		.uleb128 0x9
 920 00d8 01       		.byte	0x1
 921 00d9 33000000 		.4byte	.LASF12
 922 00dd 01       		.byte	0x1
 923 00de 53       		.byte	0x53
 924 00df 01       		.byte	0x1
 925 00e0 70000000 		.4byte	0x70
 926 00e4 50000000 		.4byte	.LFB5
 927 00e8 90000000 		.4byte	.LFE5
 928 00ec 1F000000 		.4byte	.LLST2
 929 00f0 0A       		.uleb128 0xa
 930 00f1 37010000 		.4byte	0x137
 931 00f5 01       		.byte	0x1
ARM GAS  /cygdrive/c/DOCUME~1/mkwapisz/LOCALS~1/Temp/cc8t7ksv.s 			page 21


 932 00f6 20000000 		.4byte	.LASF14
 933 00fa 01       		.byte	0x1
 934 00fb 2F       		.byte	0x2f
 935 00fc 01       		.byte	0x1
 936 00fd 90000000 		.4byte	.LFB3
 937 0101 04010000 		.4byte	.LFE3
 938 0105 3E000000 		.4byte	.LLST3
 939 0109 0B       		.uleb128 0xb
 940 010a 636D6400 		.ascii	"cmd\000"
 941 010e 01       		.byte	0x1
 942 010f 2F       		.byte	0x2f
 943 0110 4C000000 		.4byte	0x4c
 944 0114 69000000 		.4byte	.LLST4
 945 0118 0C       		.uleb128 0xc
 946 0119 5E000000 		.4byte	.LASF16
 947 011d 01       		.byte	0x1
 948 011e 2F       		.byte	0x2f
 949 011f 70000000 		.4byte	0x70
 950 0123 87000000 		.4byte	.LLST5
 951 0127 0C       		.uleb128 0xc
 952 0128 65000000 		.4byte	.LASF17
 953 012c 01       		.byte	0x1
 954 012d 2F       		.byte	0x2f
 955 012e 70000000 		.4byte	0x70
 956 0132 A5000000 		.4byte	.LLST6
 957 0136 00       		.byte	0x0
 958 0137 0D       		.uleb128 0xd
 959 0138 64010000 		.4byte	0x164
 960 013c 01       		.byte	0x1
 961 013d D7000000 		.4byte	.LASF18
 962 0141 01       		.byte	0x1
 963 0142 7B       		.byte	0x7b
 964 0143 01       		.byte	0x1
 965 0144 33000000 		.4byte	0x33
 966 0148 04010000 		.4byte	.LFB7
 967 014c A8010000 		.4byte	.LFE7
 968 0150 C4000000 		.4byte	.LLST7
 969 0154 0E       		.uleb128 0xe
 970 0155 D1000000 		.4byte	.LASF15
 971 0159 01       		.byte	0x1
 972 015a 7C       		.byte	0x7c
 973 015b 70000000 		.4byte	0x70
 974 015f E3000000 		.4byte	.LLST8
 975 0163 00       		.byte	0x0
 976 0164 0D       		.uleb128 0xd
 977 0165 9E010000 		.4byte	0x19e
 978 0169 01       		.byte	0x1
 979 016a 83000000 		.4byte	.LASF19
 980 016e 01       		.byte	0x1
 981 016f 06       		.byte	0x6
 982 0170 01       		.byte	0x1
 983 0171 33000000 		.4byte	0x33
 984 0175 A8010000 		.4byte	.LFB2
 985 0179 08020000 		.4byte	.LFE2
 986 017d DD010000 		.4byte	.LLST9
 987 0181 0F       		.uleb128 0xf
 988 0182 6900     		.ascii	"i\000"
ARM GAS  /cygdrive/c/DOCUME~1/mkwapisz/LOCALS~1/Temp/cc8t7ksv.s 			page 22


 989 0184 01       		.byte	0x1
 990 0185 08       		.byte	0x8
 991 0186 57000000 		.4byte	0x57
 992 018a FC010000 		.4byte	.LLST10
 993 018e 0E       		.uleb128 0xe
 994 018f 8F000000 		.4byte	.LASF20
 995 0193 01       		.byte	0x1
 996 0194 09       		.byte	0x9
 997 0195 4C000000 		.4byte	0x4c
 998 0199 1A020000 		.4byte	.LLST11
 999 019d 00       		.byte	0x0
 1000 019e 10       		.uleb128 0x10
 1001 019f 6900     		.ascii	"i\000"
 1002 01a1 01       		.byte	0x1
 1003 01a2 42       		.byte	0x42
 1004 01a3 4C000000 		.4byte	0x4c
 1005 01a7 01       		.byte	0x1
 1006 01a8 05       		.byte	0x5
 1007 01a9 03       		.byte	0x3
 1008 01aa 00000000 		.4byte	i
 1009 01ae 11       		.uleb128 0x11
 1010 01af BF000000 		.4byte	.LASF21
 1011 01b3 01       		.byte	0x1
 1012 01b4 43       		.byte	0x43
 1013 01b5 4C000000 		.4byte	0x4c
 1014 01b9 01       		.byte	0x1
 1015 01ba 05       		.byte	0x5
 1016 01bb 03       		.byte	0x3
 1017 01bc 00000000 		.4byte	resp8b
 1018 01c0 11       		.uleb128 0x11
 1019 01c1 4F000000 		.4byte	.LASF22
 1020 01c5 01       		.byte	0x1
 1021 01c6 52       		.byte	0x52
 1022 01c7 70000000 		.4byte	0x70
 1023 01cb 01       		.byte	0x1
 1024 01cc 05       		.byte	0x5
 1025 01cd 03       		.byte	0x3
 1026 01ce 00000000 		.4byte	resp16
 1027 01d2 00       		.byte	0x0
 1028              		.section	.debug_abbrev
 1029 0000 01       		.uleb128 0x1
 1030 0001 11       		.uleb128 0x11
 1031 0002 01       		.byte	0x1
 1032 0003 10       		.uleb128 0x10
 1033 0004 06       		.uleb128 0x6
 1034 0005 12       		.uleb128 0x12
 1035 0006 01       		.uleb128 0x1
 1036 0007 11       		.uleb128 0x11
 1037 0008 01       		.uleb128 0x1
 1038 0009 25       		.uleb128 0x25
 1039 000a 0E       		.uleb128 0xe
 1040 000b 13       		.uleb128 0x13
 1041 000c 0B       		.uleb128 0xb
 1042 000d 03       		.uleb128 0x3
 1043 000e 0E       		.uleb128 0xe
 1044 000f 1B       		.uleb128 0x1b
 1045 0010 0E       		.uleb128 0xe
ARM GAS  /cygdrive/c/DOCUME~1/mkwapisz/LOCALS~1/Temp/cc8t7ksv.s 			page 23


 1046 0011 00       		.byte	0x0
 1047 0012 00       		.byte	0x0
 1048 0013 02       		.uleb128 0x2
 1049 0014 24       		.uleb128 0x24
 1050 0015 00       		.byte	0x0
 1051 0016 03       		.uleb128 0x3
 1052 0017 08       		.uleb128 0x8
 1053 0018 0B       		.uleb128 0xb
 1054 0019 0B       		.uleb128 0xb
 1055 001a 3E       		.uleb128 0x3e
 1056 001b 0B       		.uleb128 0xb
 1057 001c 00       		.byte	0x0
 1058 001d 00       		.byte	0x0
 1059 001e 03       		.uleb128 0x3
 1060 001f 24       		.uleb128 0x24
 1061 0020 00       		.byte	0x0
 1062 0021 03       		.uleb128 0x3
 1063 0022 0E       		.uleb128 0xe
 1064 0023 0B       		.uleb128 0xb
 1065 0024 0B       		.uleb128 0xb
 1066 0025 3E       		.uleb128 0x3e
 1067 0026 0B       		.uleb128 0xb
 1068 0027 00       		.byte	0x0
 1069 0028 00       		.byte	0x0
 1070 0029 04       		.uleb128 0x4
 1071 002a 16       		.uleb128 0x16
 1072 002b 00       		.byte	0x0
 1073 002c 03       		.uleb128 0x3
 1074 002d 0E       		.uleb128 0xe
 1075 002e 3A       		.uleb128 0x3a
 1076 002f 0B       		.uleb128 0xb
 1077 0030 3B       		.uleb128 0x3b
 1078 0031 0B       		.uleb128 0xb
 1079 0032 49       		.uleb128 0x49
 1080 0033 13       		.uleb128 0x13
 1081 0034 00       		.byte	0x0
 1082 0035 00       		.byte	0x0
 1083 0036 05       		.uleb128 0x5
 1084 0037 2E       		.uleb128 0x2e
 1085 0038 01       		.byte	0x1
 1086 0039 01       		.uleb128 0x1
 1087 003a 13       		.uleb128 0x13
 1088 003b 3F       		.uleb128 0x3f
 1089 003c 0C       		.uleb128 0xc
 1090 003d 03       		.uleb128 0x3
 1091 003e 0E       		.uleb128 0xe
 1092 003f 3A       		.uleb128 0x3a
 1093 0040 0B       		.uleb128 0xb
 1094 0041 3B       		.uleb128 0x3b
 1095 0042 0B       		.uleb128 0xb
 1096 0043 27       		.uleb128 0x27
 1097 0044 0C       		.uleb128 0xc
 1098 0045 20       		.uleb128 0x20
 1099 0046 0B       		.uleb128 0xb
 1100 0047 00       		.byte	0x0
 1101 0048 00       		.byte	0x0
 1102 0049 06       		.uleb128 0x6
ARM GAS  /cygdrive/c/DOCUME~1/mkwapisz/LOCALS~1/Temp/cc8t7ksv.s 			page 24


 1103 004a 05       		.uleb128 0x5
 1104 004b 00       		.byte	0x0
 1105 004c 03       		.uleb128 0x3
 1106 004d 0E       		.uleb128 0xe
 1107 004e 3A       		.uleb128 0x3a
 1108 004f 0B       		.uleb128 0xb
 1109 0050 3B       		.uleb128 0x3b
 1110 0051 0B       		.uleb128 0xb
 1111 0052 49       		.uleb128 0x49
 1112 0053 13       		.uleb128 0x13
 1113 0054 00       		.byte	0x0
 1114 0055 00       		.byte	0x0
 1115 0056 07       		.uleb128 0x7
 1116 0057 2E       		.uleb128 0x2e
 1117 0058 01       		.byte	0x1
 1118 0059 01       		.uleb128 0x1
 1119 005a 13       		.uleb128 0x13
 1120 005b 31       		.uleb128 0x31
 1121 005c 13       		.uleb128 0x13
 1122 005d 11       		.uleb128 0x11
 1123 005e 01       		.uleb128 0x1
 1124 005f 12       		.uleb128 0x12
 1125 0060 01       		.uleb128 0x1
 1126 0061 40       		.uleb128 0x40
 1127 0062 0A       		.uleb128 0xa
 1128 0063 00       		.byte	0x0
 1129 0064 00       		.byte	0x0
 1130 0065 08       		.uleb128 0x8
 1131 0066 05       		.uleb128 0x5
 1132 0067 00       		.byte	0x0
 1133 0068 31       		.uleb128 0x31
 1134 0069 13       		.uleb128 0x13
 1135 006a 02       		.uleb128 0x2
 1136 006b 0A       		.uleb128 0xa
 1137 006c 00       		.byte	0x0
 1138 006d 00       		.byte	0x0
 1139 006e 09       		.uleb128 0x9
 1140 006f 2E       		.uleb128 0x2e
 1141 0070 00       		.byte	0x0
 1142 0071 3F       		.uleb128 0x3f
 1143 0072 0C       		.uleb128 0xc
 1144 0073 03       		.uleb128 0x3
 1145 0074 0E       		.uleb128 0xe
 1146 0075 3A       		.uleb128 0x3a
 1147 0076 0B       		.uleb128 0xb
 1148 0077 3B       		.uleb128 0x3b
 1149 0078 0B       		.uleb128 0xb
 1150 0079 27       		.uleb128 0x27
 1151 007a 0C       		.uleb128 0xc
 1152 007b 49       		.uleb128 0x49
 1153 007c 13       		.uleb128 0x13
 1154 007d 11       		.uleb128 0x11
 1155 007e 01       		.uleb128 0x1
 1156 007f 12       		.uleb128 0x12
 1157 0080 01       		.uleb128 0x1
 1158 0081 40       		.uleb128 0x40
 1159 0082 06       		.uleb128 0x6
ARM GAS  /cygdrive/c/DOCUME~1/mkwapisz/LOCALS~1/Temp/cc8t7ksv.s 			page 25


 1160 0083 00       		.byte	0x0
 1161 0084 00       		.byte	0x0
 1162 0085 0A       		.uleb128 0xa
 1163 0086 2E       		.uleb128 0x2e
 1164 0087 01       		.byte	0x1
 1165 0088 01       		.uleb128 0x1
 1166 0089 13       		.uleb128 0x13
 1167 008a 3F       		.uleb128 0x3f
 1168 008b 0C       		.uleb128 0xc
 1169 008c 03       		.uleb128 0x3
 1170 008d 0E       		.uleb128 0xe
 1171 008e 3A       		.uleb128 0x3a
 1172 008f 0B       		.uleb128 0xb
 1173 0090 3B       		.uleb128 0x3b
 1174 0091 0B       		.uleb128 0xb
 1175 0092 27       		.uleb128 0x27
 1176 0093 0C       		.uleb128 0xc
 1177 0094 11       		.uleb128 0x11
 1178 0095 01       		.uleb128 0x1
 1179 0096 12       		.uleb128 0x12
 1180 0097 01       		.uleb128 0x1
 1181 0098 40       		.uleb128 0x40
 1182 0099 06       		.uleb128 0x6
 1183 009a 00       		.byte	0x0
 1184 009b 00       		.byte	0x0
 1185 009c 0B       		.uleb128 0xb
 1186 009d 05       		.uleb128 0x5
 1187 009e 00       		.byte	0x0
 1188 009f 03       		.uleb128 0x3
 1189 00a0 08       		.uleb128 0x8
 1190 00a1 3A       		.uleb128 0x3a
 1191 00a2 0B       		.uleb128 0xb
 1192 00a3 3B       		.uleb128 0x3b
 1193 00a4 0B       		.uleb128 0xb
 1194 00a5 49       		.uleb128 0x49
 1195 00a6 13       		.uleb128 0x13
 1196 00a7 02       		.uleb128 0x2
 1197 00a8 06       		.uleb128 0x6
 1198 00a9 00       		.byte	0x0
 1199 00aa 00       		.byte	0x0
 1200 00ab 0C       		.uleb128 0xc
 1201 00ac 05       		.uleb128 0x5
 1202 00ad 00       		.byte	0x0
 1203 00ae 03       		.uleb128 0x3
 1204 00af 0E       		.uleb128 0xe
 1205 00b0 3A       		.uleb128 0x3a
 1206 00b1 0B       		.uleb128 0xb
 1207 00b2 3B       		.uleb128 0x3b
 1208 00b3 0B       		.uleb128 0xb
 1209 00b4 49       		.uleb128 0x49
 1210 00b5 13       		.uleb128 0x13
 1211 00b6 02       		.uleb128 0x2
 1212 00b7 06       		.uleb128 0x6
 1213 00b8 00       		.byte	0x0
 1214 00b9 00       		.byte	0x0
 1215 00ba 0D       		.uleb128 0xd
 1216 00bb 2E       		.uleb128 0x2e
ARM GAS  /cygdrive/c/DOCUME~1/mkwapisz/LOCALS~1/Temp/cc8t7ksv.s 			page 26


 1217 00bc 01       		.byte	0x1
 1218 00bd 01       		.uleb128 0x1
 1219 00be 13       		.uleb128 0x13
 1220 00bf 3F       		.uleb128 0x3f
 1221 00c0 0C       		.uleb128 0xc
 1222 00c1 03       		.uleb128 0x3
 1223 00c2 0E       		.uleb128 0xe
 1224 00c3 3A       		.uleb128 0x3a
 1225 00c4 0B       		.uleb128 0xb
 1226 00c5 3B       		.uleb128 0x3b
 1227 00c6 0B       		.uleb128 0xb
 1228 00c7 27       		.uleb128 0x27
 1229 00c8 0C       		.uleb128 0xc
 1230 00c9 49       		.uleb128 0x49
 1231 00ca 13       		.uleb128 0x13
 1232 00cb 11       		.uleb128 0x11
 1233 00cc 01       		.uleb128 0x1
 1234 00cd 12       		.uleb128 0x12
 1235 00ce 01       		.uleb128 0x1
 1236 00cf 40       		.uleb128 0x40
 1237 00d0 06       		.uleb128 0x6
 1238 00d1 00       		.byte	0x0
 1239 00d2 00       		.byte	0x0
 1240 00d3 0E       		.uleb128 0xe
 1241 00d4 34       		.uleb128 0x34
 1242 00d5 00       		.byte	0x0
 1243 00d6 03       		.uleb128 0x3
 1244 00d7 0E       		.uleb128 0xe
 1245 00d8 3A       		.uleb128 0x3a
 1246 00d9 0B       		.uleb128 0xb
 1247 00da 3B       		.uleb128 0x3b
 1248 00db 0B       		.uleb128 0xb
 1249 00dc 49       		.uleb128 0x49
 1250 00dd 13       		.uleb128 0x13
 1251 00de 02       		.uleb128 0x2
 1252 00df 06       		.uleb128 0x6
 1253 00e0 00       		.byte	0x0
 1254 00e1 00       		.byte	0x0
 1255 00e2 0F       		.uleb128 0xf
 1256 00e3 34       		.uleb128 0x34
 1257 00e4 00       		.byte	0x0
 1258 00e5 03       		.uleb128 0x3
 1259 00e6 08       		.uleb128 0x8
 1260 00e7 3A       		.uleb128 0x3a
 1261 00e8 0B       		.uleb128 0xb
 1262 00e9 3B       		.uleb128 0x3b
 1263 00ea 0B       		.uleb128 0xb
 1264 00eb 49       		.uleb128 0x49
 1265 00ec 13       		.uleb128 0x13
 1266 00ed 02       		.uleb128 0x2
 1267 00ee 06       		.uleb128 0x6
 1268 00ef 00       		.byte	0x0
 1269 00f0 00       		.byte	0x0
 1270 00f1 10       		.uleb128 0x10
 1271 00f2 34       		.uleb128 0x34
 1272 00f3 00       		.byte	0x0
 1273 00f4 03       		.uleb128 0x3
ARM GAS  /cygdrive/c/DOCUME~1/mkwapisz/LOCALS~1/Temp/cc8t7ksv.s 			page 27


 1274 00f5 08       		.uleb128 0x8
 1275 00f6 3A       		.uleb128 0x3a
 1276 00f7 0B       		.uleb128 0xb
 1277 00f8 3B       		.uleb128 0x3b
 1278 00f9 0B       		.uleb128 0xb
 1279 00fa 49       		.uleb128 0x49
 1280 00fb 13       		.uleb128 0x13
 1281 00fc 3F       		.uleb128 0x3f
 1282 00fd 0C       		.uleb128 0xc
 1283 00fe 02       		.uleb128 0x2
 1284 00ff 0A       		.uleb128 0xa
 1285 0100 00       		.byte	0x0
 1286 0101 00       		.byte	0x0
 1287 0102 11       		.uleb128 0x11
 1288 0103 34       		.uleb128 0x34
 1289 0104 00       		.byte	0x0
 1290 0105 03       		.uleb128 0x3
 1291 0106 0E       		.uleb128 0xe
 1292 0107 3A       		.uleb128 0x3a
 1293 0108 0B       		.uleb128 0xb
 1294 0109 3B       		.uleb128 0x3b
 1295 010a 0B       		.uleb128 0xb
 1296 010b 49       		.uleb128 0x49
 1297 010c 13       		.uleb128 0x13
 1298 010d 3F       		.uleb128 0x3f
 1299 010e 0C       		.uleb128 0xc
 1300 010f 02       		.uleb128 0x2
 1301 0110 0A       		.uleb128 0xa
 1302 0111 00       		.byte	0x0
 1303 0112 00       		.byte	0x0
 1304 0113 00       		.byte	0x0
 1305              		.section	.debug_pubnames,"",%progbits
 1306 0000 7C000000 		.4byte	0x7c
 1307 0004 0200     		.2byte	0x2
 1308 0006 00000000 		.4byte	.Ldebug_info0
 1309 000a D3010000 		.4byte	0x1d3
 1310 000e A3000000 		.4byte	0xa3
 1311 0012 73645265 		.ascii	"sdResp8bError\000"
 1311      73703862 
 1311      4572726F 
 1311      7200
 1312 0020 BE000000 		.4byte	0xbe
 1313 0024 73645265 		.ascii	"sdResp8b\000"
 1313      73703862 
 1313      00
 1314 002d D7000000 		.4byte	0xd7
 1315 0031 73645265 		.ascii	"sdResp16b\000"
 1315      73703136 
 1315      6200
 1316 003b F0000000 		.4byte	0xf0
 1317 003f 7364436F 		.ascii	"sdCommand\000"
 1317      6D6D616E 
 1317      6400
 1318 0049 37010000 		.4byte	0x137
 1319 004d 73645374 		.ascii	"sdState\000"
 1319      61746500 
 1320 0055 64010000 		.4byte	0x164
ARM GAS  /cygdrive/c/DOCUME~1/mkwapisz/LOCALS~1/Temp/cc8t7ksv.s 			page 28


 1321 0059 7364496E 		.ascii	"sdInit\000"
 1321      697400
 1322 0060 9E010000 		.4byte	0x19e
 1323 0064 6900     		.ascii	"i\000"
 1324 0066 AE010000 		.4byte	0x1ae
 1325 006a 72657370 		.ascii	"resp8b\000"
 1325      386200
 1326 0071 C0010000 		.4byte	0x1c0
 1327 0075 72657370 		.ascii	"resp16\000"
 1327      313600
 1328 007c 00000000 		.4byte	0x0
 1329              		.section	.debug_aranges,"",%progbits
 1330 0000 1C000000 		.4byte	0x1c
 1331 0004 0200     		.2byte	0x2
 1332 0006 00000000 		.4byte	.Ldebug_info0
 1333 000a 04       		.byte	0x4
 1334 000b 00       		.byte	0x0
 1335 000c 0000     		.2byte	0x0
 1336 000e 0000     		.2byte	0x0
 1337 0010 00000000 		.4byte	.Ltext0
 1338 0014 08020000 		.4byte	.Letext0-.Ltext0
 1339 0018 00000000 		.4byte	0x0
 1340 001c 00000000 		.4byte	0x0
 1341              		.section	.debug_str,"MS",%progbits,1
 1342              	.LASF8:
 1343 0000 574F5244 		.ascii	"WORD\000"
 1343      00
 1344              	.LASF0:
 1345 0005 756E7369 		.ascii	"unsigned int\000"
 1345      676E6564 
 1345      20696E74 
 1345      00
 1346              	.LASF13:
 1347 0012 73645265 		.ascii	"sdResp8bError\000"
 1347      73703862 
 1347      4572726F 
 1347      7200
 1348              	.LASF14:
 1349 0020 7364436F 		.ascii	"sdCommand\000"
 1349      6D6D616E 
 1349      6400
 1350              	.LASF11:
 1351 002a 73645265 		.ascii	"sdResp8b\000"
 1351      73703862 
 1351      00
 1352              	.LASF12:
 1353 0033 73645265 		.ascii	"sdResp16b\000"
 1353      73703136 
 1353      6200
 1354              	.LASF10:
 1355 003d 6C6F6E67 		.ascii	"long unsigned int\000"
 1355      20756E73 
 1355      69676E65 
 1355      6420696E 
 1355      7400
 1356              	.LASF22:
 1357 004f 72657370 		.ascii	"resp16\000"
ARM GAS  /cygdrive/c/DOCUME~1/mkwapisz/LOCALS~1/Temp/cc8t7ksv.s 			page 29


 1357      313600
 1358              	.LASF24:
 1359 0056 73642F73 		.ascii	"sd/sd.c\000"
 1359      642E6300 
 1360              	.LASF16:
 1361 005e 70617261 		.ascii	"paramx\000"
 1361      6D7800
 1362              	.LASF17:
 1363 0065 70617261 		.ascii	"paramy\000"
 1363      6D7900
 1364              	.LASF2:
 1365 006c 756E7369 		.ascii	"unsigned char\000"
 1365      676E6564 
 1365      20636861 
 1365      7200
 1366              	.LASF9:
 1367 007a 6C6F6E67 		.ascii	"long int\000"
 1367      20696E74 
 1367      00
 1368              	.LASF19:
 1369 0083 7364496E 		.ascii	"sdInit\000"
 1369      697400
 1370              	.LASF3:
 1371 008a 43484152 		.ascii	"CHAR\000"
 1371      00
 1372              	.LASF20:
 1373 008f 72657370 		.ascii	"resp\000"
 1373      00
 1374              	.LASF23:
 1375 0094 474E5520 		.ascii	"GNU C 4.1.1\000"
 1375      4320342E 
 1375      312E3100 
 1376              	.LASF7:
 1377 00a0 73686F72 		.ascii	"short unsigned int\000"
 1377      7420756E 
 1377      7369676E 
 1377      65642069 
 1377      6E7400
 1378              	.LASF1:
 1379 00b3 7369676E 		.ascii	"signed char\000"
 1379      65642063 
 1379      68617200 
 1380              	.LASF21:
 1381 00bf 72657370 		.ascii	"resp8b\000"
 1381      386200
 1382              	.LASF4:
 1383 00c6 42595445 		.ascii	"BYTE\000"
 1383      00
 1384              	.LASF5:
 1385 00cb 53484F52 		.ascii	"SHORT\000"
 1385      5400
 1386              	.LASF15:
 1387 00d1 76616C75 		.ascii	"value\000"
 1387      6500
 1388              	.LASF18:
 1389 00d7 73645374 		.ascii	"sdState\000"
 1389      61746500 
ARM GAS  /cygdrive/c/DOCUME~1/mkwapisz/LOCALS~1/Temp/cc8t7ksv.s 			page 30


 1390              	.LASF6:
 1391 00df 73686F72 		.ascii	"short int\000"
 1391      7420696E 
 1391      7400
 1392              	.LASF25:
 1393 00e9 2F637967 		.ascii	"/cygdrive/z/IntergatedSystems\000"
 1393      64726976 
 1393      652F7A2F 
 1393      496E7465 
 1393      72676174 
 1394              		.ident	"GCC: (GNU) 4.1.1"
ARM GAS  /cygdrive/c/DOCUME~1/mkwapisz/LOCALS~1/Temp/cc8t7ksv.s 			page 31


DEFINED SYMBOLS
                            *ABS*:00000000 sd.c
/cygdrive/c/DOCUME~1/mkwapisz/LOCALS~1/Temp/cc8t7ksv.s:1      .text:00000000 $t
/cygdrive/c/DOCUME~1/mkwapisz/LOCALS~1/Temp/cc8t7ksv.s:16     .text:00000000 sdResp8bError
/cygdrive/c/DOCUME~1/mkwapisz/LOCALS~1/Temp/cc8t7ksv.s:32     .text:00000004 sdResp8b
/cygdrive/c/DOCUME~1/mkwapisz/LOCALS~1/Temp/cc8t7ksv.s:78     .text:00000040 $d
                            *COM*:00000001 i
                            *COM*:00000001 resp8b
/cygdrive/c/DOCUME~1/mkwapisz/LOCALS~1/Temp/cc8t7ksv.s:89     .text:00000050 sdResp16b
/cygdrive/c/DOCUME~1/mkwapisz/LOCALS~1/Temp/cc8t7ksv.s:86     .text:00000050 $t
/cygdrive/c/DOCUME~1/mkwapisz/LOCALS~1/Temp/cc8t7ksv.s:129    .text:00000084 $d
                            *COM*:00000002 resp16
/cygdrive/c/DOCUME~1/mkwapisz/LOCALS~1/Temp/cc8t7ksv.s:139    .text:00000090 sdCommand
/cygdrive/c/DOCUME~1/mkwapisz/LOCALS~1/Temp/cc8t7ksv.s:136    .text:00000090 $t
/cygdrive/c/DOCUME~1/mkwapisz/LOCALS~1/Temp/cc8t7ksv.s:227    .text:000000fc $d
/cygdrive/c/DOCUME~1/mkwapisz/LOCALS~1/Temp/cc8t7ksv.s:266    .text:00000104 sdState
/cygdrive/c/DOCUME~1/mkwapisz/LOCALS~1/Temp/cc8t7ksv.s:263    .text:00000104 $t
/cygdrive/c/DOCUME~1/mkwapisz/LOCALS~1/Temp/cc8t7ksv.s:385    .text:00000184 $d
/cygdrive/c/DOCUME~1/mkwapisz/LOCALS~1/Temp/cc8t7ksv.s:401    .text:000001a8 sdInit
/cygdrive/c/DOCUME~1/mkwapisz/LOCALS~1/Temp/cc8t7ksv.s:398    .text:000001a8 $t

UNDEFINED SYMBOLS
spiSend
simplePrintf
