ARM GAS  /cygdrive/c/DOCUME~1/mkwapisz/LOCALS~1/Temp/ccJ0fL95.s 			page 1


   1              		.code	16
   2              		.file	"timer.c"
   3              		.section	.debug_abbrev,"",%progbits
   4              	.Ldebug_abbrev0:
   5              		.section	.debug_info,"",%progbits
   6              	.Ldebug_info0:
   7              		.section	.debug_line,"",%progbits
   8              	.Ldebug_line0:
   9 0000 5D000000 		.text
   9      02004200 
   9      00000201 
   9      FB0E0D00 
   9      01010101 
  10              	.Ltext0:
  11              		.align	2
  12              		.global	sleep
  13              		.code 16
  14              		.thumb_func
  15              		.type	sleep, %function
  16              	sleep:
  17              	.LFB2:
  18              		.file 1 "timer/timer.c"
   1:timer/timer.c **** #include "timer.h"
   2:timer/timer.c **** 
   3:timer/timer.c **** 
   4:timer/timer.c **** /*Delays program for passed amount of microseconds*/
   5:timer/timer.c **** void sleep(tU32 delayInUs){
  19              		.loc 1 5 0
  20              	.LVL0:
   6:timer/timer.c ****     T1TCR = 0x02;          //stop and reset timer 1
  21              		.loc 1 6 0
  22 0000 0D49     		ldr	r1, .L6
  23 0002 0223     		mov	r3, #2
  24 0004 0B60     		str	r3, [r1]
   7:timer/timer.c ****     T1PR  = 0x00;          //set prescaler to zero
  25              		.loc 1 7 0
  26 0006 0D4B     		ldr	r3, .L6+4
  27 0008 0022     		mov	r2, #0
  28 000a 1A60     		str	r2, [r3]
   8:timer/timer.c ****     //set match register to desire microseconds delay
   9:timer/timer.c **** 	T1MR0 = (delayInUs - 36)*
  29              		.loc 1 9 0
  30 000c 0301     		lsl	r3, r0, #4
  31 000e 0C4A     		ldr	r2, .L6+8
  32 0010 1B1A     		sub	r3, r3, r0
  33 0012 9B00     		lsl	r3, r3, #2
  34 0014 9B18     		add	r3, r3, r2
  35 0016 0B4A     		ldr	r2, .L6+12
  36 0018 1360     		str	r3, [r2]
  10:timer/timer.c **** 			((CRYSTAL_FREQUENCY * PLL_FACTOR)/ (1000000 * VPBDIV_FACTOR));
  11:timer/timer.c ****     T1IR  = 0xff;          //reset all interrrupt flags
  37              		.loc 1 11 0
  38 001a 0B4B     		ldr	r3, .L6+16
  39 001c FF22     		mov	r2, #255
  40 001e 1A60     		str	r2, [r3]
  12:timer/timer.c ****     T1MCR = 0x04;          //set match behavior to stop timer on match
  41              		.loc 1 12 0
ARM GAS  /cygdrive/c/DOCUME~1/mkwapisz/LOCALS~1/Temp/ccJ0fL95.s 			page 2


  42 0020 1433     		add	r3, r3, #20
  43 0022 0422     		mov	r2, #4
  44 0024 1A60     		str	r2, [r3]
  13:timer/timer.c ****     T1TCR = 0x01;          //start timer
  45              		.loc 1 13 0
  46 0026 0123     		mov	r3, #1
  47              		.loc 1 5 0
  48              		@ lr needed for prologue
  49              		.loc 1 13 0
  50 0028 0B60     		str	r3, [r1]
  51 002a 00E0     		b	.L2
  52              	.L3:
  14:timer/timer.c **** 
  15:timer/timer.c ****     //wait until delay time has elapsed
  16:timer/timer.c ****     //if time has elapsed T1TCR will be 0x00(disabled)
  17:timer/timer.c **** 	while (T1TCR & 0x01) asm("NOP");
  53              		.loc 1 17 0
  54 002c C046     		NOP
  55              		.code	16
  56              	.L2:
  57 002e 024B     		ldr	r3, .L6
  58 0030 1B68     		ldr	r3, [r3]
  59 0032 DA07     		lsl	r2, r3, #31
  60 0034 FAD4     		bmi	.L3
  18:timer/timer.c **** }
  61              		.loc 1 18 0
  62              		@ sp needed for prologue
  63 0036 7047     		bx	lr
  64              	.L7:
  65              		.align	2
  66              	.L6:
  67 0038 048000E0 		.word	-536838140
  68 003c 0C8000E0 		.word	-536838132
  69 0040 90F7FFFF 		.word	-2160
  70 0044 188000E0 		.word	-536838120
  71 0048 008000E0 		.word	-536838144
  72              	.LFE2:
  73              		.size	sleep, .-sleep
  74              		.section	.debug_frame,"",%progbits
  75              	.Lframe0:
  76 0000 0C000000 		.4byte	.LECIE0-.LSCIE0
  77              	.LSCIE0:
  78 0004 FFFFFFFF 		.4byte	0xffffffff
  79 0008 01       		.byte	0x1
  80 0009 00       		.ascii	"\000"
  81 000a 01       		.uleb128 0x1
  82 000b 7C       		.sleb128 -4
  83 000c 0E       		.byte	0xe
  84 000d 0C       		.byte	0xc
  85 000e 0D       		.uleb128 0xd
  86 000f 00       		.uleb128 0x0
  87              		.align	2
  88              	.LECIE0:
  89              	.LSFDE0:
  90 0010 0C000000 		.4byte	.LEFDE0-.LASFDE0
  91              	.LASFDE0:
  92 0014 00000000 		.4byte	.Lframe0
ARM GAS  /cygdrive/c/DOCUME~1/mkwapisz/LOCALS~1/Temp/ccJ0fL95.s 			page 3


  93 0018 00000000 		.4byte	.LFB2
  94 001c 4C000000 		.4byte	.LFE2-.LFB2
  95              		.align	2
  96              	.LEFDE0:
  97              		.file 2 "timer/../startup/general.h"
  98              		.text
  99              	.Letext0:
 100              		.section	.debug_info
 101 0000 94000000 		.4byte	0x94
 102 0004 0200     		.2byte	0x2
 103 0006 00000000 		.4byte	.Ldebug_abbrev0
 104 000a 04       		.byte	0x4
 105 000b 01       		.uleb128 0x1
 106 000c 00000000 		.4byte	.Ldebug_line0
 107 0010 4C000000 		.4byte	.Letext0
 108 0014 00000000 		.4byte	.Ltext0
 109 0018 8D000000 		.4byte	.LASF9
 110 001c 01       		.byte	0x1
 111 001d 0E000000 		.4byte	.LASF10
 112 0021 41000000 		.4byte	.LASF11
 113 0025 02       		.uleb128 0x2
 114 0026 BF000000 		.4byte	.LASF0
 115 002a 01       		.byte	0x1
 116 002b 06       		.byte	0x6
 117 002c 02       		.uleb128 0x2
 118 002d 00000000 		.4byte	.LASF1
 119 0031 01       		.byte	0x1
 120 0032 08       		.byte	0x8
 121 0033 02       		.uleb128 0x2
 122 0034 AC000000 		.4byte	.LASF2
 123 0038 02       		.byte	0x2
 124 0039 05       		.byte	0x5
 125 003a 02       		.uleb128 0x2
 126 003b 1C000000 		.4byte	.LASF3
 127 003f 02       		.byte	0x2
 128 0040 07       		.byte	0x7
 129 0041 02       		.uleb128 0x2
 130 0042 B6000000 		.4byte	.LASF4
 131 0046 04       		.byte	0x4
 132 0047 05       		.byte	0x5
 133 0048 02       		.uleb128 0x2
 134 0049 2F000000 		.4byte	.LASF5
 135 004d 04       		.byte	0x4
 136 004e 07       		.byte	0x7
 137 004f 02       		.uleb128 0x2
 138 0050 99000000 		.4byte	.LASF6
 139 0054 08       		.byte	0x8
 140 0055 05       		.byte	0x5
 141 0056 02       		.uleb128 0x2
 142 0057 6C000000 		.4byte	.LASF7
 143 005b 08       		.byte	0x8
 144 005c 07       		.byte	0x7
 145 005d 03       		.uleb128 0x3
 146 005e 696E7400 		.ascii	"int\000"
 147 0062 04       		.byte	0x4
 148 0063 05       		.byte	0x5
 149 0064 02       		.uleb128 0x2
ARM GAS  /cygdrive/c/DOCUME~1/mkwapisz/LOCALS~1/Temp/ccJ0fL95.s 			page 4


 150 0065 5F000000 		.4byte	.LASF8
 151 0069 04       		.byte	0x4
 152 006a 07       		.byte	0x7
 153 006b 04       		.uleb128 0x4
 154 006c A7000000 		.4byte	.LASF12
 155 0070 02       		.byte	0x2
 156 0071 48       		.byte	0x48
 157 0072 64000000 		.4byte	0x64
 158 0076 05       		.uleb128 0x5
 159 0077 01       		.byte	0x1
 160 0078 CB000000 		.4byte	.LASF13
 161 007c 01       		.byte	0x1
 162 007d 05       		.byte	0x5
 163 007e 01       		.byte	0x1
 164 007f 00000000 		.4byte	.LFB2
 165 0083 4C000000 		.4byte	.LFE2
 166 0087 01       		.byte	0x1
 167 0088 5D       		.byte	0x5d
 168 0089 06       		.uleb128 0x6
 169 008a 83000000 		.4byte	.LASF14
 170 008e 01       		.byte	0x1
 171 008f 05       		.byte	0x5
 172 0090 6B000000 		.4byte	0x6b
 173 0094 01       		.byte	0x1
 174 0095 50       		.byte	0x50
 175 0096 00       		.byte	0x0
 176 0097 00       		.byte	0x0
 177              		.section	.debug_abbrev
 178 0000 01       		.uleb128 0x1
 179 0001 11       		.uleb128 0x11
 180 0002 01       		.byte	0x1
 181 0003 10       		.uleb128 0x10
 182 0004 06       		.uleb128 0x6
 183 0005 12       		.uleb128 0x12
 184 0006 01       		.uleb128 0x1
 185 0007 11       		.uleb128 0x11
 186 0008 01       		.uleb128 0x1
 187 0009 25       		.uleb128 0x25
 188 000a 0E       		.uleb128 0xe
 189 000b 13       		.uleb128 0x13
 190 000c 0B       		.uleb128 0xb
 191 000d 03       		.uleb128 0x3
 192 000e 0E       		.uleb128 0xe
 193 000f 1B       		.uleb128 0x1b
 194 0010 0E       		.uleb128 0xe
 195 0011 00       		.byte	0x0
 196 0012 00       		.byte	0x0
 197 0013 02       		.uleb128 0x2
 198 0014 24       		.uleb128 0x24
 199 0015 00       		.byte	0x0
 200 0016 03       		.uleb128 0x3
 201 0017 0E       		.uleb128 0xe
 202 0018 0B       		.uleb128 0xb
 203 0019 0B       		.uleb128 0xb
 204 001a 3E       		.uleb128 0x3e
 205 001b 0B       		.uleb128 0xb
 206 001c 00       		.byte	0x0
ARM GAS  /cygdrive/c/DOCUME~1/mkwapisz/LOCALS~1/Temp/ccJ0fL95.s 			page 5


 207 001d 00       		.byte	0x0
 208 001e 03       		.uleb128 0x3
 209 001f 24       		.uleb128 0x24
 210 0020 00       		.byte	0x0
 211 0021 03       		.uleb128 0x3
 212 0022 08       		.uleb128 0x8
 213 0023 0B       		.uleb128 0xb
 214 0024 0B       		.uleb128 0xb
 215 0025 3E       		.uleb128 0x3e
 216 0026 0B       		.uleb128 0xb
 217 0027 00       		.byte	0x0
 218 0028 00       		.byte	0x0
 219 0029 04       		.uleb128 0x4
 220 002a 16       		.uleb128 0x16
 221 002b 00       		.byte	0x0
 222 002c 03       		.uleb128 0x3
 223 002d 0E       		.uleb128 0xe
 224 002e 3A       		.uleb128 0x3a
 225 002f 0B       		.uleb128 0xb
 226 0030 3B       		.uleb128 0x3b
 227 0031 0B       		.uleb128 0xb
 228 0032 49       		.uleb128 0x49
 229 0033 13       		.uleb128 0x13
 230 0034 00       		.byte	0x0
 231 0035 00       		.byte	0x0
 232 0036 05       		.uleb128 0x5
 233 0037 2E       		.uleb128 0x2e
 234 0038 01       		.byte	0x1
 235 0039 3F       		.uleb128 0x3f
 236 003a 0C       		.uleb128 0xc
 237 003b 03       		.uleb128 0x3
 238 003c 0E       		.uleb128 0xe
 239 003d 3A       		.uleb128 0x3a
 240 003e 0B       		.uleb128 0xb
 241 003f 3B       		.uleb128 0x3b
 242 0040 0B       		.uleb128 0xb
 243 0041 27       		.uleb128 0x27
 244 0042 0C       		.uleb128 0xc
 245 0043 11       		.uleb128 0x11
 246 0044 01       		.uleb128 0x1
 247 0045 12       		.uleb128 0x12
 248 0046 01       		.uleb128 0x1
 249 0047 40       		.uleb128 0x40
 250 0048 0A       		.uleb128 0xa
 251 0049 00       		.byte	0x0
 252 004a 00       		.byte	0x0
 253 004b 06       		.uleb128 0x6
 254 004c 05       		.uleb128 0x5
 255 004d 00       		.byte	0x0
 256 004e 03       		.uleb128 0x3
 257 004f 0E       		.uleb128 0xe
 258 0050 3A       		.uleb128 0x3a
 259 0051 0B       		.uleb128 0xb
 260 0052 3B       		.uleb128 0x3b
 261 0053 0B       		.uleb128 0xb
 262 0054 49       		.uleb128 0x49
 263 0055 13       		.uleb128 0x13
ARM GAS  /cygdrive/c/DOCUME~1/mkwapisz/LOCALS~1/Temp/ccJ0fL95.s 			page 6


 264 0056 02       		.uleb128 0x2
 265 0057 0A       		.uleb128 0xa
 266 0058 00       		.byte	0x0
 267 0059 00       		.byte	0x0
 268 005a 00       		.byte	0x0
 269              		.section	.debug_pubnames,"",%progbits
 270 0000 18000000 		.4byte	0x18
 271 0004 0200     		.2byte	0x2
 272 0006 00000000 		.4byte	.Ldebug_info0
 273 000a 98000000 		.4byte	0x98
 274 000e 76000000 		.4byte	0x76
 275 0012 736C6565 		.ascii	"sleep\000"
 275      7000
 276 0018 00000000 		.4byte	0x0
 277              		.section	.debug_aranges,"",%progbits
 278 0000 1C000000 		.4byte	0x1c
 279 0004 0200     		.2byte	0x2
 280 0006 00000000 		.4byte	.Ldebug_info0
 281 000a 04       		.byte	0x4
 282 000b 00       		.byte	0x0
 283 000c 0000     		.2byte	0x0
 284 000e 0000     		.2byte	0x0
 285 0010 00000000 		.4byte	.Ltext0
 286 0014 4C000000 		.4byte	.Letext0-.Ltext0
 287 0018 00000000 		.4byte	0x0
 288 001c 00000000 		.4byte	0x0
 289              		.section	.debug_str,"MS",%progbits,1
 290              	.LASF1:
 291 0000 756E7369 		.ascii	"unsigned char\000"
 291      676E6564 
 291      20636861 
 291      7200
 292              	.LASF10:
 293 000e 74696D65 		.ascii	"timer/timer.c\000"
 293      722F7469 
 293      6D65722E 
 293      6300
 294              	.LASF3:
 295 001c 73686F72 		.ascii	"short unsigned int\000"
 295      7420756E 
 295      7369676E 
 295      65642069 
 295      6E7400
 296              	.LASF5:
 297 002f 6C6F6E67 		.ascii	"long unsigned int\000"
 297      20756E73 
 297      69676E65 
 297      6420696E 
 297      7400
 298              	.LASF11:
 299 0041 2F637967 		.ascii	"/cygdrive/z/IntergatedSystems\000"
 299      64726976 
 299      652F7A2F 
 299      496E7465 
 299      72676174 
 300              	.LASF8:
 301 005f 756E7369 		.ascii	"unsigned int\000"
ARM GAS  /cygdrive/c/DOCUME~1/mkwapisz/LOCALS~1/Temp/ccJ0fL95.s 			page 7


 301      676E6564 
 301      20696E74 
 301      00
 302              	.LASF7:
 303 006c 6C6F6E67 		.ascii	"long long unsigned int\000"
 303      206C6F6E 
 303      6720756E 
 303      7369676E 
 303      65642069 
 304              	.LASF14:
 305 0083 64656C61 		.ascii	"delayInUs\000"
 305      79496E55 
 305      7300
 306              	.LASF9:
 307 008d 474E5520 		.ascii	"GNU C 4.1.1\000"
 307      4320342E 
 307      312E3100 
 308              	.LASF6:
 309 0099 6C6F6E67 		.ascii	"long long int\000"
 309      206C6F6E 
 309      6720696E 
 309      7400
 310              	.LASF12:
 311 00a7 74553332 		.ascii	"tU32\000"
 311      00
 312              	.LASF2:
 313 00ac 73686F72 		.ascii	"short int\000"
 313      7420696E 
 313      7400
 314              	.LASF4:
 315 00b6 6C6F6E67 		.ascii	"long int\000"
 315      20696E74 
 315      00
 316              	.LASF0:
 317 00bf 7369676E 		.ascii	"signed char\000"
 317      65642063 
 317      68617200 
 318              	.LASF13:
 319 00cb 736C6565 		.ascii	"sleep\000"
 319      7000
 320              		.ident	"GCC: (GNU) 4.1.1"
ARM GAS  /cygdrive/c/DOCUME~1/mkwapisz/LOCALS~1/Temp/ccJ0fL95.s 			page 8


DEFINED SYMBOLS
                            *ABS*:00000000 timer.c
/cygdrive/c/DOCUME~1/mkwapisz/LOCALS~1/Temp/ccJ0fL95.s:1      .text:00000000 $t
/cygdrive/c/DOCUME~1/mkwapisz/LOCALS~1/Temp/ccJ0fL95.s:16     .text:00000000 sleep
/cygdrive/c/DOCUME~1/mkwapisz/LOCALS~1/Temp/ccJ0fL95.s:67     .text:00000038 $d

NO UNDEFINED SYMBOLS
