ARM GAS  /cygdrive/c/DOCUME~1/mkwapisz/LOCALS~1/Temp/ccRGl3Ms.s 			page 1


   1              		.code	16
   2              		.file	"hscore.c"
   3              		.section	.debug_abbrev,"",%progbits
   4              	.Ldebug_abbrev0:
   5              		.section	.debug_info,"",%progbits
   6              	.Ldebug_info0:
   7              		.section	.debug_line,"",%progbits
   8              	.Ldebug_line0:
   9 0000 E0000000 		.text
   9      02007400 
   9      00000201 
   9      FB0E0D00 
   9      01010101 
  10              	.Ltext0:
  11              		.section	.rodata.str1.4,"aMS",%progbits,1
  12              		.align	2
  13              	.LC1:
  14 0000 53445B61 		.ascii	"SD[action=%s =>> status=%s]\012\000"
  14      6374696F 
  14      6E3D2573 
  14      203D3E3E 
  14      20737461 
  15 001d 000000   		.align	2
  16              	.LC3:
  17 0020 46525F4F 		.ascii	"FR_OK\000"
  17      4B00
  18 0026 0000     		.align	2
  19              	.LC5:
  20 0028 46525F44 		.ascii	"FR_DISK_ERR\000"
  20      49534B5F 
  20      45525200 
  21              		.align	2
  22              	.LC7:
  23 0034 46525F4E 		.ascii	"FR_NOT_READY\000"
  23      4F545F52 
  23      45414459 
  23      00
  24 0041 000000   		.align	2
  25              	.LC9:
  26 0044 46525F4E 		.ascii	"FR_NO_FILE\000"
  26      4F5F4649 
  26      4C4500
  27 004f 00       		.align	2
  28              	.LC11:
  29 0050 46525F4E 		.ascii	"FR_NO_PATH\000"
  29      4F5F5041 
  29      544800
  30 005b 00       		.align	2
  31              	.LC13:
  32 005c 46525F4E 		.ascii	"FR_NOT_OPENED\000"
  32      4F545F4F 
  32      50454E45 
  32      4400
  33 006a 0000     		.align	2
  34              	.LC15:
  35 006c 46525F4E 		.ascii	"FR_NOT_ENABLED\000"
  35      4F545F45 
ARM GAS  /cygdrive/c/DOCUME~1/mkwapisz/LOCALS~1/Temp/ccRGl3Ms.s 			page 2


  35      4E41424C 
  35      454400
  36 007b 00       		.align	2
  37              	.LC17:
  38 007c 46525F4E 		.ascii	"FR_NO_FILESYSTEM\000"
  38      4F5F4649 
  38      4C455359 
  38      5354454D 
  38      00
  39              		.text
  40              		.align	2
  41              		.code 16
  42              		.thumb_func
  43              		.type	printStatus, %function
  44              	printStatus:
  45              	.LFB2:
  46              		.file 1 "hscore/hscore.c"
   1:hscore/hscore.c **** /*
   2:hscore/hscore.c ****  * hscore.c
   3:hscore/hscore.c ****  *
   4:hscore/hscore.c ****  *  Created on: 05-11-2013
   5:hscore/hscore.c ****  *      Author: embedded
   6:hscore/hscore.c ****  */
   7:hscore/hscore.c **** 
   8:hscore/hscore.c **** #include "../startup/consol.h"
   9:hscore/hscore.c **** #include "../startup/printf_P.h"
  10:hscore/hscore.c **** #include <string.h>
  11:hscore/hscore.c **** #include "hscore.h"
  12:hscore/hscore.c **** 
  13:hscore/hscore.c **** static tS8 buffer[512 * 1]; // sector
  14:hscore/hscore.c **** static FATFS fatFileSystem;
  15:hscore/hscore.c **** static DWORD sdStatus;
  16:hscore/hscore.c **** 
  17:hscore/hscore.c **** /**
  18:hscore/hscore.c ****  * Small utility method that prints on the console
  19:hscore/hscore.c ****  * message appropriate to received status.
  20:hscore/hscore.c ****  */
  21:hscore/hscore.c **** static void printStatus(FRESULT fc, const char *action) {
  47              		.loc 1 21 0
  48 0000 00B5     		push	{lr}
  49              	.LCFI0:
  50              	.LVL0:
  22:hscore/hscore.c **** 	switch (fc) {
  51              		.loc 1 22 0
  52 0002 0728     		cmp	r0, #7
  53 0004 15D8     		bhi	.L12
  54 0006 0C4A     		ldr	r2, .L14
  55 0008 8300     		lsl	r3, r0, #2
  56 000a 9B58     		ldr	r3, [r3, r2]
  57 000c 0B48     		ldr	r0, .L14+4
  58              	.LVL1:
  59 000e 9F46     		mov	pc, r3
  60              		.section	.rodata
  61              		.align	2
  62              		.align	2
  63              	.L11:
  64 0000 10000000 		.word	.L3
ARM GAS  /cygdrive/c/DOCUME~1/mkwapisz/LOCALS~1/Temp/ccRGl3Ms.s 			page 3


  65 0004 14000000 		.word	.L4
  66 0008 18000000 		.word	.L5
  67 000c 1C000000 		.word	.L6
  68 0010 20000000 		.word	.L7
  69 0014 24000000 		.word	.L8
  70 0018 28000000 		.word	.L9
  71 001c 2C000000 		.word	.L10
  72              		.text
  73              	.L3:
  23:hscore/hscore.c **** 	case FR_OK:
  24:hscore/hscore.c **** 		printf("SD[action=%s =>> status=%s]\n", action, "FR_OK");
  74              		.loc 1 24 0
  75 0010 0B4A     		ldr	r2, .L14+8
  76 0012 0CE0     		b	.L13
  77              	.L4:
  25:hscore/hscore.c **** 		break;
  26:hscore/hscore.c **** 	case FR_DISK_ERR:
  27:hscore/hscore.c **** 		printf("SD[action=%s =>> status=%s]\n", action, "FR_DISK_ERR");
  78              		.loc 1 27 0
  79 0014 0B4A     		ldr	r2, .L14+12
  80 0016 0AE0     		b	.L13
  81              	.L5:
  28:hscore/hscore.c **** 		break;
  29:hscore/hscore.c **** 	case FR_NOT_READY:
  30:hscore/hscore.c **** 		printf("SD[action=%s =>> status=%s]\n", action, "FR_NOT_READY");
  82              		.loc 1 30 0
  83 0018 0B4A     		ldr	r2, .L14+16
  84 001a 08E0     		b	.L13
  85              	.L6:
  31:hscore/hscore.c **** 		break;
  32:hscore/hscore.c **** 	case FR_NO_FILE:
  33:hscore/hscore.c **** 		printf("SD[action=%s =>> status=%s]\n", action, "FR_NO_FILE");
  86              		.loc 1 33 0
  87 001c 0B4A     		ldr	r2, .L14+20
  88 001e 06E0     		b	.L13
  89              	.L7:
  34:hscore/hscore.c **** 		break;
  35:hscore/hscore.c **** 	case FR_NO_PATH:
  36:hscore/hscore.c **** 		printf("SD[action=%s =>> status=%s]\n", action, "FR_NO_PATH");
  90              		.loc 1 36 0
  91 0020 0B4A     		ldr	r2, .L14+24
  92 0022 04E0     		b	.L13
  93              	.L8:
  37:hscore/hscore.c **** 		break;
  38:hscore/hscore.c **** 	case FR_NOT_OPENED:
  39:hscore/hscore.c **** 		printf("SD[action=%s =>> status=%s]\n", action, "FR_NOT_OPENED");
  94              		.loc 1 39 0
  95 0024 0B4A     		ldr	r2, .L14+28
  96 0026 02E0     		b	.L13
  97              	.L9:
  40:hscore/hscore.c **** 		break;
  41:hscore/hscore.c **** 	case FR_NOT_ENABLED:
  42:hscore/hscore.c **** 		printf("SD[action=%s =>> status=%s]\n", action, "FR_NOT_ENABLED");
  98              		.loc 1 42 0
  99 0028 0B4A     		ldr	r2, .L14+32
 100 002a 00E0     		b	.L13
 101              	.L10:
ARM GAS  /cygdrive/c/DOCUME~1/mkwapisz/LOCALS~1/Temp/ccRGl3Ms.s 			page 4


  43:hscore/hscore.c **** 		break;
  44:hscore/hscore.c **** 	case FR_NO_FILESYSTEM:
  45:hscore/hscore.c **** 		printf("SD[action=%s =>> status=%s]\n", action, "FR_NO_FILESYSTEM");
 102              		.loc 1 45 0
 103 002c 0B4A     		ldr	r2, .L14+36
 104              	.L13:
 105 002e FFF7FEFF 		bl	simplePrintf
 106              	.LVL2:
 107              	.LVL3:
 108              	.L12:
  46:hscore/hscore.c **** 		break;
  47:hscore/hscore.c **** 	}
  48:hscore/hscore.c **** }
 109              		.loc 1 48 0
 110              		@ sp needed for prologue
 111 0032 01BC     		pop	{r0}
 112 0034 0047     		bx	r0
 113              	.L15:
 114 0036 0000     		.align	2
 115              	.L14:
 116 0038 00000000 		.word	.L11
 117 003c 00000000 		.word	.LC1
 118 0040 20000000 		.word	.LC3
 119 0044 28000000 		.word	.LC5
 120 0048 34000000 		.word	.LC7
 121 004c 44000000 		.word	.LC9
 122 0050 50000000 		.word	.LC11
 123 0054 5C000000 		.word	.LC13
 124 0058 6C000000 		.word	.LC15
 125 005c 7C000000 		.word	.LC17
 126              	.LFE2:
 127              		.size	printStatus, .-printStatus
 128              		.section	.rodata.str1.4
 129 008d 000000   		.align	2
 130              	.LC19:
 131 0090 3D3E5344 		.ascii	"=>SD mounting...\012\000"
 131      206D6F75 
 131      6E74696E 
 131      672E2E2E 
 131      0A00
 132 00a2 0000     		.align	2
 133              	.LC23:
 134 00a4 4661696C 		.ascii	"Failed to mount SD\000"
 134      65642074 
 134      6F206D6F 
 134      756E7420 
 134      534400
 135 00b7 00       		.align	2
 136              	.LC25:
 137 00b8 5344206E 		.ascii	"SD not ready...\012\000"
 137      6F742072 
 137      65616479 
 137      2E2E2E0A 
 137      00
 138 00c9 000000   		.align	2
 139              	.LC27:
 140 00cc 46696C65 		.ascii	"File system error...\012\000"
ARM GAS  /cygdrive/c/DOCUME~1/mkwapisz/LOCALS~1/Temp/ccRGl3Ms.s 			page 5


 140      20737973 
 140      74656D20 
 140      6572726F 
 140      722E2E2E 
 141 00e2 0000     		.align	2
 142              	.LC29:
 143 00e4 53442072 		.ascii	"SD ready... :)\012\000"
 143      65616479 
 143      2E2E2E20 
 143      3A290A00 
 144              		.align	2
 145              	.LC31:
 146 00f4 41636365 		.ascii	"Accessing SD card and locating repository\012\000"
 146      7373696E 
 146      67205344 
 146      20636172 
 146      6420616E 
 147 011f 00       		.align	2
 148              	.LC33:
 149 0120 68732E74 		.ascii	"hs.txt\000"
 149      787400
 150 0127 00       		.align	2
 151              	.LC35:
 152 0128 6F70656E 		.ascii	"openFile\000"
 152      46696C65 
 152      00
 153 0131 000000   		.align	2
 154              	.LC38:
 155 0134 72656164 		.ascii	"readFile\000"
 155      46696C65 
 155      00
 156 013d 000000   		.align	2
 157              	.LC40:
 158 0140 62797465 		.ascii	"bytesRead %x\012\000"
 158      73526561 
 158      64202578 
 158      0A00
 159 014e 0000     		.align	2
 160              	.LC42:
 161 0150 496E6974 		.ascii	"Initialized HSCore module\012\000"
 161      69616C69 
 161      7A656420 
 161      4853436F 
 161      7265206D 
 162 016b 00       		.align	2
 163              	.LC44:
 164 016c 4853434F 		.ascii	"HSCORE => Reading LAST-SCORE\012\000"
 164      5245203D 
 164      3E205265 
 164      6164696E 
 164      67204C41 
 165 018a 0000     		.align	2
 166              	.LC46:
 167 018c 4853434F 		.ascii	"HSCORE => FROM BUFF[%d]=%s\012\000"
 167      5245203D 
 167      3E204652 
 167      4F4D2042 
ARM GAS  /cygdrive/c/DOCUME~1/mkwapisz/LOCALS~1/Temp/ccRGl3Ms.s 			page 6


 167      5546465B 
 168              		.align	2
 169              	.LC48:
 170 01a8 3D00     		.ascii	"=\000"
 171 01aa 0000     		.align	2
 172              	.LC50:
 173 01ac 4853434F 		.ascii	"HSCORE => LAST-SCORE > Player=%s > Score=%d\012\000"
 173      5245203D 
 173      3E204C41 
 173      53542D53 
 173      434F5245 
 174 01d9 000000   		.align	2
 175              	.LC52:
 176 01dc 756D6F75 		.ascii	"umount\000"
 176      6E7400
 177 01e3 00       		.align	2
 178              	.LC54:
 179 01e4 4853434F 		.ascii	"HSCORE => Device released...duhhhhh\012\000"
 179      5245203D 
 179      3E204465 
 179      76696365 
 179      2072656C 
 180 0209 000000   		.align	2
 181              	.LC56:
 182 020c 46696C65 		.ascii	"File not found  - creating\012\000"
 182      206E6F74 
 182      20666F75 
 182      6E642020 
 182      2D206372 
 183              		.align	2
 184              	.LC58:
 185 0228 4661696C 		.ascii	"Failed to initialize HSCore module\012\000"
 185      65642074 
 185      6F20696E 
 185      69746961 
 185      6C697A65 
 186              		.text
 187              		.align	2
 188              		.global	getLastHScore
 189              		.code 16
 190              		.thumb_func
 191              		.type	getLastHScore, %function
 192              	getLastHScore:
 193              	.LFB6:
  49:hscore/hscore.c **** 
  50:hscore/hscore.c **** /**
  51:hscore/hscore.c ****  * Executes actual mounting of the SD card thanks to pf_mount
  52:hscore/hscore.c ****  */
  53:hscore/hscore.c **** static tBool initSD(void) {
  54:hscore/hscore.c **** 	printf("=>SD mounting...\n");
  55:hscore/hscore.c **** 	sdStatus = pf_mount(&fatFileSystem);
  56:hscore/hscore.c **** 	if (sdStatus) {
  57:hscore/hscore.c **** 		printf("Failed to mount SD");
  58:hscore/hscore.c **** 		if (FR_DISK_ERR == sdStatus || FR_NOT_READY == sdStatus) {
  59:hscore/hscore.c **** 			printf("SD not ready...\n");
  60:hscore/hscore.c **** 		} else if (FR_NO_FILESYSTEM == sdStatus) {
  61:hscore/hscore.c **** 			printf("File system error...\n");
ARM GAS  /cygdrive/c/DOCUME~1/mkwapisz/LOCALS~1/Temp/ccRGl3Ms.s 			page 7


  62:hscore/hscore.c **** 		}
  63:hscore/hscore.c **** 	} else {
  64:hscore/hscore.c **** 		if (sdStatus == FR_OK) {
  65:hscore/hscore.c **** 			printf("SD ready... :)\n");
  66:hscore/hscore.c **** 		}
  67:hscore/hscore.c **** 	}
  68:hscore/hscore.c **** 	if (sdStatus == FR_OK)
  69:hscore/hscore.c **** 		return TRUE;
  70:hscore/hscore.c **** 	else
  71:hscore/hscore.c **** 		return FALSE;
  72:hscore/hscore.c **** }
  73:hscore/hscore.c **** 
  74:hscore/hscore.c **** /**
  75:hscore/hscore.c ****  * initSD do:
  76:hscore/hscore.c ****  * 1. mounts the file system, hence SD card
  77:hscore/hscore.c ****  * 2. file opens the
  78:hscore/hscore.c ****  * 3. saves file content to the buffer
  79:hscore/hscore.c ****  * @returns true if mounting was successful
  80:hscore/hscore.c ****  */
  81:hscore/hscore.c **** static tBool mountRepo(void) {
  82:hscore/hscore.c **** 	if (initSD() == TRUE) {
  83:hscore/hscore.c **** 		FRESULT fc;
  84:hscore/hscore.c **** 		tU16 bytesRead = 0;
  85:hscore/hscore.c **** 		tBool result = TRUE;
  86:hscore/hscore.c **** 
  87:hscore/hscore.c **** 		printf("Accessing SD card and locating repository\n");
  88:hscore/hscore.c **** 
  89:hscore/hscore.c **** 		fc = pf_open("hs.txt");
  90:hscore/hscore.c **** 		printStatus(fc, "openFile");
  91:hscore/hscore.c **** 
  92:hscore/hscore.c **** 		fc = pf_read(buffer, sizeof(buffer), &bytesRead);
  93:hscore/hscore.c **** 		printStatus(fc, "readFile");
  94:hscore/hscore.c **** 		printf("bytesRead %x\n", bytesRead);
  95:hscore/hscore.c **** 		if (fc == FR_OK && bytesRead > 0)
  96:hscore/hscore.c **** 			result = TRUE;
  97:hscore/hscore.c **** 		else
  98:hscore/hscore.c **** 			result = FALSE;
  99:hscore/hscore.c **** 
 100:hscore/hscore.c **** 		if (result != TRUE) {
 101:hscore/hscore.c **** 			printf("File not found  - creating\n");
 102:hscore/hscore.c **** 		}
 103:hscore/hscore.c **** 
 104:hscore/hscore.c **** 		if (result == TRUE) {
 105:hscore/hscore.c **** 			printf("Initialized HSCore module\n");
 106:hscore/hscore.c **** 		} else {
 107:hscore/hscore.c **** 			printf("Failed to initialize HSCore module\n");
 108:hscore/hscore.c **** 		}
 109:hscore/hscore.c **** 		return result;
 110:hscore/hscore.c **** 	}
 111:hscore/hscore.c **** 	return FALSE;
 112:hscore/hscore.c **** }
 113:hscore/hscore.c **** 
 114:hscore/hscore.c **** /**
 115:hscore/hscore.c ****  * Unmounts the repository (hence the file and the filesystem-SD)
 116:hscore/hscore.c ****  */
 117:hscore/hscore.c **** static tBool umountRepo(void) {
 118:hscore/hscore.c **** 	FRESULT fc = pf_mount(0);
ARM GAS  /cygdrive/c/DOCUME~1/mkwapisz/LOCALS~1/Temp/ccRGl3Ms.s 			page 8


 119:hscore/hscore.c **** 	printStatus(fc, "umount");
 120:hscore/hscore.c **** 	memset(&buffer[0], 0, sizeof(buffer));
 121:hscore/hscore.c **** 	if (fc == FR_OK)
 122:hscore/hscore.c **** 		return TRUE;
 123:hscore/hscore.c **** 	else
 124:hscore/hscore.c **** 		return FALSE;
 125:hscore/hscore.c **** }
 126:hscore/hscore.c **** 
 127:hscore/hscore.c **** HSCORE getLastHScore(void) {
 194              		.loc 1 127 0
 195 0060 F0B5     		push	{r4, r5, r6, r7, lr}
 196              	.LCFI1:
 197 0062 9DB0     		sub	sp, sp, #116
 198              	.LCFI2:
 199              		.loc 1 127 0
 200 0064 071C     		mov	r7, r0
 201              	.LBB10:
 202              	.LBB11:
 203              	.LBB12:
 204              	.LBB13:
 205              		.loc 1 54 0
 206 0066 5348     		ldr	r0, .L43
 207 0068 FFF7FEFF 		bl	simplePrintf
 208              	.LBE13:
 209              		.loc 1 55 0
 210 006c 5248     		ldr	r0, .L43+4
 211 006e FFF7FEFF 		bl	pf_mount
 212              	.LBB14:
 213 0072 524C     		ldr	r4, .L43+8
 214 0074 2060     		str	r0, [r4]
 215              		.loc 1 56 0
 216 0076 0028     		cmp	r0, #0
 217 0078 0CD0     		beq	.L17
 218              		.loc 1 57 0
 219 007a 5148     		ldr	r0, .L43+12
 220 007c FFF7FEFF 		bl	simplePrintf
 221              		.loc 1 58 0
 222 0080 2268     		ldr	r2, [r4]
 223 0082 531E     		sub	r3, r2, #1
 224 0084 012B     		cmp	r3, #1
 225 0086 01D8     		bhi	.L19
 226              		.loc 1 59 0
 227 0088 4E48     		ldr	r0, .L43+16
 228 008a 04E0     		b	.L42
 229              	.L19:
 230              		.loc 1 60 0
 231 008c 072A     		cmp	r2, #7
 232 008e 04D1     		bne	.L21
 233              		.loc 1 61 0
 234 0090 4D48     		ldr	r0, .L43+20
 235 0092 00E0     		b	.L42
 236              	.L17:
 237              		.loc 1 65 0
 238 0094 4D48     		ldr	r0, .L43+24
 239              	.L42:
 240 0096 FFF7FEFF 		bl	simplePrintf
 241              	.L21:
ARM GAS  /cygdrive/c/DOCUME~1/mkwapisz/LOCALS~1/Temp/ccRGl3Ms.s 			page 9


 242              		.loc 1 68 0
 243 009a 484B     		ldr	r3, .L43+8
 244 009c 1B68     		ldr	r3, [r3]
 245 009e 002B     		cmp	r3, #0
 246 00a0 65D1     		bne	.L23
 247              	.LBE14:
 248              	.LBE12:
 249              	.LBB15:
 250              		.loc 1 84 0
 251 00a2 6D46     		mov	r5, sp
 252 00a4 7235     		add	r5, r5, #114
 253 00a6 2B80     		strh	r3, [r5]
 254              	.LVL4:
 255              		.loc 1 87 0
 256 00a8 4948     		ldr	r0, .L43+28
 257 00aa FFF7FEFF 		bl	simplePrintf
 258              	.LBE15:
 259              	.LBE11:
 260              		.loc 1 89 0
 261 00ae 4948     		ldr	r0, .L43+32
 262 00b0 FFF7FEFF 		bl	pf_open
 263              	.LBB16:
 264              	.LBB17:
 265              		.loc 1 90 0
 266 00b4 4849     		ldr	r1, .L43+36
 267 00b6 FFF7A3FF 		bl	printStatus
 268              	.LBE17:
 269              	.LBE16:
 270              		.loc 1 92 0
 271 00ba 484E     		ldr	r6, .L43+40
 272 00bc 8021     		mov	r1, #128
 273 00be 8900     		lsl	r1, r1, #2
 274 00c0 2A1C     		mov	r2, r5
 275 00c2 301C     		mov	r0, r6
 276 00c4 FFF7FEFF 		bl	pf_read
 277              	.LBB18:
 278              	.LBB19:
 279              		.loc 1 93 0
 280 00c8 4549     		ldr	r1, .L43+44
 281              	.LBE19:
 282              	.LBE18:
 283              		.loc 1 92 0
 284 00ca 041C     		mov	r4, r0
 285              	.LVL5:
 286              	.LBB20:
 287              	.LBB21:
 288              		.loc 1 93 0
 289 00cc FFF798FF 		bl	printStatus
 290              		.loc 1 94 0
 291 00d0 4448     		ldr	r0, .L43+48
 292 00d2 2988     		ldrh	r1, [r5]
 293 00d4 FFF7FEFF 		bl	simplePrintf
 294              		.loc 1 95 0
 295 00d8 002C     		cmp	r4, #0
 296 00da 5BD1     		bne	.L25
 297 00dc 2B88     		ldrh	r3, [r5]
 298 00de 002B     		cmp	r3, #0
ARM GAS  /cygdrive/c/DOCUME~1/mkwapisz/LOCALS~1/Temp/ccRGl3Ms.s 			page 10


 299 00e0 58D0     		beq	.L25
 300              	.LVL6:
 301              		.loc 1 105 0
 302 00e2 4148     		ldr	r0, .L43+52
 303 00e4 FFF7FEFF 		bl	simplePrintf
 304              	.LVL7:
 305              	.LBE21:
 306              	.LBE20:
 307              	.LBE10:
 128:hscore/hscore.c **** 	HSCORE hs;
 129:hscore/hscore.c **** 
 130:hscore/hscore.c **** 	if (mountRepo() == TRUE) {
 131:hscore/hscore.c **** 		printf("HSCORE => Reading LAST-SCORE\n");
 308              		.loc 1 131 0
 309 00e8 4048     		ldr	r0, .L43+56
 310 00ea FFF7FEFF 		bl	simplePrintf
 311              	.LBB22:
 132:hscore/hscore.c **** 		{
 133:hscore/hscore.c **** 			tS16 i = 0;
 134:hscore/hscore.c **** 			tS16 counter = 0;
 135:hscore/hscore.c **** 
 136:hscore/hscore.c **** 			char scoreEntry[100];
 137:hscore/hscore.c **** 			strncpy(scoreEntry, &buffer[0], sizeof(buffer));
 312              		.loc 1 137 0
 313 00ee 8022     		mov	r2, #128
 314 00f0 311C     		mov	r1, r6
 315 00f2 9200     		lsl	r2, r2, #2
 316 00f4 6846     		mov	r0, sp
 317 00f6 FFF7FEFF 		bl	strncpy
 138:hscore/hscore.c **** 
 139:hscore/hscore.c **** 			printf("HSCORE => FROM BUFF[%d]=%s\n", i, scoreEntry);
 318              		.loc 1 139 0
 319 00fa 0021     		mov	r1, #0
 320 00fc 6A46     		mov	r2, sp
 321 00fe 3C48     		ldr	r0, .L43+60
 322 0100 FFF7FEFF 		bl	simplePrintf
 140:hscore/hscore.c **** 
 141:hscore/hscore.c **** 			char * pch = strtok(scoreEntry, "=");
 323              		.loc 1 141 0
 324 0104 3B49     		ldr	r1, .L43+64
 325 0106 6846     		mov	r0, sp
 326 0108 FFF7FEFF 		bl	strtok
 327 010c 0026     		mov	r6, #0
 328 010e 011C     		mov	r1, r0
 329              	.LVL8:
 330 0110 24E0     		b	.L28
 331              	.L29:
 332              		.loc 1 127 0
 333 0112 3304     		lsl	r3, r6, #16
 334 0114 1B0C     		lsr	r3, r3, #16
 142:hscore/hscore.c **** 			i = 0;
 143:hscore/hscore.c **** 			while (pch != NULL ) {
 144:hscore/hscore.c **** 				if (i == 0) {
 335              		.loc 1 144 0
 336 0116 002B     		cmp	r3, #0
 337 0118 13D1     		bne	.L30
 338 011a 0022     		mov	r2, #0
ARM GAS  /cygdrive/c/DOCUME~1/mkwapisz/LOCALS~1/Temp/ccRGl3Ms.s 			page 11


 339              	.L32:
 145:hscore/hscore.c **** 					/////////////////////////////////
 146:hscore/hscore.c **** 					counter = 0;
 147:hscore/hscore.c **** 					while (pch[counter] != '\0') {
 340              		.loc 1 147 0
 341 011c 1304     		lsl	r3, r2, #16
 342 011e 1B14     		asr	r3, r3, #16
 343 0120 CD5C     		ldrb	r5, [r1, r3]
 344 0122 0132     		add	r2, r2, #1
 345 0124 002D     		cmp	r5, #0
 346 0126 F9D1     		bne	.L32
 148:hscore/hscore.c **** 						counter = counter + 1;
 149:hscore/hscore.c **** 					}
 150:hscore/hscore.c **** 					strncpy(hs.player, &pch[0], sizeof(pch));
 347              		.loc 1 150 0
 348 0128 6C46     		mov	r4, sp
 349              	.LVL9:
 350 012a 6634     		add	r4, r4, #102
 351 012c 0422     		mov	r2, #4
 352 012e 201C     		mov	r0, r4
 353 0130 FFF7FEFF 		bl	strncpy
 354              	.LVL10:
 151:hscore/hscore.c **** 					hs.player[strlen(hs.player)] = '\0';
 355              		.loc 1 151 0
 356 0134 201C     		mov	r0, r4
 357 0136 FFF7FEFF 		bl	strlen
 358 013a 19AB     		add	r3, sp, #100
 359 013c 1B18     		add	r3, r3, r0
 360 013e 9D70     		strb	r5, [r3, #2]
 361 0140 06E0     		b	.L34
 362              	.LVL11:
 363              	.L30:
 152:hscore/hscore.c **** 					/////////////////////////////////
 153:hscore/hscore.c **** 				} else if (i == 1) {
 364              		.loc 1 153 0
 365 0142 012B     		cmp	r3, #1
 366 0144 04D1     		bne	.L34
 154:hscore/hscore.c **** 					hs.score = atoi(pch);
 367              		.loc 1 154 0
 368 0146 081C     		mov	r0, r1
 369 0148 FFF7FEFF 		bl	atoi
 370              	.LVL12:
 371 014c 19AB     		add	r3, sp, #100
 372 014e 1880     		strh	r0, [r3]
 373              	.LVL13:
 374              	.L34:
 155:hscore/hscore.c **** 				}
 156:hscore/hscore.c **** 				pch = strtok(NULL, "=");
 375              		.loc 1 156 0
 376 0150 2849     		ldr	r1, .L43+64
 377              	.LVL14:
 378 0152 0020     		mov	r0, #0
 379 0154 FFF7FEFF 		bl	strtok
 380 0158 0136     		add	r6, r6, #1
 381 015a 011C     		mov	r1, r0
 382              	.LVL15:
 383              	.L28:
ARM GAS  /cygdrive/c/DOCUME~1/mkwapisz/LOCALS~1/Temp/ccRGl3Ms.s 			page 12


 384              		.loc 1 143 0
 385 015c 0029     		cmp	r1, #0
 386 015e D8D1     		bne	.L29
 387              	.LBE22:
 157:hscore/hscore.c **** 				i++;
 158:hscore/hscore.c **** 			}
 159:hscore/hscore.c **** 		}
 160:hscore/hscore.c **** 		printf("HSCORE => LAST-SCORE > Player=%s > Score=%d\n", hs.player,
 388              		.loc 1 160 0
 389 0160 19AB     		add	r3, sp, #100
 390 0162 6946     		mov	r1, sp
 391              	.LVL16:
 392 0164 2448     		ldr	r0, .L43+68
 393 0166 1A88     		ldrh	r2, [r3]
 394 0168 6631     		add	r1, r1, #102
 395 016a FFF7FEFF 		bl	simplePrintf
 396              	.L23:
 397              	.LBB23:
 398              		.loc 1 118 0
 399 016e 0020     		mov	r0, #0
 400 0170 FFF7FEFF 		bl	pf_mount
 401              	.LBB24:
 402              		.loc 1 119 0
 403 0174 2149     		ldr	r1, .L43+72
 404              	.LBE24:
 405              		.loc 1 118 0
 406 0176 041C     		mov	r4, r0
 407              	.LVL17:
 408              	.LBB25:
 409              		.loc 1 119 0
 410 0178 FFF742FF 		bl	printStatus
 411              		.loc 1 120 0
 412 017c 8022     		mov	r2, #128
 413 017e 1748     		ldr	r0, .L43+40
 414 0180 0021     		mov	r1, #0
 415 0182 9200     		lsl	r2, r2, #2
 416 0184 FFF7FEFF 		bl	memset
 417              		.loc 1 121 0
 418 0188 002C     		cmp	r4, #0
 419 018a 0AD1     		bne	.L37
 420              	.LBE25:
 421              	.LBE23:
 161:hscore/hscore.c **** 				hs.score);
 162:hscore/hscore.c **** 	}
 163:hscore/hscore.c **** 
 164:hscore/hscore.c **** 	if (umountRepo() == TRUE) {
 165:hscore/hscore.c **** 		printf("HSCORE => Device released...duhhhhh\n");
 422              		.loc 1 165 0
 423 018c 1C48     		ldr	r0, .L43+76
 424 018e FFF7FEFF 		bl	simplePrintf
 425 0192 06E0     		b	.L37
 426              	.LVL18:
 427              	.L25:
 428              	.LBB26:
 429              	.LBB27:
 430              	.LBB28:
 431              		.loc 1 101 0
ARM GAS  /cygdrive/c/DOCUME~1/mkwapisz/LOCALS~1/Temp/ccRGl3Ms.s 			page 13


 432 0194 1B48     		ldr	r0, .L43+80
 433 0196 FFF7FEFF 		bl	simplePrintf
 434              		.loc 1 107 0
 435 019a 1B48     		ldr	r0, .L43+84
 436 019c FFF7FEFF 		bl	simplePrintf
 437 01a0 E5E7     		b	.L23
 438              	.LVL19:
 439              	.L37:
 440              	.LBE28:
 441              	.LBE27:
 442              	.LBE26:
 166:hscore/hscore.c **** 	}
 167:hscore/hscore.c **** 	return hs;
 443              		.loc 1 167 0
 444 01a2 3A1C     		mov	r2, r7
 445 01a4 19AB     		add	r3, sp, #100
 446 01a6 13CB     		ldmia	r3!, {r0, r1, r4}
 447 01a8 13C2     		stmia	r2!, {r0, r1, r4}
 448              	.LVL20:
 168:hscore/hscore.c **** }
 449              		.loc 1 168 0
 450 01aa 1DB0     		add	sp, sp, #116
 451 01ac 381C     		mov	r0, r7
 452              		@ sp needed for prologue
 453 01ae F0BC     		pop	{r4, r5, r6, r7}
 454 01b0 02BC     		pop	{r1}
 455 01b2 0847     		bx	r1
 456              	.L44:
 457              		.align	2
 458              	.L43:
 459 01b4 90000000 		.word	.LC19
 460 01b8 00020000 		.word	fatFileSystem
 461 01bc 30020000 		.word	sdStatus
 462 01c0 A4000000 		.word	.LC23
 463 01c4 B8000000 		.word	.LC25
 464 01c8 CC000000 		.word	.LC27
 465 01cc E4000000 		.word	.LC29
 466 01d0 F4000000 		.word	.LC31
 467 01d4 20010000 		.word	.LC33
 468 01d8 28010000 		.word	.LC35
 469 01dc 00000000 		.word	buffer
 470 01e0 34010000 		.word	.LC38
 471 01e4 40010000 		.word	.LC40
 472 01e8 50010000 		.word	.LC42
 473 01ec 6C010000 		.word	.LC44
 474 01f0 8C010000 		.word	.LC46
 475 01f4 A8010000 		.word	.LC48
 476 01f8 AC010000 		.word	.LC50
 477 01fc DC010000 		.word	.LC52
 478 0200 E4010000 		.word	.LC54
 479 0204 0C020000 		.word	.LC56
 480 0208 28020000 		.word	.LC58
 481              	.LFE6:
 482              		.size	getLastHScore, .-getLastHScore
 483              		.bss
 484              	buffer:
 485 0000 00000000 		.space	512
ARM GAS  /cygdrive/c/DOCUME~1/mkwapisz/LOCALS~1/Temp/ccRGl3Ms.s 			page 14


 485      00000000 
 485      00000000 
 485      00000000 
 485      00000000 
 486              		.align	2
 487              	fatFileSystem:
 488 0200 00000000 		.space	48
 488      00000000 
 488      00000000 
 488      00000000 
 488      00000000 
 489              		.align	2
 490              	sdStatus:
 491 0230 00000000 		.space	4
 492              		.section	.debug_frame,"",%progbits
 493              	.Lframe0:
 494 0000 0C000000 		.4byte	.LECIE0-.LSCIE0
 495              	.LSCIE0:
 496 0004 FFFFFFFF 		.4byte	0xffffffff
 497 0008 01       		.byte	0x1
 498 0009 00       		.ascii	"\000"
 499 000a 01       		.uleb128 0x1
 500 000b 7C       		.sleb128 -4
 501 000c 0E       		.byte	0xe
 502 000d 0C       		.byte	0xc
 503 000e 0D       		.uleb128 0xd
 504 000f 00       		.uleb128 0x0
 505              		.align	2
 506              	.LECIE0:
 507              	.LSFDE0:
 508 0010 14000000 		.4byte	.LEFDE0-.LASFDE0
 509              	.LASFDE0:
 510 0014 00000000 		.4byte	.Lframe0
 511 0018 00000000 		.4byte	.LFB2
 512 001c 60000000 		.4byte	.LFE2-.LFB2
 513 0020 42       		.byte	0x4
 514              		.4byte	.LCFI0-.LFB2
 515 0021 0E       		.byte	0xe
 516 0022 04       		.uleb128 0x4
 517 0023 8E       		.byte	0x8e
 518 0024 01       		.uleb128 0x1
 519 0025 000000   		.align	2
 520              	.LEFDE0:
 521              	.LSFDE2:
 522 0028 20000000 		.4byte	.LEFDE2-.LASFDE2
 523              	.LASFDE2:
 524 002c 00000000 		.4byte	.Lframe0
 525 0030 60000000 		.4byte	.LFB6
 526 0034 AC010000 		.4byte	.LFE6-.LFB6
 527 0038 42       		.byte	0x4
 528              		.4byte	.LCFI1-.LFB6
 529 0039 0E       		.byte	0xe
 530 003a 14       		.uleb128 0x14
 531 003b 84       		.byte	0x84
 532 003c 05       		.uleb128 0x5
 533 003d 85       		.byte	0x85
 534 003e 04       		.uleb128 0x4
ARM GAS  /cygdrive/c/DOCUME~1/mkwapisz/LOCALS~1/Temp/ccRGl3Ms.s 			page 15


 535 003f 86       		.byte	0x86
 536 0040 03       		.uleb128 0x3
 537 0041 87       		.byte	0x87
 538 0042 02       		.uleb128 0x2
 539 0043 8E       		.byte	0x8e
 540 0044 01       		.uleb128 0x1
 541 0045 42       		.byte	0x4
 542              		.4byte	.LCFI2-.LCFI1
 543 0046 0E       		.byte	0xe
 544 0047 8801     		.uleb128 0x88
 545 0049 000000   		.align	2
 546              	.LEFDE2:
 547              		.file 2 "hscore/../sd/pff.h"
 548              		.file 3 "hscore/../startup/general.h"
 549              		.file 4 "hscore/hscore.h"
 550              		.file 5 "hscore/../sd/integer.h"
 551              		.text
 552              	.Letext0:
 553              		.section	.debug_loc,"",%progbits
 554              	.Ldebug_loc0:
 555              	.LLST0:
 556 0000 00000000 		.4byte	.LFB2-.Ltext0
 557 0004 02000000 		.4byte	.LCFI0-.Ltext0
 558 0008 0100     		.2byte	0x1
 559 000a 5D       		.byte	0x5d
 560 000b 02000000 		.4byte	.LCFI0-.Ltext0
 561 000f 60000000 		.4byte	.LFE2-.Ltext0
 562 0013 0200     		.2byte	0x2
 563 0015 7D       		.byte	0x7d
 564 0016 04       		.sleb128 4
 565 0017 00000000 		.4byte	0x0
 566 001b 00000000 		.4byte	0x0
 567              	.LLST1:
 568 001f 02000000 		.4byte	.LVL0-.Ltext0
 569 0023 0E000000 		.4byte	.LVL1-.Ltext0
 570 0027 0100     		.2byte	0x1
 571 0029 50       		.byte	0x50
 572 002a 32000000 		.4byte	.LVL3-.Ltext0
 573 002e 60000000 		.4byte	.LFE2-.Ltext0
 574 0032 0100     		.2byte	0x1
 575 0034 50       		.byte	0x50
 576 0035 00000000 		.4byte	0x0
 577 0039 00000000 		.4byte	0x0
 578              	.LLST2:
 579 003d 02000000 		.4byte	.LVL0-.Ltext0
 580 0041 32000000 		.4byte	.LVL2-.Ltext0
 581 0045 0100     		.2byte	0x1
 582 0047 51       		.byte	0x51
 583 0048 32000000 		.4byte	.LVL3-.Ltext0
 584 004c 60000000 		.4byte	.LFE2-.Ltext0
 585 0050 0100     		.2byte	0x1
 586 0052 51       		.byte	0x51
 587 0053 00000000 		.4byte	0x0
 588 0057 00000000 		.4byte	0x0
 589              	.LLST3:
 590 005b 60000000 		.4byte	.LFB6-.Ltext0
 591 005f 62000000 		.4byte	.LCFI1-.Ltext0
ARM GAS  /cygdrive/c/DOCUME~1/mkwapisz/LOCALS~1/Temp/ccRGl3Ms.s 			page 16


 592 0063 0100     		.2byte	0x1
 593 0065 5D       		.byte	0x5d
 594 0066 62000000 		.4byte	.LCFI1-.Ltext0
 595 006a 64000000 		.4byte	.LCFI2-.Ltext0
 596 006e 0200     		.2byte	0x2
 597 0070 7D       		.byte	0x7d
 598 0071 14       		.sleb128 20
 599 0072 64000000 		.4byte	.LCFI2-.Ltext0
 600 0076 0C020000 		.4byte	.LFE6-.Ltext0
 601 007a 0300     		.2byte	0x3
 602 007c 7D       		.byte	0x7d
 603 007d 8801     		.sleb128 136
 604 007f 00000000 		.4byte	0x0
 605 0083 00000000 		.4byte	0x0
 606              	.LLST4:
 607 0087 CC000000 		.4byte	.LVL5-.Ltext0
 608 008b 2A010000 		.4byte	.LVL9-.Ltext0
 609 008f 0100     		.2byte	0x1
 610 0091 54       		.byte	0x54
 611 0092 42010000 		.4byte	.LVL11-.Ltext0
 612 0096 78010000 		.4byte	.LVL17-.Ltext0
 613 009a 0100     		.2byte	0x1
 614 009c 54       		.byte	0x54
 615 009d 94010000 		.4byte	.LVL18-.Ltext0
 616 00a1 A2010000 		.4byte	.LVL19-.Ltext0
 617 00a5 0100     		.2byte	0x1
 618 00a7 54       		.byte	0x54
 619 00a8 00000000 		.4byte	0x0
 620 00ac 00000000 		.4byte	0x0
 621              	.LLST5:
 622 00b0 A8000000 		.4byte	.LVL4-.Ltext0
 623 00b4 E2000000 		.4byte	.LVL6-.Ltext0
 624 00b8 0200     		.2byte	0x2
 625 00ba 75       		.byte	0x75
 626 00bb 00       		.sleb128 0
 627 00bc E2000000 		.4byte	.LVL6-.Ltext0
 628 00c0 E8000000 		.4byte	.LVL7-.Ltext0
 629 00c4 0100     		.2byte	0x1
 630 00c6 53       		.byte	0x53
 631 00c7 E8000000 		.4byte	.LVL7-.Ltext0
 632 00cb 0C020000 		.4byte	.LFE6-.Ltext0
 633 00cf 0200     		.2byte	0x2
 634 00d1 75       		.byte	0x75
 635 00d2 00       		.sleb128 0
 636 00d3 00000000 		.4byte	0x0
 637 00d7 00000000 		.4byte	0x0
 638              	.LLST6:
 639 00db 10010000 		.4byte	.LVL8-.Ltext0
 640 00df 34010000 		.4byte	.LVL10-.Ltext0
 641 00e3 0100     		.2byte	0x1
 642 00e5 51       		.byte	0x51
 643 00e6 42010000 		.4byte	.LVL11-.Ltext0
 644 00ea 4C010000 		.4byte	.LVL12-.Ltext0
 645 00ee 0100     		.2byte	0x1
 646 00f0 51       		.byte	0x51
 647 00f1 50010000 		.4byte	.LVL13-.Ltext0
 648 00f5 52010000 		.4byte	.LVL14-.Ltext0
ARM GAS  /cygdrive/c/DOCUME~1/mkwapisz/LOCALS~1/Temp/ccRGl3Ms.s 			page 17


 649 00f9 0100     		.2byte	0x1
 650 00fb 51       		.byte	0x51
 651 00fc 5C010000 		.4byte	.LVL15-.Ltext0
 652 0100 64010000 		.4byte	.LVL16-.Ltext0
 653 0104 0100     		.2byte	0x1
 654 0106 51       		.byte	0x51
 655 0107 00000000 		.4byte	0x0
 656 010b 00000000 		.4byte	0x0
 657              	.LLST7:
 658 010f 78010000 		.4byte	.LVL17-.Ltext0
 659 0113 94010000 		.4byte	.LVL18-.Ltext0
 660 0117 0100     		.2byte	0x1
 661 0119 54       		.byte	0x54
 662 011a A2010000 		.4byte	.LVL19-.Ltext0
 663 011e AA010000 		.4byte	.LVL20-.Ltext0
 664 0122 0100     		.2byte	0x1
 665 0124 54       		.byte	0x54
 666 0125 00000000 		.4byte	0x0
 667 0129 00000000 		.4byte	0x0
 668              		.section	.debug_info
 669 0000 F5030000 		.4byte	0x3f5
 670 0004 0200     		.2byte	0x2
 671 0006 00000000 		.4byte	.Ldebug_abbrev0
 672 000a 04       		.byte	0x4
 673 000b 01       		.uleb128 0x1
 674 000c 00000000 		.4byte	.Ldebug_line0
 675 0010 0C020000 		.4byte	.Letext0
 676 0014 00000000 		.4byte	.Ltext0
 677 0018 D1010000 		.4byte	.LASF54
 678 001c 01       		.byte	0x1
 679 001d B3010000 		.4byte	.LASF55
 680 0021 51000000 		.4byte	.LASF56
 681 0025 02       		.uleb128 0x2
 682 0026 696E7400 		.ascii	"int\000"
 683 002a 04       		.byte	0x4
 684 002b 05       		.byte	0x5
 685 002c 03       		.uleb128 0x3
 686 002d AB000000 		.4byte	.LASF0
 687 0031 04       		.byte	0x4
 688 0032 05       		.byte	0x5
 689 0033 03       		.uleb128 0x3
 690 0034 7D000000 		.4byte	.LASF1
 691 0038 08       		.byte	0x8
 692 0039 05       		.byte	0x5
 693 003a 03       		.uleb128 0x3
 694 003b F4000000 		.4byte	.LASF2
 695 003f 04       		.byte	0x4
 696 0040 07       		.byte	0x7
 697 0041 03       		.uleb128 0x3
 698 0042 0C010000 		.4byte	.LASF3
 699 0046 04       		.byte	0x4
 700 0047 07       		.byte	0x7
 701 0048 03       		.uleb128 0x3
 702 0049 C3010000 		.4byte	.LASF4
 703 004d 01       		.byte	0x1
 704 004e 08       		.byte	0x8
 705 004f 03       		.uleb128 0x3
ARM GAS  /cygdrive/c/DOCUME~1/mkwapisz/LOCALS~1/Temp/ccRGl3Ms.s 			page 18


 706 0050 0C010000 		.4byte	.LASF3
 707 0054 04       		.byte	0x4
 708 0055 07       		.byte	0x7
 709 0056 03       		.uleb128 0x3
 710 0057 F4010000 		.4byte	.LASF5
 711 005b 02       		.byte	0x2
 712 005c 05       		.byte	0x5
 713 005d 04       		.uleb128 0x4
 714 005e 04       		.byte	0x4
 715 005f 63000000 		.4byte	0x63
 716 0063 03       		.uleb128 0x3
 717 0064 15020000 		.4byte	.LASF6
 718 0068 01       		.byte	0x1
 719 0069 08       		.byte	0x8
 720 006a 04       		.uleb128 0x4
 721 006b 04       		.byte	0x4
 722 006c 70000000 		.4byte	0x70
 723 0070 05       		.uleb128 0x5
 724 0071 63000000 		.4byte	0x63
 725 0075 03       		.uleb128 0x3
 726 0076 24010000 		.4byte	.LASF7
 727 007a 02       		.byte	0x2
 728 007b 07       		.byte	0x7
 729 007c 03       		.uleb128 0x3
 730 007d 33000000 		.4byte	.LASF8
 731 0081 08       		.byte	0x8
 732 0082 07       		.byte	0x7
 733 0083 03       		.uleb128 0x3
 734 0084 8B000000 		.4byte	.LASF9
 735 0088 01       		.byte	0x1
 736 0089 06       		.byte	0x6
 737 008a 06       		.uleb128 0x6
 738 008b 37010000 		.4byte	.LASF10
 739 008f 05       		.byte	0x5
 740 0090 15       		.byte	0x15
 741 0091 48000000 		.4byte	0x48
 742 0095 06       		.uleb128 0x6
 743 0096 53010000 		.4byte	.LASF11
 744 009a 05       		.byte	0x5
 745 009b 1A       		.byte	0x1a
 746 009c 75000000 		.4byte	0x75
 747 00a0 06       		.uleb128 0x6
 748 00a1 6F000000 		.4byte	.LASF12
 749 00a5 05       		.byte	0x5
 750 00a6 20       		.byte	0x20
 751 00a7 4F000000 		.4byte	0x4f
 752 00ab 07       		.uleb128 0x7
 753 00ac 8A010000 		.4byte	0x18a
 754 00b0 1A020000 		.4byte	.LASF57
 755 00b4 30       		.byte	0x30
 756 00b5 02       		.byte	0x2
 757 00b6 45       		.byte	0x45
 758 00b7 08       		.uleb128 0x8
 759 00b8 1B000000 		.4byte	.LASF13
 760 00bc 02       		.byte	0x2
 761 00bd 46       		.byte	0x46
 762 00be 8A000000 		.4byte	0x8a
ARM GAS  /cygdrive/c/DOCUME~1/mkwapisz/LOCALS~1/Temp/ccRGl3Ms.s 			page 19


 763 00c2 02       		.byte	0x2
 764 00c3 23       		.byte	0x23
 765 00c4 00       		.uleb128 0x0
 766 00c5 08       		.uleb128 0x8
 767 00c6 EE000000 		.4byte	.LASF14
 768 00ca 02       		.byte	0x2
 769 00cb 47       		.byte	0x47
 770 00cc 8A000000 		.4byte	0x8a
 771 00d0 02       		.byte	0x2
 772 00d1 23       		.byte	0x23
 773 00d2 01       		.uleb128 0x1
 774 00d3 08       		.uleb128 0x8
 775 00d4 06020000 		.4byte	.LASF15
 776 00d8 02       		.byte	0x2
 777 00d9 48       		.byte	0x48
 778 00da 8A000000 		.4byte	0x8a
 779 00de 02       		.byte	0x2
 780 00df 23       		.byte	0x23
 781 00e0 02       		.uleb128 0x2
 782 00e1 08       		.uleb128 0x8
 783 00e2 23000000 		.4byte	.LASF16
 784 00e6 02       		.byte	0x2
 785 00e7 49       		.byte	0x49
 786 00e8 8A000000 		.4byte	0x8a
 787 00ec 02       		.byte	0x2
 788 00ed 23       		.byte	0x23
 789 00ee 03       		.uleb128 0x3
 790 00ef 08       		.uleb128 0x8
 791 00f0 29000000 		.4byte	.LASF17
 792 00f4 02       		.byte	0x2
 793 00f5 4A       		.byte	0x4a
 794 00f6 95000000 		.4byte	0x95
 795 00fa 02       		.byte	0x2
 796 00fb 23       		.byte	0x23
 797 00fc 04       		.uleb128 0x4
 798 00fd 09       		.uleb128 0x9
 799 00fe 62756600 		.ascii	"buf\000"
 800 0102 02       		.byte	0x2
 801 0103 4B       		.byte	0x4b
 802 0104 8A010000 		.4byte	0x18a
 803 0108 02       		.byte	0x2
 804 0109 23       		.byte	0x23
 805 010a 08       		.uleb128 0x8
 806 010b 08       		.uleb128 0x8
 807 010c 71010000 		.4byte	.LASF18
 808 0110 02       		.byte	0x2
 809 0111 4C       		.byte	0x4c
 810 0112 A0000000 		.4byte	0xa0
 811 0116 02       		.byte	0x2
 812 0117 23       		.byte	0x23
 813 0118 0C       		.uleb128 0xc
 814 0119 08       		.uleb128 0x8
 815 011a D9000000 		.4byte	.LASF19
 816 011e 02       		.byte	0x2
 817 011f 4D       		.byte	0x4d
 818 0120 A0000000 		.4byte	0xa0
 819 0124 02       		.byte	0x2
ARM GAS  /cygdrive/c/DOCUME~1/mkwapisz/LOCALS~1/Temp/ccRGl3Ms.s 			page 20


 820 0125 23       		.byte	0x23
 821 0126 10       		.uleb128 0x10
 822 0127 08       		.uleb128 0x8
 823 0128 75000000 		.4byte	.LASF20
 824 012c 02       		.byte	0x2
 825 012d 4E       		.byte	0x4e
 826 012e A0000000 		.4byte	0xa0
 827 0132 02       		.byte	0x2
 828 0133 23       		.byte	0x23
 829 0134 14       		.uleb128 0x14
 830 0135 08       		.uleb128 0x8
 831 0136 9D000000 		.4byte	.LASF21
 832 013a 02       		.byte	0x2
 833 013b 4F       		.byte	0x4f
 834 013c A0000000 		.4byte	0xa0
 835 0140 02       		.byte	0x2
 836 0141 23       		.byte	0x23
 837 0142 18       		.uleb128 0x18
 838 0143 08       		.uleb128 0x8
 839 0144 5E010000 		.4byte	.LASF22
 840 0148 02       		.byte	0x2
 841 0149 50       		.byte	0x50
 842 014a A0000000 		.4byte	0xa0
 843 014e 02       		.byte	0x2
 844 014f 23       		.byte	0x23
 845 0150 1C       		.uleb128 0x1c
 846 0151 08       		.uleb128 0x8
 847 0152 97000000 		.4byte	.LASF23
 848 0156 02       		.byte	0x2
 849 0157 51       		.byte	0x51
 850 0158 A0000000 		.4byte	0xa0
 851 015c 02       		.byte	0x2
 852 015d 23       		.byte	0x23
 853 015e 20       		.uleb128 0x20
 854 015f 08       		.uleb128 0x8
 855 0160 CF000000 		.4byte	.LASF24
 856 0164 02       		.byte	0x2
 857 0165 52       		.byte	0x52
 858 0166 A0000000 		.4byte	0xa0
 859 016a 02       		.byte	0x2
 860 016b 23       		.byte	0x23
 861 016c 24       		.uleb128 0x24
 862 016d 08       		.uleb128 0x8
 863 016e 2F020000 		.4byte	.LASF25
 864 0172 02       		.byte	0x2
 865 0173 53       		.byte	0x53
 866 0174 A0000000 		.4byte	0xa0
 867 0178 02       		.byte	0x2
 868 0179 23       		.byte	0x23
 869 017a 28       		.uleb128 0x28
 870 017b 08       		.uleb128 0x8
 871 017c AD010000 		.4byte	.LASF26
 872 0180 02       		.byte	0x2
 873 0181 54       		.byte	0x54
 874 0182 A0000000 		.4byte	0xa0
 875 0186 02       		.byte	0x2
 876 0187 23       		.byte	0x23
ARM GAS  /cygdrive/c/DOCUME~1/mkwapisz/LOCALS~1/Temp/ccRGl3Ms.s 			page 21


 877 0188 2C       		.uleb128 0x2c
 878 0189 00       		.byte	0x0
 879 018a 04       		.uleb128 0x4
 880 018b 04       		.byte	0x4
 881 018c 8A000000 		.4byte	0x8a
 882 0190 06       		.uleb128 0x6
 883 0191 58010000 		.4byte	.LASF27
 884 0195 02       		.byte	0x2
 885 0196 55       		.byte	0x55
 886 0197 AB000000 		.4byte	0xab
 887 019b 0A       		.uleb128 0xa
 888 019c D4010000 		.4byte	0x1d4
 889 01a0 04       		.byte	0x4
 890 01a1 02       		.byte	0x2
 891 01a2 6D       		.byte	0x6d
 892 01a3 0B       		.uleb128 0xb
 893 01a4 22020000 		.4byte	.LASF28
 894 01a8 00       		.sleb128 0
 895 01a9 0B       		.uleb128 0xb
 896 01aa 3C010000 		.4byte	.LASF29
 897 01ae 01       		.sleb128 1
 898 01af 0B       		.uleb128 0xb
 899 01b0 00000000 		.4byte	.LASF30
 900 01b4 02       		.sleb128 2
 901 01b5 0B       		.uleb128 0xb
 902 01b6 8E010000 		.4byte	.LASF31
 903 01ba 03       		.sleb128 3
 904 01bb 0B       		.uleb128 0xb
 905 01bc 49020000 		.4byte	.LASF32
 906 01c0 04       		.sleb128 4
 907 01c1 0B       		.uleb128 0xb
 908 01c2 63010000 		.4byte	.LASF33
 909 01c6 05       		.sleb128 5
 910 01c7 0B       		.uleb128 0xb
 911 01c8 9E010000 		.4byte	.LASF34
 912 01cc 06       		.sleb128 6
 913 01cd 0B       		.uleb128 0xb
 914 01ce BE000000 		.4byte	.LASF35
 915 01d2 07       		.sleb128 7
 916 01d3 00       		.byte	0x0
 917 01d4 06       		.uleb128 0x6
 918 01d5 3A020000 		.4byte	.LASF36
 919 01d9 02       		.byte	0x2
 920 01da 76       		.byte	0x76
 921 01db 9B010000 		.4byte	0x19b
 922 01df 06       		.uleb128 0x6
 923 01e0 A6000000 		.4byte	.LASF37
 924 01e4 03       		.byte	0x3
 925 01e5 47       		.byte	0x47
 926 01e6 75000000 		.4byte	0x75
 927 01ea 0C       		.uleb128 0xc
 928 01eb 74533800 		.ascii	"tS8\000"
 929 01ef 03       		.byte	0x3
 930 01f0 49       		.byte	0x49
 931 01f1 83000000 		.4byte	0x83
 932 01f5 06       		.uleb128 0x6
 933 01f6 99010000 		.4byte	.LASF38
ARM GAS  /cygdrive/c/DOCUME~1/mkwapisz/LOCALS~1/Temp/ccRGl3Ms.s 			page 22


 934 01fa 03       		.byte	0x3
 935 01fb 4A       		.byte	0x4a
 936 01fc 56000000 		.4byte	0x56
 937 0200 06       		.uleb128 0x6
 938 0201 1E010000 		.4byte	.LASF39
 939 0205 03       		.byte	0x3
 940 0206 4C       		.byte	0x4c
 941 0207 48000000 		.4byte	0x48
 942 020b 0D       		.uleb128 0xd
 943 020c 30020000 		.4byte	0x230
 944 0210 0C       		.byte	0xc
 945 0211 04       		.byte	0x4
 946 0212 17       		.byte	0x17
 947 0213 08       		.uleb128 0x8
 948 0214 E1000000 		.4byte	.LASF40
 949 0218 04       		.byte	0x4
 950 0219 18       		.byte	0x18
 951 021a DF010000 		.4byte	0x1df
 952 021e 02       		.byte	0x2
 953 021f 23       		.byte	0x23
 954 0220 00       		.uleb128 0x0
 955 0221 08       		.uleb128 0x8
 956 0222 4A000000 		.4byte	.LASF41
 957 0226 04       		.byte	0x4
 958 0227 19       		.byte	0x19
 959 0228 30020000 		.4byte	0x230
 960 022c 02       		.byte	0x2
 961 022d 23       		.byte	0x23
 962 022e 02       		.uleb128 0x2
 963 022f 00       		.byte	0x0
 964 0230 0E       		.uleb128 0xe
 965 0231 40020000 		.4byte	0x240
 966 0235 63000000 		.4byte	0x63
 967 0239 0F       		.uleb128 0xf
 968 023a 41000000 		.4byte	0x41
 969 023e 09       		.byte	0x9
 970 023f 00       		.byte	0x0
 971 0240 06       		.uleb128 0x6
 972 0241 42020000 		.4byte	.LASF42
 973 0245 04       		.byte	0x4
 974 0246 1A       		.byte	0x1a
 975 0247 0B020000 		.4byte	0x20b
 976 024b 10       		.uleb128 0x10
 977 024c 81020000 		.4byte	0x281
 978 0250 82010000 		.4byte	.LASF44
 979 0254 01       		.byte	0x1
 980 0255 15       		.byte	0x15
 981 0256 01       		.byte	0x1
 982 0257 00000000 		.4byte	.LFB2
 983 025b 60000000 		.4byte	.LFE2
 984 025f 00000000 		.4byte	.LLST0
 985 0263 11       		.uleb128 0x11
 986 0264 666300   		.ascii	"fc\000"
 987 0267 01       		.byte	0x1
 988 0268 15       		.byte	0x15
 989 0269 D4010000 		.4byte	0x1d4
 990 026d 1F000000 		.4byte	.LLST1
ARM GAS  /cygdrive/c/DOCUME~1/mkwapisz/LOCALS~1/Temp/ccRGl3Ms.s 			page 23


 991 0271 12       		.uleb128 0x12
 992 0272 E7000000 		.4byte	.LASF43
 993 0276 01       		.byte	0x1
 994 0277 15       		.byte	0x15
 995 0278 6A000000 		.4byte	0x6a
 996 027c 3D000000 		.4byte	.LLST2
 997 0280 00       		.byte	0x0
 998 0281 13       		.uleb128 0x13
 999 0282 B5020000 		.4byte	0x2b5
 1000 0286 0B020000 		.4byte	.LASF45
 1001 028a 01       		.byte	0x1
 1002 028b 51       		.byte	0x51
 1003 028c 01       		.byte	0x1
 1004 028d 00020000 		.4byte	0x200
 1005 0291 01       		.byte	0x1
 1006 0292 14       		.uleb128 0x14
 1007 0293 15       		.uleb128 0x15
 1008 0294 666300   		.ascii	"fc\000"
 1009 0297 01       		.byte	0x1
 1010 0298 53       		.byte	0x53
 1011 0299 D4010000 		.4byte	0x1d4
 1012 029d 16       		.uleb128 0x16
 1013 029e B4000000 		.4byte	.LASF46
 1014 02a2 01       		.byte	0x1
 1015 02a3 54       		.byte	0x54
 1016 02a4 DF010000 		.4byte	0x1df
 1017 02a8 16       		.uleb128 0x16
 1018 02a9 54020000 		.4byte	.LASF47
 1019 02ad 01       		.byte	0x1
 1020 02ae 55       		.byte	0x55
 1021 02af 00020000 		.4byte	0x200
 1022 02b3 00       		.byte	0x0
 1023 02b4 00       		.byte	0x0
 1024 02b5 17       		.uleb128 0x17
 1025 02b6 7B010000 		.4byte	.LASF58
 1026 02ba 01       		.byte	0x1
 1027 02bb 35       		.byte	0x35
 1028 02bc 01       		.byte	0x1
 1029 02bd 00020000 		.4byte	0x200
 1030 02c1 01       		.byte	0x1
 1031 02c2 13       		.uleb128 0x13
 1032 02c3 DE020000 		.4byte	0x2de
 1033 02c7 48010000 		.4byte	.LASF48
 1034 02cb 01       		.byte	0x1
 1035 02cc 75       		.byte	0x75
 1036 02cd 01       		.byte	0x1
 1037 02ce 00020000 		.4byte	0x200
 1038 02d2 01       		.byte	0x1
 1039 02d3 15       		.uleb128 0x15
 1040 02d4 666300   		.ascii	"fc\000"
 1041 02d7 01       		.byte	0x1
 1042 02d8 76       		.byte	0x76
 1043 02d9 D4010000 		.4byte	0x1d4
 1044 02dd 00       		.byte	0x0
 1045 02de 18       		.uleb128 0x18
 1046 02df A4030000 		.4byte	0x3a4
 1047 02e3 01       		.byte	0x1
ARM GAS  /cygdrive/c/DOCUME~1/mkwapisz/LOCALS~1/Temp/ccRGl3Ms.s 			page 24


 1048 02e4 0D000000 		.4byte	.LASF59
 1049 02e8 01       		.byte	0x1
 1050 02e9 7F       		.byte	0x7f
 1051 02ea 01       		.byte	0x1
 1052 02eb 40020000 		.4byte	0x240
 1053 02ef 60000000 		.4byte	.LFB6
 1054 02f3 0C020000 		.4byte	.LFE6
 1055 02f7 5B000000 		.4byte	.LLST3
 1056 02fb 19       		.uleb128 0x19
 1057 02fc 687300   		.ascii	"hs\000"
 1058 02ff 01       		.byte	0x1
 1059 0300 80       		.byte	0x80
 1060 0301 40020000 		.4byte	0x240
 1061 0305 02       		.byte	0x2
 1062 0306 91       		.byte	0x91
 1063 0307 5C       		.sleb128 -36
 1064 0308 1A       		.uleb128 0x1a
 1065 0309 44030000 		.4byte	0x344
 1066 030d 81020000 		.4byte	0x281
 1067 0311 00000000 		.4byte	.Ldebug_ranges0+0x0
 1068 0315 01       		.byte	0x1
 1069 0316 82       		.byte	0x82
 1070 0317 1B       		.uleb128 0x1b
 1071 0318 B5020000 		.4byte	0x2b5
 1072 031c 66000000 		.4byte	.LBB12
 1073 0320 A2000000 		.4byte	.LBE12
 1074 0324 01       		.byte	0x1
 1075 0325 52       		.byte	0x52
 1076 0326 1C       		.uleb128 0x1c
 1077 0327 18000000 		.4byte	.Ldebug_ranges0+0x18
 1078 032b 1D       		.uleb128 0x1d
 1079 032c 93020000 		.4byte	0x293
 1080 0330 87000000 		.4byte	.LLST4
 1081 0334 1D       		.uleb128 0x1d
 1082 0335 9D020000 		.4byte	0x29d
 1083 0339 B0000000 		.4byte	.LLST5
 1084 033d 1E       		.uleb128 0x1e
 1085 033e A8020000 		.4byte	0x2a8
 1086 0342 00       		.byte	0x0
 1087 0343 00       		.byte	0x0
 1088 0344 1F       		.uleb128 0x1f
 1089 0345 84030000 		.4byte	0x384
 1090 0349 EE000000 		.4byte	.LBB22
 1091 034d 60010000 		.4byte	.LBE22
 1092 0351 15       		.uleb128 0x15
 1093 0352 6900     		.ascii	"i\000"
 1094 0354 01       		.byte	0x1
 1095 0355 85       		.byte	0x85
 1096 0356 F5010000 		.4byte	0x1f5
 1097 035a 16       		.uleb128 0x16
 1098 035b FE010000 		.4byte	.LASF49
 1099 035f 01       		.byte	0x1
 1100 0360 86       		.byte	0x86
 1101 0361 F5010000 		.4byte	0x1f5
 1102 0365 20       		.uleb128 0x20
 1103 0366 01010000 		.4byte	.LASF50
 1104 036a 01       		.byte	0x1
ARM GAS  /cygdrive/c/DOCUME~1/mkwapisz/LOCALS~1/Temp/ccRGl3Ms.s 			page 25


 1105 036b 88       		.byte	0x88
 1106 036c A4030000 		.4byte	0x3a4
 1107 0370 03       		.byte	0x3
 1108 0371 91       		.byte	0x91
 1109 0372 F87E     		.sleb128 -136
 1110 0374 21       		.uleb128 0x21
 1111 0375 70636800 		.ascii	"pch\000"
 1112 0379 01       		.byte	0x1
 1113 037a 8D       		.byte	0x8d
 1114 037b 5D000000 		.4byte	0x5d
 1115 037f DB000000 		.4byte	.LLST6
 1116 0383 00       		.byte	0x0
 1117 0384 22       		.uleb128 0x22
 1118 0385 C2020000 		.4byte	0x2c2
 1119 0389 6E010000 		.4byte	.LBB23
 1120 038d 8C010000 		.4byte	.LBE23
 1121 0391 01       		.byte	0x1
 1122 0392 A4       		.byte	0xa4
 1123 0393 1C       		.uleb128 0x1c
 1124 0394 48000000 		.4byte	.Ldebug_ranges0+0x48
 1125 0398 1D       		.uleb128 0x1d
 1126 0399 D3020000 		.4byte	0x2d3
 1127 039d 0F010000 		.4byte	.LLST7
 1128 03a1 00       		.byte	0x0
 1129 03a2 00       		.byte	0x0
 1130 03a3 00       		.byte	0x0
 1131 03a4 0E       		.uleb128 0xe
 1132 03a5 B4030000 		.4byte	0x3b4
 1133 03a9 63000000 		.4byte	0x63
 1134 03ad 0F       		.uleb128 0xf
 1135 03ae 41000000 		.4byte	0x41
 1136 03b2 63       		.byte	0x63
 1137 03b3 00       		.byte	0x0
 1138 03b4 0E       		.uleb128 0xe
 1139 03b5 C5030000 		.4byte	0x3c5
 1140 03b9 EA010000 		.4byte	0x1ea
 1141 03bd 23       		.uleb128 0x23
 1142 03be 41000000 		.4byte	0x41
 1143 03c2 FF01     		.2byte	0x1ff
 1144 03c4 00       		.byte	0x0
 1145 03c5 20       		.uleb128 0x20
 1146 03c6 28020000 		.4byte	.LASF51
 1147 03ca 01       		.byte	0x1
 1148 03cb 0D       		.byte	0xd
 1149 03cc B4030000 		.4byte	0x3b4
 1150 03d0 05       		.byte	0x5
 1151 03d1 03       		.byte	0x3
 1152 03d2 00000000 		.4byte	buffer
 1153 03d6 20       		.uleb128 0x20
 1154 03d7 DD010000 		.4byte	.LASF52
 1155 03db 01       		.byte	0x1
 1156 03dc 0E       		.byte	0xe
 1157 03dd 90010000 		.4byte	0x190
 1158 03e1 05       		.byte	0x5
 1159 03e2 03       		.byte	0x3
 1160 03e3 00020000 		.4byte	fatFileSystem
 1161 03e7 20       		.uleb128 0x20
ARM GAS  /cygdrive/c/DOCUME~1/mkwapisz/LOCALS~1/Temp/ccRGl3Ms.s 			page 26


 1162 03e8 EB010000 		.4byte	.LASF53
 1163 03ec 01       		.byte	0x1
 1164 03ed 0F       		.byte	0xf
 1165 03ee A0000000 		.4byte	0xa0
 1166 03f2 05       		.byte	0x5
 1167 03f3 03       		.byte	0x3
 1168 03f4 30020000 		.4byte	sdStatus
 1169 03f8 00       		.byte	0x0
 1170              		.section	.debug_abbrev
 1171 0000 01       		.uleb128 0x1
 1172 0001 11       		.uleb128 0x11
 1173 0002 01       		.byte	0x1
 1174 0003 10       		.uleb128 0x10
 1175 0004 06       		.uleb128 0x6
 1176 0005 12       		.uleb128 0x12
 1177 0006 01       		.uleb128 0x1
 1178 0007 11       		.uleb128 0x11
 1179 0008 01       		.uleb128 0x1
 1180 0009 25       		.uleb128 0x25
 1181 000a 0E       		.uleb128 0xe
 1182 000b 13       		.uleb128 0x13
 1183 000c 0B       		.uleb128 0xb
 1184 000d 03       		.uleb128 0x3
 1185 000e 0E       		.uleb128 0xe
 1186 000f 1B       		.uleb128 0x1b
 1187 0010 0E       		.uleb128 0xe
 1188 0011 00       		.byte	0x0
 1189 0012 00       		.byte	0x0
 1190 0013 02       		.uleb128 0x2
 1191 0014 24       		.uleb128 0x24
 1192 0015 00       		.byte	0x0
 1193 0016 03       		.uleb128 0x3
 1194 0017 08       		.uleb128 0x8
 1195 0018 0B       		.uleb128 0xb
 1196 0019 0B       		.uleb128 0xb
 1197 001a 3E       		.uleb128 0x3e
 1198 001b 0B       		.uleb128 0xb
 1199 001c 00       		.byte	0x0
 1200 001d 00       		.byte	0x0
 1201 001e 03       		.uleb128 0x3
 1202 001f 24       		.uleb128 0x24
 1203 0020 00       		.byte	0x0
 1204 0021 03       		.uleb128 0x3
 1205 0022 0E       		.uleb128 0xe
 1206 0023 0B       		.uleb128 0xb
 1207 0024 0B       		.uleb128 0xb
 1208 0025 3E       		.uleb128 0x3e
 1209 0026 0B       		.uleb128 0xb
 1210 0027 00       		.byte	0x0
 1211 0028 00       		.byte	0x0
 1212 0029 04       		.uleb128 0x4
 1213 002a 0F       		.uleb128 0xf
 1214 002b 00       		.byte	0x0
 1215 002c 0B       		.uleb128 0xb
 1216 002d 0B       		.uleb128 0xb
 1217 002e 49       		.uleb128 0x49
 1218 002f 13       		.uleb128 0x13
ARM GAS  /cygdrive/c/DOCUME~1/mkwapisz/LOCALS~1/Temp/ccRGl3Ms.s 			page 27


 1219 0030 00       		.byte	0x0
 1220 0031 00       		.byte	0x0
 1221 0032 05       		.uleb128 0x5
 1222 0033 26       		.uleb128 0x26
 1223 0034 00       		.byte	0x0
 1224 0035 49       		.uleb128 0x49
 1225 0036 13       		.uleb128 0x13
 1226 0037 00       		.byte	0x0
 1227 0038 00       		.byte	0x0
 1228 0039 06       		.uleb128 0x6
 1229 003a 16       		.uleb128 0x16
 1230 003b 00       		.byte	0x0
 1231 003c 03       		.uleb128 0x3
 1232 003d 0E       		.uleb128 0xe
 1233 003e 3A       		.uleb128 0x3a
 1234 003f 0B       		.uleb128 0xb
 1235 0040 3B       		.uleb128 0x3b
 1236 0041 0B       		.uleb128 0xb
 1237 0042 49       		.uleb128 0x49
 1238 0043 13       		.uleb128 0x13
 1239 0044 00       		.byte	0x0
 1240 0045 00       		.byte	0x0
 1241 0046 07       		.uleb128 0x7
 1242 0047 13       		.uleb128 0x13
 1243 0048 01       		.byte	0x1
 1244 0049 01       		.uleb128 0x1
 1245 004a 13       		.uleb128 0x13
 1246 004b 03       		.uleb128 0x3
 1247 004c 0E       		.uleb128 0xe
 1248 004d 0B       		.uleb128 0xb
 1249 004e 0B       		.uleb128 0xb
 1250 004f 3A       		.uleb128 0x3a
 1251 0050 0B       		.uleb128 0xb
 1252 0051 3B       		.uleb128 0x3b
 1253 0052 0B       		.uleb128 0xb
 1254 0053 00       		.byte	0x0
 1255 0054 00       		.byte	0x0
 1256 0055 08       		.uleb128 0x8
 1257 0056 0D       		.uleb128 0xd
 1258 0057 00       		.byte	0x0
 1259 0058 03       		.uleb128 0x3
 1260 0059 0E       		.uleb128 0xe
 1261 005a 3A       		.uleb128 0x3a
 1262 005b 0B       		.uleb128 0xb
 1263 005c 3B       		.uleb128 0x3b
 1264 005d 0B       		.uleb128 0xb
 1265 005e 49       		.uleb128 0x49
 1266 005f 13       		.uleb128 0x13
 1267 0060 38       		.uleb128 0x38
 1268 0061 0A       		.uleb128 0xa
 1269 0062 00       		.byte	0x0
 1270 0063 00       		.byte	0x0
 1271 0064 09       		.uleb128 0x9
 1272 0065 0D       		.uleb128 0xd
 1273 0066 00       		.byte	0x0
 1274 0067 03       		.uleb128 0x3
 1275 0068 08       		.uleb128 0x8
ARM GAS  /cygdrive/c/DOCUME~1/mkwapisz/LOCALS~1/Temp/ccRGl3Ms.s 			page 28


 1276 0069 3A       		.uleb128 0x3a
 1277 006a 0B       		.uleb128 0xb
 1278 006b 3B       		.uleb128 0x3b
 1279 006c 0B       		.uleb128 0xb
 1280 006d 49       		.uleb128 0x49
 1281 006e 13       		.uleb128 0x13
 1282 006f 38       		.uleb128 0x38
 1283 0070 0A       		.uleb128 0xa
 1284 0071 00       		.byte	0x0
 1285 0072 00       		.byte	0x0
 1286 0073 0A       		.uleb128 0xa
 1287 0074 04       		.uleb128 0x4
 1288 0075 01       		.byte	0x1
 1289 0076 01       		.uleb128 0x1
 1290 0077 13       		.uleb128 0x13
 1291 0078 0B       		.uleb128 0xb
 1292 0079 0B       		.uleb128 0xb
 1293 007a 3A       		.uleb128 0x3a
 1294 007b 0B       		.uleb128 0xb
 1295 007c 3B       		.uleb128 0x3b
 1296 007d 0B       		.uleb128 0xb
 1297 007e 00       		.byte	0x0
 1298 007f 00       		.byte	0x0
 1299 0080 0B       		.uleb128 0xb
 1300 0081 28       		.uleb128 0x28
 1301 0082 00       		.byte	0x0
 1302 0083 03       		.uleb128 0x3
 1303 0084 0E       		.uleb128 0xe
 1304 0085 1C       		.uleb128 0x1c
 1305 0086 0D       		.uleb128 0xd
 1306 0087 00       		.byte	0x0
 1307 0088 00       		.byte	0x0
 1308 0089 0C       		.uleb128 0xc
 1309 008a 16       		.uleb128 0x16
 1310 008b 00       		.byte	0x0
 1311 008c 03       		.uleb128 0x3
 1312 008d 08       		.uleb128 0x8
 1313 008e 3A       		.uleb128 0x3a
 1314 008f 0B       		.uleb128 0xb
 1315 0090 3B       		.uleb128 0x3b
 1316 0091 0B       		.uleb128 0xb
 1317 0092 49       		.uleb128 0x49
 1318 0093 13       		.uleb128 0x13
 1319 0094 00       		.byte	0x0
 1320 0095 00       		.byte	0x0
 1321 0096 0D       		.uleb128 0xd
 1322 0097 13       		.uleb128 0x13
 1323 0098 01       		.byte	0x1
 1324 0099 01       		.uleb128 0x1
 1325 009a 13       		.uleb128 0x13
 1326 009b 0B       		.uleb128 0xb
 1327 009c 0B       		.uleb128 0xb
 1328 009d 3A       		.uleb128 0x3a
 1329 009e 0B       		.uleb128 0xb
 1330 009f 3B       		.uleb128 0x3b
 1331 00a0 0B       		.uleb128 0xb
 1332 00a1 00       		.byte	0x0
ARM GAS  /cygdrive/c/DOCUME~1/mkwapisz/LOCALS~1/Temp/ccRGl3Ms.s 			page 29


 1333 00a2 00       		.byte	0x0
 1334 00a3 0E       		.uleb128 0xe
 1335 00a4 01       		.uleb128 0x1
 1336 00a5 01       		.byte	0x1
 1337 00a6 01       		.uleb128 0x1
 1338 00a7 13       		.uleb128 0x13
 1339 00a8 49       		.uleb128 0x49
 1340 00a9 13       		.uleb128 0x13
 1341 00aa 00       		.byte	0x0
 1342 00ab 00       		.byte	0x0
 1343 00ac 0F       		.uleb128 0xf
 1344 00ad 21       		.uleb128 0x21
 1345 00ae 00       		.byte	0x0
 1346 00af 49       		.uleb128 0x49
 1347 00b0 13       		.uleb128 0x13
 1348 00b1 2F       		.uleb128 0x2f
 1349 00b2 0B       		.uleb128 0xb
 1350 00b3 00       		.byte	0x0
 1351 00b4 00       		.byte	0x0
 1352 00b5 10       		.uleb128 0x10
 1353 00b6 2E       		.uleb128 0x2e
 1354 00b7 01       		.byte	0x1
 1355 00b8 01       		.uleb128 0x1
 1356 00b9 13       		.uleb128 0x13
 1357 00ba 03       		.uleb128 0x3
 1358 00bb 0E       		.uleb128 0xe
 1359 00bc 3A       		.uleb128 0x3a
 1360 00bd 0B       		.uleb128 0xb
 1361 00be 3B       		.uleb128 0x3b
 1362 00bf 0B       		.uleb128 0xb
 1363 00c0 27       		.uleb128 0x27
 1364 00c1 0C       		.uleb128 0xc
 1365 00c2 11       		.uleb128 0x11
 1366 00c3 01       		.uleb128 0x1
 1367 00c4 12       		.uleb128 0x12
 1368 00c5 01       		.uleb128 0x1
 1369 00c6 40       		.uleb128 0x40
 1370 00c7 06       		.uleb128 0x6
 1371 00c8 00       		.byte	0x0
 1372 00c9 00       		.byte	0x0
 1373 00ca 11       		.uleb128 0x11
 1374 00cb 05       		.uleb128 0x5
 1375 00cc 00       		.byte	0x0
 1376 00cd 03       		.uleb128 0x3
 1377 00ce 08       		.uleb128 0x8
 1378 00cf 3A       		.uleb128 0x3a
 1379 00d0 0B       		.uleb128 0xb
 1380 00d1 3B       		.uleb128 0x3b
 1381 00d2 0B       		.uleb128 0xb
 1382 00d3 49       		.uleb128 0x49
 1383 00d4 13       		.uleb128 0x13
 1384 00d5 02       		.uleb128 0x2
 1385 00d6 06       		.uleb128 0x6
 1386 00d7 00       		.byte	0x0
 1387 00d8 00       		.byte	0x0
 1388 00d9 12       		.uleb128 0x12
 1389 00da 05       		.uleb128 0x5
ARM GAS  /cygdrive/c/DOCUME~1/mkwapisz/LOCALS~1/Temp/ccRGl3Ms.s 			page 30


 1390 00db 00       		.byte	0x0
 1391 00dc 03       		.uleb128 0x3
 1392 00dd 0E       		.uleb128 0xe
 1393 00de 3A       		.uleb128 0x3a
 1394 00df 0B       		.uleb128 0xb
 1395 00e0 3B       		.uleb128 0x3b
 1396 00e1 0B       		.uleb128 0xb
 1397 00e2 49       		.uleb128 0x49
 1398 00e3 13       		.uleb128 0x13
 1399 00e4 02       		.uleb128 0x2
 1400 00e5 06       		.uleb128 0x6
 1401 00e6 00       		.byte	0x0
 1402 00e7 00       		.byte	0x0
 1403 00e8 13       		.uleb128 0x13
 1404 00e9 2E       		.uleb128 0x2e
 1405 00ea 01       		.byte	0x1
 1406 00eb 01       		.uleb128 0x1
 1407 00ec 13       		.uleb128 0x13
 1408 00ed 03       		.uleb128 0x3
 1409 00ee 0E       		.uleb128 0xe
 1410 00ef 3A       		.uleb128 0x3a
 1411 00f0 0B       		.uleb128 0xb
 1412 00f1 3B       		.uleb128 0x3b
 1413 00f2 0B       		.uleb128 0xb
 1414 00f3 27       		.uleb128 0x27
 1415 00f4 0C       		.uleb128 0xc
 1416 00f5 49       		.uleb128 0x49
 1417 00f6 13       		.uleb128 0x13
 1418 00f7 20       		.uleb128 0x20
 1419 00f8 0B       		.uleb128 0xb
 1420 00f9 00       		.byte	0x0
 1421 00fa 00       		.byte	0x0
 1422 00fb 14       		.uleb128 0x14
 1423 00fc 0B       		.uleb128 0xb
 1424 00fd 01       		.byte	0x1
 1425 00fe 00       		.byte	0x0
 1426 00ff 00       		.byte	0x0
 1427 0100 15       		.uleb128 0x15
 1428 0101 34       		.uleb128 0x34
 1429 0102 00       		.byte	0x0
 1430 0103 03       		.uleb128 0x3
 1431 0104 08       		.uleb128 0x8
 1432 0105 3A       		.uleb128 0x3a
 1433 0106 0B       		.uleb128 0xb
 1434 0107 3B       		.uleb128 0x3b
 1435 0108 0B       		.uleb128 0xb
 1436 0109 49       		.uleb128 0x49
 1437 010a 13       		.uleb128 0x13
 1438 010b 00       		.byte	0x0
 1439 010c 00       		.byte	0x0
 1440 010d 16       		.uleb128 0x16
 1441 010e 34       		.uleb128 0x34
 1442 010f 00       		.byte	0x0
 1443 0110 03       		.uleb128 0x3
 1444 0111 0E       		.uleb128 0xe
 1445 0112 3A       		.uleb128 0x3a
 1446 0113 0B       		.uleb128 0xb
ARM GAS  /cygdrive/c/DOCUME~1/mkwapisz/LOCALS~1/Temp/ccRGl3Ms.s 			page 31


 1447 0114 3B       		.uleb128 0x3b
 1448 0115 0B       		.uleb128 0xb
 1449 0116 49       		.uleb128 0x49
 1450 0117 13       		.uleb128 0x13
 1451 0118 00       		.byte	0x0
 1452 0119 00       		.byte	0x0
 1453 011a 17       		.uleb128 0x17
 1454 011b 2E       		.uleb128 0x2e
 1455 011c 00       		.byte	0x0
 1456 011d 03       		.uleb128 0x3
 1457 011e 0E       		.uleb128 0xe
 1458 011f 3A       		.uleb128 0x3a
 1459 0120 0B       		.uleb128 0xb
 1460 0121 3B       		.uleb128 0x3b
 1461 0122 0B       		.uleb128 0xb
 1462 0123 27       		.uleb128 0x27
 1463 0124 0C       		.uleb128 0xc
 1464 0125 49       		.uleb128 0x49
 1465 0126 13       		.uleb128 0x13
 1466 0127 20       		.uleb128 0x20
 1467 0128 0B       		.uleb128 0xb
 1468 0129 00       		.byte	0x0
 1469 012a 00       		.byte	0x0
 1470 012b 18       		.uleb128 0x18
 1471 012c 2E       		.uleb128 0x2e
 1472 012d 01       		.byte	0x1
 1473 012e 01       		.uleb128 0x1
 1474 012f 13       		.uleb128 0x13
 1475 0130 3F       		.uleb128 0x3f
 1476 0131 0C       		.uleb128 0xc
 1477 0132 03       		.uleb128 0x3
 1478 0133 0E       		.uleb128 0xe
 1479 0134 3A       		.uleb128 0x3a
 1480 0135 0B       		.uleb128 0xb
 1481 0136 3B       		.uleb128 0x3b
 1482 0137 0B       		.uleb128 0xb
 1483 0138 27       		.uleb128 0x27
 1484 0139 0C       		.uleb128 0xc
 1485 013a 49       		.uleb128 0x49
 1486 013b 13       		.uleb128 0x13
 1487 013c 11       		.uleb128 0x11
 1488 013d 01       		.uleb128 0x1
 1489 013e 12       		.uleb128 0x12
 1490 013f 01       		.uleb128 0x1
 1491 0140 40       		.uleb128 0x40
 1492 0141 06       		.uleb128 0x6
 1493 0142 00       		.byte	0x0
 1494 0143 00       		.byte	0x0
 1495 0144 19       		.uleb128 0x19
 1496 0145 34       		.uleb128 0x34
 1497 0146 00       		.byte	0x0
 1498 0147 03       		.uleb128 0x3
 1499 0148 08       		.uleb128 0x8
 1500 0149 3A       		.uleb128 0x3a
 1501 014a 0B       		.uleb128 0xb
 1502 014b 3B       		.uleb128 0x3b
 1503 014c 0B       		.uleb128 0xb
ARM GAS  /cygdrive/c/DOCUME~1/mkwapisz/LOCALS~1/Temp/ccRGl3Ms.s 			page 32


 1504 014d 49       		.uleb128 0x49
 1505 014e 13       		.uleb128 0x13
 1506 014f 02       		.uleb128 0x2
 1507 0150 0A       		.uleb128 0xa
 1508 0151 00       		.byte	0x0
 1509 0152 00       		.byte	0x0
 1510 0153 1A       		.uleb128 0x1a
 1511 0154 1D       		.uleb128 0x1d
 1512 0155 01       		.byte	0x1
 1513 0156 01       		.uleb128 0x1
 1514 0157 13       		.uleb128 0x13
 1515 0158 31       		.uleb128 0x31
 1516 0159 13       		.uleb128 0x13
 1517 015a 55       		.uleb128 0x55
 1518 015b 06       		.uleb128 0x6
 1519 015c 58       		.uleb128 0x58
 1520 015d 0B       		.uleb128 0xb
 1521 015e 59       		.uleb128 0x59
 1522 015f 0B       		.uleb128 0xb
 1523 0160 00       		.byte	0x0
 1524 0161 00       		.byte	0x0
 1525 0162 1B       		.uleb128 0x1b
 1526 0163 1D       		.uleb128 0x1d
 1527 0164 00       		.byte	0x0
 1528 0165 31       		.uleb128 0x31
 1529 0166 13       		.uleb128 0x13
 1530 0167 11       		.uleb128 0x11
 1531 0168 01       		.uleb128 0x1
 1532 0169 12       		.uleb128 0x12
 1533 016a 01       		.uleb128 0x1
 1534 016b 58       		.uleb128 0x58
 1535 016c 0B       		.uleb128 0xb
 1536 016d 59       		.uleb128 0x59
 1537 016e 0B       		.uleb128 0xb
 1538 016f 00       		.byte	0x0
 1539 0170 00       		.byte	0x0
 1540 0171 1C       		.uleb128 0x1c
 1541 0172 0B       		.uleb128 0xb
 1542 0173 01       		.byte	0x1
 1543 0174 55       		.uleb128 0x55
 1544 0175 06       		.uleb128 0x6
 1545 0176 00       		.byte	0x0
 1546 0177 00       		.byte	0x0
 1547 0178 1D       		.uleb128 0x1d
 1548 0179 34       		.uleb128 0x34
 1549 017a 00       		.byte	0x0
 1550 017b 31       		.uleb128 0x31
 1551 017c 13       		.uleb128 0x13
 1552 017d 02       		.uleb128 0x2
 1553 017e 06       		.uleb128 0x6
 1554 017f 00       		.byte	0x0
 1555 0180 00       		.byte	0x0
 1556 0181 1E       		.uleb128 0x1e
 1557 0182 34       		.uleb128 0x34
 1558 0183 00       		.byte	0x0
 1559 0184 31       		.uleb128 0x31
 1560 0185 13       		.uleb128 0x13
ARM GAS  /cygdrive/c/DOCUME~1/mkwapisz/LOCALS~1/Temp/ccRGl3Ms.s 			page 33


 1561 0186 00       		.byte	0x0
 1562 0187 00       		.byte	0x0
 1563 0188 1F       		.uleb128 0x1f
 1564 0189 0B       		.uleb128 0xb
 1565 018a 01       		.byte	0x1
 1566 018b 01       		.uleb128 0x1
 1567 018c 13       		.uleb128 0x13
 1568 018d 11       		.uleb128 0x11
 1569 018e 01       		.uleb128 0x1
 1570 018f 12       		.uleb128 0x12
 1571 0190 01       		.uleb128 0x1
 1572 0191 00       		.byte	0x0
 1573 0192 00       		.byte	0x0
 1574 0193 20       		.uleb128 0x20
 1575 0194 34       		.uleb128 0x34
 1576 0195 00       		.byte	0x0
 1577 0196 03       		.uleb128 0x3
 1578 0197 0E       		.uleb128 0xe
 1579 0198 3A       		.uleb128 0x3a
 1580 0199 0B       		.uleb128 0xb
 1581 019a 3B       		.uleb128 0x3b
 1582 019b 0B       		.uleb128 0xb
 1583 019c 49       		.uleb128 0x49
 1584 019d 13       		.uleb128 0x13
 1585 019e 02       		.uleb128 0x2
 1586 019f 0A       		.uleb128 0xa
 1587 01a0 00       		.byte	0x0
 1588 01a1 00       		.byte	0x0
 1589 01a2 21       		.uleb128 0x21
 1590 01a3 34       		.uleb128 0x34
 1591 01a4 00       		.byte	0x0
 1592 01a5 03       		.uleb128 0x3
 1593 01a6 08       		.uleb128 0x8
 1594 01a7 3A       		.uleb128 0x3a
 1595 01a8 0B       		.uleb128 0xb
 1596 01a9 3B       		.uleb128 0x3b
 1597 01aa 0B       		.uleb128 0xb
 1598 01ab 49       		.uleb128 0x49
 1599 01ac 13       		.uleb128 0x13
 1600 01ad 02       		.uleb128 0x2
 1601 01ae 06       		.uleb128 0x6
 1602 01af 00       		.byte	0x0
 1603 01b0 00       		.byte	0x0
 1604 01b1 22       		.uleb128 0x22
 1605 01b2 1D       		.uleb128 0x1d
 1606 01b3 01       		.byte	0x1
 1607 01b4 31       		.uleb128 0x31
 1608 01b5 13       		.uleb128 0x13
 1609 01b6 11       		.uleb128 0x11
 1610 01b7 01       		.uleb128 0x1
 1611 01b8 12       		.uleb128 0x12
 1612 01b9 01       		.uleb128 0x1
 1613 01ba 58       		.uleb128 0x58
 1614 01bb 0B       		.uleb128 0xb
 1615 01bc 59       		.uleb128 0x59
 1616 01bd 0B       		.uleb128 0xb
 1617 01be 00       		.byte	0x0
ARM GAS  /cygdrive/c/DOCUME~1/mkwapisz/LOCALS~1/Temp/ccRGl3Ms.s 			page 34


 1618 01bf 00       		.byte	0x0
 1619 01c0 23       		.uleb128 0x23
 1620 01c1 21       		.uleb128 0x21
 1621 01c2 00       		.byte	0x0
 1622 01c3 49       		.uleb128 0x49
 1623 01c4 13       		.uleb128 0x13
 1624 01c5 2F       		.uleb128 0x2f
 1625 01c6 05       		.uleb128 0x5
 1626 01c7 00       		.byte	0x0
 1627 01c8 00       		.byte	0x0
 1628 01c9 00       		.byte	0x0
 1629              		.section	.debug_pubnames,"",%progbits
 1630 0000 20000000 		.4byte	0x20
 1631 0004 0200     		.2byte	0x2
 1632 0006 00000000 		.4byte	.Ldebug_info0
 1633 000a F9030000 		.4byte	0x3f9
 1634 000e DE020000 		.4byte	0x2de
 1635 0012 6765744C 		.ascii	"getLastHScore\000"
 1635      61737448 
 1635      53636F72 
 1635      6500
 1636 0020 00000000 		.4byte	0x0
 1637              		.section	.debug_aranges,"",%progbits
 1638 0000 1C000000 		.4byte	0x1c
 1639 0004 0200     		.2byte	0x2
 1640 0006 00000000 		.4byte	.Ldebug_info0
 1641 000a 04       		.byte	0x4
 1642 000b 00       		.byte	0x0
 1643 000c 0000     		.2byte	0x0
 1644 000e 0000     		.2byte	0x0
 1645 0010 00000000 		.4byte	.Ltext0
 1646 0014 0C020000 		.4byte	.Letext0-.Ltext0
 1647 0018 00000000 		.4byte	0x0
 1648 001c 00000000 		.4byte	0x0
 1649              		.section	.debug_ranges,"",%progbits
 1650              	.Ldebug_ranges0:
 1651 0000 66000000 		.4byte	.LBB10-.Ltext0
 1652 0004 E8000000 		.4byte	.LBE10-.Ltext0
 1653 0008 94010000 		.4byte	.LBB26-.Ltext0
 1654 000c A2010000 		.4byte	.LBE26-.Ltext0
 1655 0010 00000000 		.4byte	0x0
 1656 0014 00000000 		.4byte	0x0
 1657 0018 A2000000 		.4byte	.LBB15-.Ltext0
 1658 001c AE000000 		.4byte	.LBE15-.Ltext0
 1659 0020 94010000 		.4byte	.LBB28-.Ltext0
 1660 0024 A2010000 		.4byte	.LBE28-.Ltext0
 1661 0028 CC000000 		.4byte	.LBB21-.Ltext0
 1662 002c E8000000 		.4byte	.LBE21-.Ltext0
 1663 0030 C8000000 		.4byte	.LBB19-.Ltext0
 1664 0034 CA000000 		.4byte	.LBE19-.Ltext0
 1665 0038 B4000000 		.4byte	.LBB17-.Ltext0
 1666 003c BA000000 		.4byte	.LBE17-.Ltext0
 1667 0040 00000000 		.4byte	0x0
 1668 0044 00000000 		.4byte	0x0
 1669 0048 74010000 		.4byte	.LBB24-.Ltext0
 1670 004c 76010000 		.4byte	.LBE24-.Ltext0
 1671 0050 78010000 		.4byte	.LBB25-.Ltext0
ARM GAS  /cygdrive/c/DOCUME~1/mkwapisz/LOCALS~1/Temp/ccRGl3Ms.s 			page 35


 1672 0054 8C010000 		.4byte	.LBE25-.Ltext0
 1673 0058 00000000 		.4byte	0x0
 1674 005c 00000000 		.4byte	0x0
 1675              		.section	.debug_str,"MS",%progbits,1
 1676              	.LASF30:
 1677 0000 46525F4E 		.ascii	"FR_NOT_READY\000"
 1677      4F545F52 
 1677      45414459 
 1677      00
 1678              	.LASF59:
 1679 000d 6765744C 		.ascii	"getLastHScore\000"
 1679      61737448 
 1679      53636F72 
 1679      6500
 1680              	.LASF13:
 1681 001b 66735F74 		.ascii	"fs_type\000"
 1681      79706500 
 1682              	.LASF16:
 1683 0023 63736563 		.ascii	"csect\000"
 1683      7400
 1684              	.LASF17:
 1685 0029 6E5F726F 		.ascii	"n_rootdir\000"
 1685      6F746469 
 1685      7200
 1686              	.LASF8:
 1687 0033 6C6F6E67 		.ascii	"long long unsigned int\000"
 1687      206C6F6E 
 1687      6720756E 
 1687      7369676E 
 1687      65642069 
 1688              	.LASF41:
 1689 004a 706C6179 		.ascii	"player\000"
 1689      657200
 1690              	.LASF56:
 1691 0051 2F637967 		.ascii	"/cygdrive/z/IntergatedSystems\000"
 1691      64726976 
 1691      652F7A2F 
 1691      496E7465 
 1691      72676174 
 1692              	.LASF12:
 1693 006f 44574F52 		.ascii	"DWORD\000"
 1693      4400
 1694              	.LASF20:
 1695 0075 64697262 		.ascii	"dirbase\000"
 1695      61736500 
 1696              	.LASF1:
 1697 007d 6C6F6E67 		.ascii	"long long int\000"
 1697      206C6F6E 
 1697      6720696E 
 1697      7400
 1698              	.LASF9:
 1699 008b 7369676E 		.ascii	"signed char\000"
 1699      65642063 
 1699      68617200 
 1700              	.LASF23:
 1701 0097 6673697A 		.ascii	"fsize\000"
 1701      6500
ARM GAS  /cygdrive/c/DOCUME~1/mkwapisz/LOCALS~1/Temp/ccRGl3Ms.s 			page 36


 1702              	.LASF21:
 1703 009d 64617461 		.ascii	"database\000"
 1703      62617365 
 1703      00
 1704              	.LASF37:
 1705 00a6 74553136 		.ascii	"tU16\000"
 1705      00
 1706              	.LASF0:
 1707 00ab 6C6F6E67 		.ascii	"long int\000"
 1707      20696E74 
 1707      00
 1708              	.LASF46:
 1709 00b4 62797465 		.ascii	"bytesRead\000"
 1709      73526561 
 1709      6400
 1710              	.LASF35:
 1711 00be 46525F4E 		.ascii	"FR_NO_FILESYSTEM\000"
 1711      4F5F4649 
 1711      4C455359 
 1711      5354454D 
 1711      00
 1712              	.LASF24:
 1713 00cf 6F72675F 		.ascii	"org_clust\000"
 1713      636C7573 
 1713      7400
 1714              	.LASF19:
 1715 00d9 66617462 		.ascii	"fatbase\000"
 1715      61736500 
 1716              	.LASF40:
 1717 00e1 73636F72 		.ascii	"score\000"
 1717      6500
 1718              	.LASF43:
 1719 00e7 61637469 		.ascii	"action\000"
 1719      6F6E00
 1720              	.LASF14:
 1721 00ee 6373697A 		.ascii	"csize\000"
 1721      6500
 1722              	.LASF2:
 1723 00f4 756E7369 		.ascii	"unsigned int\000"
 1723      676E6564 
 1723      20696E74 
 1723      00
 1724              	.LASF50:
 1725 0101 73636F72 		.ascii	"scoreEntry\000"
 1725      65456E74 
 1725      727900
 1726              	.LASF3:
 1727 010c 6C6F6E67 		.ascii	"long unsigned int\000"
 1727      20756E73 
 1727      69676E65 
 1727      6420696E 
 1727      7400
 1728              	.LASF39:
 1729 011e 74426F6F 		.ascii	"tBool\000"
 1729      6C00
 1730              	.LASF7:
 1731 0124 73686F72 		.ascii	"short unsigned int\000"
ARM GAS  /cygdrive/c/DOCUME~1/mkwapisz/LOCALS~1/Temp/ccRGl3Ms.s 			page 37


 1731      7420756E 
 1731      7369676E 
 1731      65642069 
 1731      6E7400
 1732              	.LASF10:
 1733 0137 42595445 		.ascii	"BYTE\000"
 1733      00
 1734              	.LASF29:
 1735 013c 46525F44 		.ascii	"FR_DISK_ERR\000"
 1735      49534B5F 
 1735      45525200 
 1736              	.LASF48:
 1737 0148 756D6F75 		.ascii	"umountRepo\000"
 1737      6E745265 
 1737      706F00
 1738              	.LASF11:
 1739 0153 574F5244 		.ascii	"WORD\000"
 1739      00
 1740              	.LASF27:
 1741 0158 46415446 		.ascii	"FATFS\000"
 1741      5300
 1742              	.LASF22:
 1743 015e 66707472 		.ascii	"fptr\000"
 1743      00
 1744              	.LASF33:
 1745 0163 46525F4E 		.ascii	"FR_NOT_OPENED\000"
 1745      4F545F4F 
 1745      50454E45 
 1745      4400
 1746              	.LASF18:
 1747 0171 6D61785F 		.ascii	"max_clust\000"
 1747      636C7573 
 1747      7400
 1748              	.LASF58:
 1749 017b 696E6974 		.ascii	"initSD\000"
 1749      534400
 1750              	.LASF44:
 1751 0182 7072696E 		.ascii	"printStatus\000"
 1751      74537461 
 1751      74757300 
 1752              	.LASF31:
 1753 018e 46525F4E 		.ascii	"FR_NO_FILE\000"
 1753      4F5F4649 
 1753      4C4500
 1754              	.LASF38:
 1755 0199 74533136 		.ascii	"tS16\000"
 1755      00
 1756              	.LASF34:
 1757 019e 46525F4E 		.ascii	"FR_NOT_ENABLED\000"
 1757      4F545F45 
 1757      4E41424C 
 1757      454400
 1758              	.LASF26:
 1759 01ad 64736563 		.ascii	"dsect\000"
 1759      7400
 1760              	.LASF55:
 1761 01b3 6873636F 		.ascii	"hscore/hscore.c\000"
ARM GAS  /cygdrive/c/DOCUME~1/mkwapisz/LOCALS~1/Temp/ccRGl3Ms.s 			page 38


 1761      72652F68 
 1761      73636F72 
 1761      652E6300 
 1762              	.LASF4:
 1763 01c3 756E7369 		.ascii	"unsigned char\000"
 1763      676E6564 
 1763      20636861 
 1763      7200
 1764              	.LASF54:
 1765 01d1 474E5520 		.ascii	"GNU C 4.1.1\000"
 1765      4320342E 
 1765      312E3100 
 1766              	.LASF52:
 1767 01dd 66617446 		.ascii	"fatFileSystem\000"
 1767      696C6553 
 1767      79737465 
 1767      6D00
 1768              	.LASF53:
 1769 01eb 73645374 		.ascii	"sdStatus\000"
 1769      61747573 
 1769      00
 1770              	.LASF5:
 1771 01f4 73686F72 		.ascii	"short int\000"
 1771      7420696E 
 1771      7400
 1772              	.LASF49:
 1773 01fe 636F756E 		.ascii	"counter\000"
 1773      74657200 
 1774              	.LASF15:
 1775 0206 666C6167 		.ascii	"flag\000"
 1775      00
 1776              	.LASF45:
 1777 020b 6D6F756E 		.ascii	"mountRepo\000"
 1777      74526570 
 1777      6F00
 1778              	.LASF6:
 1779 0215 63686172 		.ascii	"char\000"
 1779      00
 1780              	.LASF57:
 1781 021a 5F464154 		.ascii	"_FATFS_\000"
 1781      46535F00 
 1782              	.LASF28:
 1783 0222 46525F4F 		.ascii	"FR_OK\000"
 1783      4B00
 1784              	.LASF51:
 1785 0228 62756666 		.ascii	"buffer\000"
 1785      657200
 1786              	.LASF25:
 1787 022f 63757272 		.ascii	"curr_clust\000"
 1787      5F636C75 
 1787      737400
 1788              	.LASF36:
 1789 023a 46524553 		.ascii	"FRESULT\000"
 1789      554C5400 
 1790              	.LASF42:
 1791 0242 4853434F 		.ascii	"HSCORE\000"
 1791      524500
ARM GAS  /cygdrive/c/DOCUME~1/mkwapisz/LOCALS~1/Temp/ccRGl3Ms.s 			page 39


 1792              	.LASF32:
 1793 0249 46525F4E 		.ascii	"FR_NO_PATH\000"
 1793      4F5F5041 
 1793      544800
 1794              	.LASF47:
 1795 0254 72657375 		.ascii	"result\000"
 1795      6C7400
 1796              		.ident	"GCC: (GNU) 4.1.1"
ARM GAS  /cygdrive/c/DOCUME~1/mkwapisz/LOCALS~1/Temp/ccRGl3Ms.s 			page 40


DEFINED SYMBOLS
                            *ABS*:00000000 hscore.c
/cygdrive/c/DOCUME~1/mkwapisz/LOCALS~1/Temp/ccRGl3Ms.s:1      .text:00000000 $t
/cygdrive/c/DOCUME~1/mkwapisz/LOCALS~1/Temp/ccRGl3Ms.s:44     .text:00000000 printStatus
/cygdrive/c/DOCUME~1/mkwapisz/LOCALS~1/Temp/ccRGl3Ms.s:64     .rodata:00000000 $d
/cygdrive/c/DOCUME~1/mkwapisz/LOCALS~1/Temp/ccRGl3Ms.s:116    .text:00000038 $d
/cygdrive/c/DOCUME~1/mkwapisz/LOCALS~1/Temp/ccRGl3Ms.s:192    .text:00000060 getLastHScore
/cygdrive/c/DOCUME~1/mkwapisz/LOCALS~1/Temp/ccRGl3Ms.s:189    .text:00000060 $t
/cygdrive/c/DOCUME~1/mkwapisz/LOCALS~1/Temp/ccRGl3Ms.s:459    .text:000001b4 $d
/cygdrive/c/DOCUME~1/mkwapisz/LOCALS~1/Temp/ccRGl3Ms.s:487    .bss:00000200 fatFileSystem
/cygdrive/c/DOCUME~1/mkwapisz/LOCALS~1/Temp/ccRGl3Ms.s:490    .bss:00000230 sdStatus
/cygdrive/c/DOCUME~1/mkwapisz/LOCALS~1/Temp/ccRGl3Ms.s:484    .bss:00000000 buffer

UNDEFINED SYMBOLS
simplePrintf
pf_mount
pf_open
pf_read
strncpy
strtok
strlen
atoi
memset
