ARM GAS  /cygdrive/c/DOCUME~1/mkwapisz/LOCALS~1/Temp/ccnbDm2q.s 			page 1


   1              		.code	16
   2              		.file	"joystick.c"
   3              		.section	.debug_abbrev,"",%progbits
   4              	.Ldebug_abbrev0:
   5              		.section	.debug_info,"",%progbits
   6              	.Ldebug_info0:
   7              		.section	.debug_line,"",%progbits
   8              	.Ldebug_line0:
   9 0000 C7000000 		.text
   9      02005D00 
   9      00000201 
   9      FB0E0D00 
   9      01010101 
  10              	.Ltext0:
  11              		.align	2
  12              		.global	getKeys
  13              		.code 16
  14              		.thumb_func
  15              		.type	getKeys, %function
  16              	getKeys:
  17              	.LFB2:
  18              		.file 1 "joystick/joystick.c"
   1:joystick/joystick.c **** /******************************************************************************
   2:joystick/joystick.c ****  * Includes
   3:joystick/joystick.c ****  *****************************************************************************/
   4:joystick/joystick.c **** #include "../pre_emptive_os/api/osapi.h"
   5:joystick/joystick.c **** #include "../pre_emptive_os/api/general.h"
   6:joystick/joystick.c **** #include <printf_P.h>
   7:joystick/joystick.c **** #include "joystick.h"
   8:joystick/joystick.c **** #include <lpc2xxx.h>
   9:joystick/joystick.c **** 
  10:joystick/joystick.c **** /******************************************************************************
  11:joystick/joystick.c ****  * Typedefs and defines
  12:joystick/joystick.c ****  *****************************************************************************/
  13:joystick/joystick.c **** #define FIRST_REPEAT  4
  14:joystick/joystick.c **** #define SECOND_REPEAT 3
  15:joystick/joystick.c **** 
  16:joystick/joystick.c **** #define KEYPROC_STACK_SIZE 300
  17:joystick/joystick.c **** 
  18:joystick/joystick.c **** #define KEYPIN_CENTER 0x00000100
  19:joystick/joystick.c **** #define KEYPIN_UP     0x00000400
  20:joystick/joystick.c **** #define KEYPIN_DOWN   0x00001000
  21:joystick/joystick.c **** #define KEYPIN_LEFT   0x00000200 
  22:joystick/joystick.c **** #define KEYPIN_RIGHT  0x00000800
  23:joystick/joystick.c **** 
  24:joystick/joystick.c **** #if 0
  25:joystick/joystick.c **** //check if P0.8 center-key is pressed
  26:joystick/joystick.c **** if ((IOPIN & 0x00000100) == 0)
  27:joystick/joystick.c **** 
  28:joystick/joystick.c **** //check if P0.9 left-key is pressed
  29:joystick/joystick.c **** else if ((IOPIN & 0x00000200) == 0)
  30:joystick/joystick.c **** 
  31:joystick/joystick.c **** //check if P0.10 up-key is pressed
  32:joystick/joystick.c **** else if ((IOPIN & 0x00000400) == 0)
  33:joystick/joystick.c **** 
  34:joystick/joystick.c **** //check if P0.11 right-key is pressed
  35:joystick/joystick.c **** else if ((IOPIN & 0x00000800) == 0)
ARM GAS  /cygdrive/c/DOCUME~1/mkwapisz/LOCALS~1/Temp/ccnbDm2q.s 			page 2


  36:joystick/joystick.c **** 
  37:joystick/joystick.c **** //check if P0.12 down-key is pressed
  38:joystick/joystick.c **** else if ((IOPIN & 0x00001000) == 0)
  39:joystick/joystick.c **** #endif
  40:joystick/joystick.c **** 
  41:joystick/joystick.c **** /*****************************************************************************
  42:joystick/joystick.c ****  * Local variables
  43:joystick/joystick.c ****  ****************************************************************************/
  44:joystick/joystick.c **** static tU8 centerReleased = TRUE;
  45:joystick/joystick.c **** static tU8 keyUpReleased = TRUE;
  46:joystick/joystick.c **** static tU8 keyDownReleased = TRUE;
  47:joystick/joystick.c **** static tU8 keyLeftReleased = TRUE;
  48:joystick/joystick.c **** static tU8 keyRightReleased = TRUE;
  49:joystick/joystick.c **** static tU8 centerKeyCnt;
  50:joystick/joystick.c **** static tU8 upKeyCnt;
  51:joystick/joystick.c **** static tU8 downKeyCnt;
  52:joystick/joystick.c **** static tU8 leftKeyCnt;
  53:joystick/joystick.c **** static tU8 rightKeyCnt;
  54:joystick/joystick.c **** 
  55:joystick/joystick.c **** static volatile tU8 activeKey = KEY_NOTHING;
  56:joystick/joystick.c **** static volatile tU8 activeKey2 = KEY_NOTHING;
  57:joystick/joystick.c **** 
  58:joystick/joystick.c **** static tU8 keyProcStack[KEYPROC_STACK_SIZE];
  59:joystick/joystick.c **** static tU8 keyProcPid;
  60:joystick/joystick.c **** 
  61:joystick/joystick.c **** tU8 getKeys(void) {
  19              		.loc 1 61 0
  62:joystick/joystick.c **** 	tU8 readKeys = KEY_NOTHING;
  63:joystick/joystick.c **** 
  64:joystick/joystick.c **** 	if ((IOPIN & KEYPIN_CENTER) == 0)
  20              		.loc 1 64 0
  21 0000 124B     		ldr	r3, .L14
  22 0002 1B68     		ldr	r3, [r3]
  23              		.loc 1 61 0
  24              		@ lr needed for prologue
  25              		.loc 1 64 0
  26 0004 D905     		lsl	r1, r3, #23
  27 0006 01D4     		bmi	.L2
  28 0008 1020     		mov	r0, #16
  29              	.LVL0:
  30 000a 00E0     		b	.L4
  31              	.LVL1:
  32              	.L2:
  33 000c 0020     		mov	r0, #0
  34              	.LVL2:
  35              	.L4:
  65:joystick/joystick.c **** 		readKeys |= KEY_CENTER;
  66:joystick/joystick.c **** 	if ((IOPIN & KEYPIN_UP) == 0)
  36              		.loc 1 66 0
  37 000e 0F4A     		ldr	r2, .L14
  38 0010 1368     		ldr	r3, [r2]
  39 0012 5905     		lsl	r1, r3, #21
  40 0014 03D4     		bmi	.L5
  67:joystick/joystick.c **** 		readKeys |= KEY_UP;
  41              		.loc 1 67 0
  42 0016 0123     		mov	r3, #1
  43 0018 0343     		orr	r3, r3, r0
ARM GAS  /cygdrive/c/DOCUME~1/mkwapisz/LOCALS~1/Temp/ccnbDm2q.s 			page 3


  44 001a 1B06     		lsl	r3, r3, #24
  45 001c 180E     		lsr	r0, r3, #24
  46              	.L5:
  68:joystick/joystick.c **** 	if ((IOPIN & KEYPIN_DOWN) == 0)
  47              		.loc 1 68 0
  48 001e 1368     		ldr	r3, [r2]
  49 0020 D904     		lsl	r1, r3, #19
  50 0022 03D4     		bmi	.L7
  69:joystick/joystick.c **** 		readKeys |= KEY_DOWN;
  51              		.loc 1 69 0
  52 0024 0423     		mov	r3, #4
  53 0026 0343     		orr	r3, r3, r0
  54 0028 1B06     		lsl	r3, r3, #24
  55 002a 180E     		lsr	r0, r3, #24
  56              	.L7:
  70:joystick/joystick.c **** 	if ((IOPIN & KEYPIN_LEFT) == 0)
  57              		.loc 1 70 0
  58 002c 1368     		ldr	r3, [r2]
  59 002e 9905     		lsl	r1, r3, #22
  60 0030 03D4     		bmi	.L9
  71:joystick/joystick.c **** 		readKeys |= KEY_LEFT;
  61              		.loc 1 71 0
  62 0032 0823     		mov	r3, #8
  63 0034 0343     		orr	r3, r3, r0
  64 0036 1B06     		lsl	r3, r3, #24
  65 0038 180E     		lsr	r0, r3, #24
  66              	.L9:
  72:joystick/joystick.c **** 	if ((IOPIN & KEYPIN_RIGHT) == 0)
  67              		.loc 1 72 0
  68 003a 1368     		ldr	r3, [r2]
  69 003c 1A05     		lsl	r2, r3, #20
  70 003e 03D4     		bmi	.L11
  73:joystick/joystick.c **** 		readKeys |= KEY_RIGHT;
  71              		.loc 1 73 0
  72 0040 0223     		mov	r3, #2
  73 0042 0343     		orr	r3, r3, r0
  74 0044 1B06     		lsl	r3, r3, #24
  75 0046 180E     		lsr	r0, r3, #24
  76              	.L11:
  77              	.LVL3:
  74:joystick/joystick.c **** 
  75:joystick/joystick.c **** 	return readKeys;
  76:joystick/joystick.c **** }
  78              		.loc 1 76 0
  79              		@ sp needed for prologue
  80 0048 7047     		bx	lr
  81              	.L15:
  82 004a 0000     		.align	2
  83              	.L14:
  84 004c 008002E0 		.word	-536707072
  85              	.LFE2:
  86              		.size	getKeys, .-getKeys
  87              		.align	2
  88              		.global	getPressedKey
  89              		.code 16
  90              		.thumb_func
  91              		.type	getPressedKey, %function
ARM GAS  /cygdrive/c/DOCUME~1/mkwapisz/LOCALS~1/Temp/ccnbDm2q.s 			page 4


  92              	getPressedKey:
  93              	.LFB3:
  77:joystick/joystick.c **** 
  78:joystick/joystick.c **** tU8 getPressedKey(void) {
  94              		.loc 1 78 0
  79:joystick/joystick.c **** 	tU8 retVal = activeKey;
  95              		.loc 1 79 0
  96 0050 024B     		ldr	r3, .L18
  97 0052 1878     		ldrb	r0, [r3]
  80:joystick/joystick.c **** 	activeKey = KEY_NOTHING;
  98              		.loc 1 80 0
  99 0054 0022     		mov	r2, #0
 100              		.loc 1 78 0
 101              		@ lr needed for prologue
 102              		.loc 1 80 0
 103 0056 1A70     		strb	r2, [r3]
  81:joystick/joystick.c **** 	return retVal;
  82:joystick/joystick.c **** }
 104              		.loc 1 82 0
 105              		@ sp needed for prologue
 106 0058 7047     		bx	lr
 107              	.L19:
 108 005a 0000     		.align	2
 109              	.L18:
 110 005c 00000000 		.word	activeKey
 111              	.LFE3:
 112              		.size	getPressedKey, .-getPressedKey
 113              		.align	2
 114              		.global	getNowPressedKey
 115              		.code 16
 116              		.thumb_func
 117              		.type	getNowPressedKey, %function
 118              	getNowPressedKey:
 119              	.LFB4:
  83:joystick/joystick.c **** 
  84:joystick/joystick.c **** tU8 getNowPressedKey(void) {
 120              		.loc 1 84 0
  85:joystick/joystick.c **** 	return activeKey2;
 121              		.loc 1 85 0
 122 0060 014B     		ldr	r3, .L22
 123 0062 1878     		ldrb	r0, [r3]
 124              		.loc 1 84 0
 125              		@ lr needed for prologue
  86:joystick/joystick.c **** }
 126              		.loc 1 86 0
 127              		@ sp needed for prologue
 128 0064 7047     		bx	lr
 129              	.L23:
 130 0066 0000     		.align	2
 131              	.L22:
 132 0068 01000000 		.word	activeKey2
 133              	.LFE4:
 134              		.size	getNowPressedKey, .-getNowPressedKey
 135              		.align	2
 136              		.global	readKeyInLoop
 137              		.code 16
 138              		.thumb_func
ARM GAS  /cygdrive/c/DOCUME~1/mkwapisz/LOCALS~1/Temp/ccnbDm2q.s 			page 5


 139              		.type	readKeyInLoop, %function
 140              	readKeyInLoop:
 141              	.LFB5:
  87:joystick/joystick.c **** 
  88:joystick/joystick.c **** void readKeyInLoop(void) {
 142              		.loc 1 88 0
 143 006c 30B5     		push	{r4, r5, lr}
 144              	.LCFI0:
  89:joystick/joystick.c **** 	tBool nothing = TRUE;
  90:joystick/joystick.c **** 	tU8 readKeys;
  91:joystick/joystick.c **** 
  92:joystick/joystick.c **** 	//get sample
  93:joystick/joystick.c **** 	readKeys = getKeys();
 145              		.loc 1 93 0
 146 006e FFF7FEFF 		bl	getKeys
 147 0072 051C     		mov	r5, r0
  94:joystick/joystick.c **** 
  95:joystick/joystick.c **** 	//check center key
  96:joystick/joystick.c **** 	if (readKeys & KEY_CENTER) {
 148              		.loc 1 96 0
 149 0074 1020     		mov	r0, #16
 150 0076 4E4A     		ldr	r2, .L89
 151 0078 0542     		tst	r5, r0
 152 007a 17D0     		beq	.L25
  97:joystick/joystick.c **** 		nothing = FALSE;
  98:joystick/joystick.c **** 		if (centerReleased == TRUE) {
 153              		.loc 1 98 0
 154 007c 1378     		ldrb	r3, [r2]
 155 007e 4D49     		ldr	r1, .L89+4
 156 0080 012B     		cmp	r3, #1
 157 0082 02D1     		bne	.L27
  99:joystick/joystick.c **** 			centerReleased = FALSE;
 158              		.loc 1 99 0
 159 0084 0023     		mov	r3, #0
 160 0086 1370     		strb	r3, [r2]
 161 0088 09E0     		b	.L85
 162              	.L27:
 100:joystick/joystick.c **** 			centerKeyCnt = 0;
 101:joystick/joystick.c **** 			activeKey = KEY_CENTER;
 102:joystick/joystick.c **** 			activeKey2 = KEY_CENTER;
 103:joystick/joystick.c **** 		} else {
 104:joystick/joystick.c **** 			centerKeyCnt++;
 163              		.loc 1 104 0
 164 008a 0B78     		ldrb	r3, [r1]
 165 008c 0133     		add	r3, r3, #1
 166 008e 1B06     		lsl	r3, r3, #24
 167 0090 1B0E     		lsr	r3, r3, #24
 168 0092 0B70     		strb	r3, [r1]
 105:joystick/joystick.c **** 			if (centerKeyCnt == FIRST_REPEAT) {
 169              		.loc 1 105 0
 170 0094 042B     		cmp	r3, #4
 171 0096 03D0     		beq	.L72
 106:joystick/joystick.c **** 				activeKey = KEY_CENTER;
 107:joystick/joystick.c **** 				activeKey2 = KEY_CENTER;
 108:joystick/joystick.c **** 			} else if (centerKeyCnt >= FIRST_REPEAT + SECOND_REPEAT) {
 172              		.loc 1 108 0
 173 0098 062B     		cmp	r3, #6
ARM GAS  /cygdrive/c/DOCUME~1/mkwapisz/LOCALS~1/Temp/ccnbDm2q.s 			page 6


 174 009a 05D9     		bls	.L73
 109:joystick/joystick.c **** 				centerKeyCnt = FIRST_REPEAT;
 175              		.loc 1 109 0
 176 009c 0423     		mov	r3, #4
 177              	.L85:
 178 009e 0B70     		strb	r3, [r1]
 179              	.L72:
 110:joystick/joystick.c **** 				activeKey = KEY_CENTER;
 180              		.loc 1 110 0
 181 00a0 454B     		ldr	r3, .L89+8
 182 00a2 1870     		strb	r0, [r3]
 111:joystick/joystick.c **** 				activeKey2 = KEY_CENTER;
 183              		.loc 1 111 0
 184 00a4 454B     		ldr	r3, .L89+12
 185 00a6 1870     		strb	r0, [r3]
 186              	.L73:
 187 00a8 0024     		mov	r4, #0
 188              	.LVL4:
 189 00aa 02E0     		b	.L29
 190              	.LVL5:
 191              	.L25:
 112:joystick/joystick.c **** 			}
 113:joystick/joystick.c **** 		}
 114:joystick/joystick.c **** 	} else
 115:joystick/joystick.c **** 		centerReleased = TRUE;
 192              		.loc 1 115 0
 193 00ac 0123     		mov	r3, #1
 194 00ae 1370     		strb	r3, [r2]
 195 00b0 0124     		mov	r4, #1
 196              	.LVL6:
 197              	.L29:
 116:joystick/joystick.c **** 
 117:joystick/joystick.c **** 	//check up key
 118:joystick/joystick.c **** 	if (readKeys & KEY_UP) {
 198              		.loc 1 118 0
 199 00b2 0120     		mov	r0, #1
 200 00b4 424A     		ldr	r2, .L89+16
 201 00b6 0542     		tst	r5, r0
 202 00b8 17D0     		beq	.L34
 119:joystick/joystick.c **** 		nothing = FALSE;
 120:joystick/joystick.c **** 		if (keyUpReleased == TRUE) {
 203              		.loc 1 120 0
 204 00ba 1378     		ldrb	r3, [r2]
 205 00bc 4149     		ldr	r1, .L89+20
 206 00be 012B     		cmp	r3, #1
 207 00c0 02D1     		bne	.L36
 121:joystick/joystick.c **** 			keyUpReleased = FALSE;
 208              		.loc 1 121 0
 209 00c2 0023     		mov	r3, #0
 210 00c4 1370     		strb	r3, [r2]
 211 00c6 09E0     		b	.L86
 212              	.L36:
 122:joystick/joystick.c **** 			upKeyCnt = 0;
 123:joystick/joystick.c **** 			activeKey = KEY_UP;
 124:joystick/joystick.c **** 			activeKey2 = KEY_UP;
 125:joystick/joystick.c **** 		} else {
 126:joystick/joystick.c **** 			upKeyCnt++;
ARM GAS  /cygdrive/c/DOCUME~1/mkwapisz/LOCALS~1/Temp/ccnbDm2q.s 			page 7


 213              		.loc 1 126 0
 214 00c8 0B78     		ldrb	r3, [r1]
 215 00ca 0133     		add	r3, r3, #1
 216 00cc 1B06     		lsl	r3, r3, #24
 217 00ce 1B0E     		lsr	r3, r3, #24
 218 00d0 0B70     		strb	r3, [r1]
 127:joystick/joystick.c **** 			if (upKeyCnt == FIRST_REPEAT) {
 219              		.loc 1 127 0
 220 00d2 042B     		cmp	r3, #4
 221 00d4 03D0     		beq	.L75
 128:joystick/joystick.c **** 				activeKey = KEY_UP;
 129:joystick/joystick.c **** 				activeKey2 = KEY_UP;
 130:joystick/joystick.c **** 			} else if (upKeyCnt >= FIRST_REPEAT + SECOND_REPEAT) {
 222              		.loc 1 130 0
 223 00d6 062B     		cmp	r3, #6
 224 00d8 05D9     		bls	.L76
 131:joystick/joystick.c **** 				upKeyCnt = FIRST_REPEAT;
 225              		.loc 1 131 0
 226 00da 0423     		mov	r3, #4
 227              	.L86:
 228 00dc 0B70     		strb	r3, [r1]
 229              	.L75:
 132:joystick/joystick.c **** 				activeKey = KEY_UP;
 230              		.loc 1 132 0
 231 00de 364B     		ldr	r3, .L89+8
 232 00e0 1870     		strb	r0, [r3]
 133:joystick/joystick.c **** 				activeKey2 = KEY_UP;
 233              		.loc 1 133 0
 234 00e2 364B     		ldr	r3, .L89+12
 235 00e4 1870     		strb	r0, [r3]
 236              	.L76:
 237 00e6 0024     		mov	r4, #0
 238 00e8 00E0     		b	.L38
 239              	.L34:
 134:joystick/joystick.c **** 			}
 135:joystick/joystick.c **** 		}
 136:joystick/joystick.c **** 	} else
 137:joystick/joystick.c **** 		keyUpReleased = TRUE;
 240              		.loc 1 137 0
 241 00ea 1070     		strb	r0, [r2]
 242              	.L38:
 138:joystick/joystick.c **** 
 139:joystick/joystick.c **** 	//check down key
 140:joystick/joystick.c **** 	if (readKeys & KEY_DOWN) {
 243              		.loc 1 140 0
 244 00ec 0420     		mov	r0, #4
 245 00ee 364A     		ldr	r2, .L89+24
 246 00f0 0542     		tst	r5, r0
 247 00f2 17D0     		beq	.L43
 141:joystick/joystick.c **** 		nothing = FALSE;
 142:joystick/joystick.c **** 		if (keyDownReleased == TRUE) {
 248              		.loc 1 142 0
 249 00f4 1378     		ldrb	r3, [r2]
 250 00f6 3549     		ldr	r1, .L89+28
 251 00f8 012B     		cmp	r3, #1
 252 00fa 03D1     		bne	.L45
 143:joystick/joystick.c **** 			keyDownReleased = FALSE;
ARM GAS  /cygdrive/c/DOCUME~1/mkwapisz/LOCALS~1/Temp/ccnbDm2q.s 			page 8


 253              		.loc 1 143 0
 254 00fc 0023     		mov	r3, #0
 255 00fe 1370     		strb	r3, [r2]
 144:joystick/joystick.c **** 			downKeyCnt = 0;
 256              		.loc 1 144 0
 257 0100 0B70     		strb	r3, [r1]
 258 0102 09E0     		b	.L78
 259              	.L45:
 145:joystick/joystick.c **** 			activeKey = KEY_DOWN;
 146:joystick/joystick.c **** 			activeKey2 = KEY_DOWN;
 147:joystick/joystick.c **** 		} else {
 148:joystick/joystick.c **** 			downKeyCnt++;
 260              		.loc 1 148 0
 261 0104 0B78     		ldrb	r3, [r1]
 262 0106 0133     		add	r3, r3, #1
 263 0108 1B06     		lsl	r3, r3, #24
 264 010a 1B0E     		lsr	r3, r3, #24
 265 010c 0B70     		strb	r3, [r1]
 149:joystick/joystick.c **** 			if (downKeyCnt == FIRST_REPEAT) {
 266              		.loc 1 149 0
 267 010e 042B     		cmp	r3, #4
 268 0110 02D0     		beq	.L78
 150:joystick/joystick.c **** 				activeKey = KEY_DOWN;
 151:joystick/joystick.c **** 				activeKey2 = KEY_DOWN;
 152:joystick/joystick.c **** 			} else if (downKeyCnt >= FIRST_REPEAT + SECOND_REPEAT) {
 269              		.loc 1 152 0
 270 0112 062B     		cmp	r3, #6
 271 0114 04D9     		bls	.L79
 153:joystick/joystick.c **** 				downKeyCnt = FIRST_REPEAT;
 272              		.loc 1 153 0
 273 0116 0870     		strb	r0, [r1]
 274              	.L78:
 154:joystick/joystick.c **** 				activeKey = KEY_DOWN;
 275              		.loc 1 154 0
 276 0118 274B     		ldr	r3, .L89+8
 277 011a 1870     		strb	r0, [r3]
 155:joystick/joystick.c **** 				activeKey2 = KEY_DOWN;
 278              		.loc 1 155 0
 279 011c 274B     		ldr	r3, .L89+12
 280 011e 1870     		strb	r0, [r3]
 281              	.L79:
 282 0120 0024     		mov	r4, #0
 283 0122 01E0     		b	.L47
 284              	.L43:
 156:joystick/joystick.c **** 			}
 157:joystick/joystick.c **** 		}
 158:joystick/joystick.c **** 	} else
 159:joystick/joystick.c **** 		keyDownReleased = TRUE;
 285              		.loc 1 159 0
 286 0124 0123     		mov	r3, #1
 287 0126 1370     		strb	r3, [r2]
 288              	.L47:
 160:joystick/joystick.c **** 
 161:joystick/joystick.c **** 	//check left key
 162:joystick/joystick.c **** 	if (readKeys & KEY_LEFT) {
 289              		.loc 1 162 0
 290 0128 0820     		mov	r0, #8
ARM GAS  /cygdrive/c/DOCUME~1/mkwapisz/LOCALS~1/Temp/ccnbDm2q.s 			page 9


 291 012a 294A     		ldr	r2, .L89+32
 292 012c 0542     		tst	r5, r0
 293 012e 17D0     		beq	.L52
 163:joystick/joystick.c **** 		nothing = FALSE;
 164:joystick/joystick.c **** 		if (keyLeftReleased == TRUE) {
 294              		.loc 1 164 0
 295 0130 1378     		ldrb	r3, [r2]
 296 0132 2849     		ldr	r1, .L89+36
 297 0134 012B     		cmp	r3, #1
 298 0136 02D1     		bne	.L54
 165:joystick/joystick.c **** 			keyLeftReleased = FALSE;
 299              		.loc 1 165 0
 300 0138 0023     		mov	r3, #0
 301 013a 1370     		strb	r3, [r2]
 302 013c 09E0     		b	.L87
 303              	.L54:
 166:joystick/joystick.c **** 			leftKeyCnt = 0;
 167:joystick/joystick.c **** 			activeKey = KEY_LEFT;
 168:joystick/joystick.c **** 			activeKey2 = KEY_LEFT;
 169:joystick/joystick.c **** 		} else {
 170:joystick/joystick.c **** 			leftKeyCnt++;
 304              		.loc 1 170 0
 305 013e 0B78     		ldrb	r3, [r1]
 306 0140 0133     		add	r3, r3, #1
 307 0142 1B06     		lsl	r3, r3, #24
 308 0144 1B0E     		lsr	r3, r3, #24
 309 0146 0B70     		strb	r3, [r1]
 171:joystick/joystick.c **** 			if (leftKeyCnt == FIRST_REPEAT) {
 310              		.loc 1 171 0
 311 0148 042B     		cmp	r3, #4
 312 014a 03D0     		beq	.L81
 172:joystick/joystick.c **** 				activeKey = KEY_LEFT;
 173:joystick/joystick.c **** 				activeKey2 = KEY_LEFT;
 174:joystick/joystick.c **** 			} else if (leftKeyCnt >= FIRST_REPEAT + SECOND_REPEAT) {
 313              		.loc 1 174 0
 314 014c 062B     		cmp	r3, #6
 315 014e 05D9     		bls	.L82
 175:joystick/joystick.c **** 				leftKeyCnt = FIRST_REPEAT;
 316              		.loc 1 175 0
 317 0150 0423     		mov	r3, #4
 318              	.L87:
 319 0152 0B70     		strb	r3, [r1]
 320              	.L81:
 176:joystick/joystick.c **** 				activeKey = KEY_LEFT;
 321              		.loc 1 176 0
 322 0154 184B     		ldr	r3, .L89+8
 323 0156 1870     		strb	r0, [r3]
 177:joystick/joystick.c **** 				activeKey2 = KEY_LEFT;
 324              		.loc 1 177 0
 325 0158 184B     		ldr	r3, .L89+12
 326 015a 1870     		strb	r0, [r3]
 327              	.L82:
 328 015c 0024     		mov	r4, #0
 329 015e 01E0     		b	.L56
 330              	.L52:
 178:joystick/joystick.c **** 			}
 179:joystick/joystick.c **** 		}
ARM GAS  /cygdrive/c/DOCUME~1/mkwapisz/LOCALS~1/Temp/ccnbDm2q.s 			page 10


 180:joystick/joystick.c **** 	} else
 181:joystick/joystick.c **** 		keyLeftReleased = TRUE;
 331              		.loc 1 181 0
 332 0160 0123     		mov	r3, #1
 333 0162 1370     		strb	r3, [r2]
 334              	.L56:
 182:joystick/joystick.c **** 
 183:joystick/joystick.c **** 	//check right key
 184:joystick/joystick.c **** 	if (readKeys & KEY_RIGHT) {
 335              		.loc 1 184 0
 336 0164 0220     		mov	r0, #2
 337 0166 291C     		mov	r1, r5
 338 0168 1B4A     		ldr	r2, .L89+40
 339 016a 0140     		and	r1, r0
 340 016c 16D0     		beq	.L61
 185:joystick/joystick.c **** 		nothing = FALSE;
 186:joystick/joystick.c **** 		if (keyRightReleased == TRUE) {
 341              		.loc 1 186 0
 342 016e 1378     		ldrb	r3, [r2]
 343 0170 1A49     		ldr	r1, .L89+44
 344 0172 012B     		cmp	r3, #1
 345 0174 02D1     		bne	.L63
 187:joystick/joystick.c **** 			keyRightReleased = FALSE;
 346              		.loc 1 187 0
 347 0176 0023     		mov	r3, #0
 348 0178 1370     		strb	r3, [r2]
 349 017a 09E0     		b	.L88
 350              	.L63:
 188:joystick/joystick.c **** 			rightKeyCnt = 0;
 189:joystick/joystick.c **** 			activeKey = KEY_RIGHT;
 190:joystick/joystick.c **** 			activeKey2 = KEY_RIGHT;
 191:joystick/joystick.c **** 		} else {
 192:joystick/joystick.c **** 			rightKeyCnt++;
 351              		.loc 1 192 0
 352 017c 0B78     		ldrb	r3, [r1]
 353 017e 0133     		add	r3, r3, #1
 354 0180 1B06     		lsl	r3, r3, #24
 355 0182 1B0E     		lsr	r3, r3, #24
 356 0184 0B70     		strb	r3, [r1]
 193:joystick/joystick.c **** 			if (rightKeyCnt == FIRST_REPEAT) {
 357              		.loc 1 193 0
 358 0186 042B     		cmp	r3, #4
 359 0188 03D0     		beq	.L84
 194:joystick/joystick.c **** 				activeKey = KEY_RIGHT;
 195:joystick/joystick.c **** 				activeKey2 = KEY_RIGHT;
 196:joystick/joystick.c **** 			} else if (rightKeyCnt >= FIRST_REPEAT + SECOND_REPEAT) {
 360              		.loc 1 196 0
 361 018a 062B     		cmp	r3, #6
 362 018c 0CD9     		bls	.L70
 197:joystick/joystick.c **** 				rightKeyCnt = FIRST_REPEAT;
 363              		.loc 1 197 0
 364 018e 0423     		mov	r3, #4
 365              	.L88:
 366 0190 0B70     		strb	r3, [r1]
 367              	.L84:
 198:joystick/joystick.c **** 				activeKey = KEY_RIGHT;
 368              		.loc 1 198 0
ARM GAS  /cygdrive/c/DOCUME~1/mkwapisz/LOCALS~1/Temp/ccnbDm2q.s 			page 11


 369 0192 094B     		ldr	r3, .L89+8
 370 0194 1870     		strb	r0, [r3]
 199:joystick/joystick.c **** 				activeKey2 = KEY_RIGHT;
 371              		.loc 1 199 0
 372 0196 094B     		ldr	r3, .L89+12
 373 0198 1870     		strb	r0, [r3]
 374 019a 05E0     		b	.L70
 375              	.L61:
 200:joystick/joystick.c **** 			}
 201:joystick/joystick.c **** 		}
 202:joystick/joystick.c **** 	} else
 203:joystick/joystick.c **** 		keyRightReleased = TRUE;
 376              		.loc 1 203 0
 377 019c 0123     		mov	r3, #1
 378 019e 1370     		strb	r3, [r2]
 204:joystick/joystick.c **** 
 205:joystick/joystick.c **** 	if (nothing == TRUE)
 379              		.loc 1 205 0
 380 01a0 012C     		cmp	r4, #1
 381 01a2 01D1     		bne	.L70
 206:joystick/joystick.c **** 		activeKey2 = KEY_NOTHING;
 382              		.loc 1 206 0
 383 01a4 054B     		ldr	r3, .L89+12
 384 01a6 1970     		strb	r1, [r3]
 385              	.L70:
 207:joystick/joystick.c **** }
 386              		.loc 1 207 0
 387              		@ sp needed for prologue
 388              	.LVL7:
 389 01a8 30BC     		pop	{r4, r5}
 390 01aa 01BC     		pop	{r0}
 391 01ac 0047     		bx	r0
 392              	.L90:
 393 01ae 0000     		.align	2
 394              	.L89:
 395 01b0 00000000 		.word	centerReleased
 396 01b4 02000000 		.word	centerKeyCnt
 397 01b8 00000000 		.word	activeKey
 398 01bc 01000000 		.word	activeKey2
 399 01c0 01000000 		.word	keyUpReleased
 400 01c4 03000000 		.word	upKeyCnt
 401 01c8 02000000 		.word	keyDownReleased
 402 01cc 04000000 		.word	downKeyCnt
 403 01d0 03000000 		.word	keyLeftReleased
 404 01d4 05000000 		.word	leftKeyCnt
 405 01d8 04000000 		.word	keyRightReleased
 406 01dc 06000000 		.word	rightKeyCnt
 407              	.LFE5:
 408              		.size	readKeyInLoop, .-readKeyInLoop
 409              		.align	2
 410              		.global	initKeyProc
 411              		.code 16
 412              		.thumb_func
 413              		.type	initKeyProc, %function
 414              	initKeyProc:
 415              	.LFB7:
 208:joystick/joystick.c **** 
ARM GAS  /cygdrive/c/DOCUME~1/mkwapisz/LOCALS~1/Temp/ccnbDm2q.s 			page 12


 209:joystick/joystick.c **** static void procKey(void* arg) {
 210:joystick/joystick.c **** 	//make all key signals as inputs
 211:joystick/joystick.c **** 	IODIR &= ~(KEYPIN_CENTER | KEYPIN_UP | KEYPIN_DOWN | KEYPIN_LEFT
 212:joystick/joystick.c **** 			| KEYPIN_RIGHT);
 213:joystick/joystick.c **** 
 214:joystick/joystick.c **** 	//sample keys each 50 ms, i.e., 20 times per second
 215:joystick/joystick.c **** 	while (1) {
 216:joystick/joystick.c **** 		readKeyInLoop();
 217:joystick/joystick.c **** 		osSleep(5);
 218:joystick/joystick.c **** 	}
 219:joystick/joystick.c **** }
 220:joystick/joystick.c **** 
 221:joystick/joystick.c **** void initKeyProc(void) {
 416              		.loc 1 221 0
 417 01e0 30B5     		push	{r4, r5, lr}
 418              	.LCFI1:
 419 01e2 84B0     		sub	sp, sp, #16
 420              	.LCFI2:
 222:joystick/joystick.c **** 	tU8 error;
 223:joystick/joystick.c **** 	osCreateProcess(procKey, keyProcStack, KEYPROC_STACK_SIZE, &keyProcPid, 3,
 421              		.loc 1 223 0
 422 01e4 0B4D     		ldr	r5, .L93
 423 01e6 0323     		mov	r3, #3
 424 01e8 0093     		str	r3, [sp]
 425 01ea 6C46     		mov	r4, sp
 426 01ec 0023     		mov	r3, #0
 427 01ee 9622     		mov	r2, #150
 428 01f0 5200     		lsl	r2, r2, #1
 429 01f2 0193     		str	r3, [sp, #4]
 430 01f4 0F34     		add	r4, r4, #15
 431 01f6 2B1C     		mov	r3, r5
 432 01f8 0748     		ldr	r0, .L93+4
 433 01fa 0849     		ldr	r1, .L93+8
 434 01fc 0294     		str	r4, [sp, #8]
 435 01fe FFF7FEFF 		bl	osCreateProcess
 224:joystick/joystick.c **** 			NULL, &error);
 225:joystick/joystick.c **** 	osStartProcess(keyProcPid, &error);
 436              		.loc 1 225 0
 437 0202 2878     		ldrb	r0, [r5]
 438 0204 211C     		mov	r1, r4
 439 0206 FFF7FEFF 		bl	osStartProcess
 226:joystick/joystick.c **** }
 440              		.loc 1 226 0
 441 020a 04B0     		add	sp, sp, #16
 442              		@ sp needed for prologue
 443 020c 30BC     		pop	{r4, r5}
 444 020e 01BC     		pop	{r0}
 445 0210 0047     		bx	r0
 446              	.L94:
 447 0212 0000     		.align	2
 448              	.L93:
 449 0214 33010000 		.word	keyProcPid
 450 0218 00000000 		.word	procKey
 451 021c 07000000 		.word	keyProcStack
 452              	.LFE7:
 453              		.size	initKeyProc, .-initKeyProc
 454              		.align	2
ARM GAS  /cygdrive/c/DOCUME~1/mkwapisz/LOCALS~1/Temp/ccnbDm2q.s 			page 13


 455              		.code 16
 456              		.thumb_func
 457              		.type	procKey, %function
 458              	procKey:
 459              	.LFB6:
 460              		.loc 1 209 0
 461 0220 00B5     		push	{lr}
 462              	.LCFI3:
 463              	.LVL8:
 464              		.loc 1 211 0
 465 0222 054B     		ldr	r3, .L98
 466 0224 0549     		ldr	r1, .L98+4
 467 0226 1A68     		ldr	r2, [r3]
 468 0228 0A40     		and	r2, r2, r1
 469 022a 1A60     		str	r2, [r3]
 470              	.L96:
 471              		.loc 1 216 0
 472 022c FFF7FEFF 		bl	readKeyInLoop
 473              	.LVL9:
 474              		.loc 1 217 0
 475 0230 0520     		mov	r0, #5
 476 0232 FFF7FEFF 		bl	osSleep
 477 0236 F9E7     		b	.L96
 478              	.L99:
 479              		.align	2
 480              	.L98:
 481 0238 088002E0 		.word	-536707064
 482 023c FFE0FFFF 		.word	-7937
 483              	.LFE6:
 484              		.size	procKey, .-procKey
 485              		.data
 486              		.type	centerReleased, %object
 487              		.size	centerReleased, 1
 488              	centerReleased:
 489 0000 01       		.byte	1
 490              		.bss
 491              	activeKey:
 492 0000 00       		.space	1
 493              	activeKey2:
 494 0001 00       		.space	1
 495              		.data
 496              		.type	keyUpReleased, %object
 497              		.size	keyUpReleased, 1
 498              	keyUpReleased:
 499 0001 01       		.byte	1
 500              		.type	keyDownReleased, %object
 501              		.size	keyDownReleased, 1
 502              	keyDownReleased:
 503 0002 01       		.byte	1
 504              		.type	keyLeftReleased, %object
 505              		.size	keyLeftReleased, 1
 506              	keyLeftReleased:
 507 0003 01       		.byte	1
 508              		.type	keyRightReleased, %object
 509              		.size	keyRightReleased, 1
 510              	keyRightReleased:
 511 0004 01       		.byte	1
ARM GAS  /cygdrive/c/DOCUME~1/mkwapisz/LOCALS~1/Temp/ccnbDm2q.s 			page 14


 512              		.bss
 513              	centerKeyCnt:
 514 0002 00       		.space	1
 515              	upKeyCnt:
 516 0003 00       		.space	1
 517              	downKeyCnt:
 518 0004 00       		.space	1
 519              	leftKeyCnt:
 520 0005 00       		.space	1
 521              	rightKeyCnt:
 522 0006 00       		.space	1
 523              	keyProcStack:
 524 0007 00000000 		.space	300
 524      00000000 
 524      00000000 
 524      00000000 
 524      00000000 
 525              	keyProcPid:
 526 0133 00       		.space	1
 527              		.section	.debug_frame,"",%progbits
 528              	.Lframe0:
 529 0000 0C000000 		.4byte	.LECIE0-.LSCIE0
 530              	.LSCIE0:
 531 0004 FFFFFFFF 		.4byte	0xffffffff
 532 0008 01       		.byte	0x1
 533 0009 00       		.ascii	"\000"
 534 000a 01       		.uleb128 0x1
 535 000b 7C       		.sleb128 -4
 536 000c 0E       		.byte	0xe
 537 000d 0C       		.byte	0xc
 538 000e 0D       		.uleb128 0xd
 539 000f 00       		.uleb128 0x0
 540              		.align	2
 541              	.LECIE0:
 542              	.LSFDE0:
 543 0010 0C000000 		.4byte	.LEFDE0-.LASFDE0
 544              	.LASFDE0:
 545 0014 00000000 		.4byte	.Lframe0
 546 0018 00000000 		.4byte	.LFB2
 547 001c 50000000 		.4byte	.LFE2-.LFB2
 548              		.align	2
 549              	.LEFDE0:
 550              	.LSFDE2:
 551 0020 0C000000 		.4byte	.LEFDE2-.LASFDE2
 552              	.LASFDE2:
 553 0024 00000000 		.4byte	.Lframe0
 554 0028 50000000 		.4byte	.LFB3
 555 002c 10000000 		.4byte	.LFE3-.LFB3
 556              		.align	2
 557              	.LEFDE2:
 558              	.LSFDE4:
 559 0030 0C000000 		.4byte	.LEFDE4-.LASFDE4
 560              	.LASFDE4:
 561 0034 00000000 		.4byte	.Lframe0
 562 0038 60000000 		.4byte	.LFB4
 563 003c 0C000000 		.4byte	.LFE4-.LFB4
 564              		.align	2
ARM GAS  /cygdrive/c/DOCUME~1/mkwapisz/LOCALS~1/Temp/ccnbDm2q.s 			page 15


 565              	.LEFDE4:
 566              	.LSFDE6:
 567 0040 18000000 		.4byte	.LEFDE6-.LASFDE6
 568              	.LASFDE6:
 569 0044 00000000 		.4byte	.Lframe0
 570 0048 6C000000 		.4byte	.LFB5
 571 004c 74010000 		.4byte	.LFE5-.LFB5
 572 0050 42       		.byte	0x4
 573              		.4byte	.LCFI0-.LFB5
 574 0051 0E       		.byte	0xe
 575 0052 0C       		.uleb128 0xc
 576 0053 84       		.byte	0x84
 577 0054 03       		.uleb128 0x3
 578 0055 85       		.byte	0x85
 579 0056 02       		.uleb128 0x2
 580 0057 8E       		.byte	0x8e
 581 0058 01       		.uleb128 0x1
 582 0059 000000   		.align	2
 583              	.LEFDE6:
 584              	.LSFDE8:
 585 005c 18000000 		.4byte	.LEFDE8-.LASFDE8
 586              	.LASFDE8:
 587 0060 00000000 		.4byte	.Lframe0
 588 0064 E0010000 		.4byte	.LFB7
 589 0068 40000000 		.4byte	.LFE7-.LFB7
 590 006c 42       		.byte	0x4
 591              		.4byte	.LCFI1-.LFB7
 592 006d 0E       		.byte	0xe
 593 006e 0C       		.uleb128 0xc
 594 006f 84       		.byte	0x84
 595 0070 03       		.uleb128 0x3
 596 0071 85       		.byte	0x85
 597 0072 02       		.uleb128 0x2
 598 0073 8E       		.byte	0x8e
 599 0074 01       		.uleb128 0x1
 600 0075 42       		.byte	0x4
 601              		.4byte	.LCFI2-.LCFI1
 602 0076 0E       		.byte	0xe
 603 0077 1C       		.uleb128 0x1c
 604              		.align	2
 605              	.LEFDE8:
 606              	.LSFDE10:
 607 0078 14000000 		.4byte	.LEFDE10-.LASFDE10
 608              	.LASFDE10:
 609 007c 00000000 		.4byte	.Lframe0
 610 0080 20020000 		.4byte	.LFB6
 611 0084 20000000 		.4byte	.LFE6-.LFB6
 612 0088 42       		.byte	0x4
 613              		.4byte	.LCFI3-.LFB6
 614 0089 0E       		.byte	0xe
 615 008a 04       		.uleb128 0x4
 616 008b 8E       		.byte	0x8e
 617 008c 01       		.uleb128 0x1
 618 008d 000000   		.align	2
 619              	.LEFDE10:
 620              		.file 2 "joystick/../pre_emptive_os/api/../api/general.h"
 621              		.text
ARM GAS  /cygdrive/c/DOCUME~1/mkwapisz/LOCALS~1/Temp/ccnbDm2q.s 			page 16


 622              	.Letext0:
 623              		.section	.debug_loc,"",%progbits
 624              	.Ldebug_loc0:
 625              	.LLST1:
 626 0000 0A000000 		.4byte	.LVL0-.Ltext0
 627 0004 0C000000 		.4byte	.LVL1-.Ltext0
 628 0008 0100     		.2byte	0x1
 629 000a 50       		.byte	0x50
 630 000b 0E000000 		.4byte	.LVL2-.Ltext0
 631 000f 48000000 		.4byte	.LVL3-.Ltext0
 632 0013 0100     		.2byte	0x1
 633 0015 50       		.byte	0x50
 634 0016 00000000 		.4byte	0x0
 635 001a 00000000 		.4byte	0x0
 636              	.LLST4:
 637 001e 6C000000 		.4byte	.LFB5-.Ltext0
 638 0022 6E000000 		.4byte	.LCFI0-.Ltext0
 639 0026 0100     		.2byte	0x1
 640 0028 5D       		.byte	0x5d
 641 0029 6E000000 		.4byte	.LCFI0-.Ltext0
 642 002d E0010000 		.4byte	.LFE5-.Ltext0
 643 0031 0200     		.2byte	0x2
 644 0033 7D       		.byte	0x7d
 645 0034 0C       		.sleb128 12
 646 0035 00000000 		.4byte	0x0
 647 0039 00000000 		.4byte	0x0
 648              	.LLST5:
 649 003d AA000000 		.4byte	.LVL4-.Ltext0
 650 0041 AC000000 		.4byte	.LVL5-.Ltext0
 651 0045 0100     		.2byte	0x1
 652 0047 54       		.byte	0x54
 653 0048 B2000000 		.4byte	.LVL6-.Ltext0
 654 004c A8010000 		.4byte	.LVL7-.Ltext0
 655 0050 0100     		.2byte	0x1
 656 0052 54       		.byte	0x54
 657 0053 00000000 		.4byte	0x0
 658 0057 00000000 		.4byte	0x0
 659              	.LLST6:
 660 005b E0010000 		.4byte	.LFB7-.Ltext0
 661 005f E2010000 		.4byte	.LCFI1-.Ltext0
 662 0063 0100     		.2byte	0x1
 663 0065 5D       		.byte	0x5d
 664 0066 E2010000 		.4byte	.LCFI1-.Ltext0
 665 006a E4010000 		.4byte	.LCFI2-.Ltext0
 666 006e 0200     		.2byte	0x2
 667 0070 7D       		.byte	0x7d
 668 0071 0C       		.sleb128 12
 669 0072 E4010000 		.4byte	.LCFI2-.Ltext0
 670 0076 20020000 		.4byte	.LFE7-.Ltext0
 671 007a 0200     		.2byte	0x2
 672 007c 7D       		.byte	0x7d
 673 007d 1C       		.sleb128 28
 674 007e 00000000 		.4byte	0x0
 675 0082 00000000 		.4byte	0x0
 676              	.LLST7:
 677 0086 20020000 		.4byte	.LFB6-.Ltext0
 678 008a 22020000 		.4byte	.LCFI3-.Ltext0
ARM GAS  /cygdrive/c/DOCUME~1/mkwapisz/LOCALS~1/Temp/ccnbDm2q.s 			page 17


 679 008e 0100     		.2byte	0x1
 680 0090 5D       		.byte	0x5d
 681 0091 22020000 		.4byte	.LCFI3-.Ltext0
 682 0095 40020000 		.4byte	.LFE6-.Ltext0
 683 0099 0200     		.2byte	0x2
 684 009b 7D       		.byte	0x7d
 685 009c 04       		.sleb128 4
 686 009d 00000000 		.4byte	0x0
 687 00a1 00000000 		.4byte	0x0
 688              	.LLST8:
 689 00a5 22020000 		.4byte	.LVL8-.Ltext0
 690 00a9 30020000 		.4byte	.LVL9-.Ltext0
 691 00ad 0100     		.2byte	0x1
 692 00af 50       		.byte	0x50
 693 00b0 00000000 		.4byte	0x0
 694 00b4 00000000 		.4byte	0x0
 695              		.section	.debug_info
 696 0000 5E020000 		.4byte	0x25e
 697 0004 0200     		.2byte	0x2
 698 0006 00000000 		.4byte	.Ldebug_abbrev0
 699 000a 04       		.byte	0x4
 700 000b 01       		.uleb128 0x1
 701 000c 00000000 		.4byte	.Ldebug_line0
 702 0010 40020000 		.4byte	.Letext0
 703 0014 00000000 		.4byte	.Ltext0
 704 0018 2C010000 		.4byte	.LASF29
 705 001c 01       		.byte	0x1
 706 001d 0F010000 		.4byte	.LASF30
 707 0021 38010000 		.4byte	.LASF31
 708 0025 02       		.uleb128 0x2
 709 0026 74553800 		.ascii	"tU8\000"
 710 002a 02       		.byte	0x2
 711 002b 46       		.byte	0x46
 712 002c 30000000 		.4byte	0x30
 713 0030 03       		.uleb128 0x3
 714 0031 83000000 		.4byte	.LASF0
 715 0035 01       		.byte	0x1
 716 0036 08       		.byte	0x8
 717 0037 03       		.uleb128 0x3
 718 0038 AB000000 		.4byte	.LASF1
 719 003c 02       		.byte	0x2
 720 003d 07       		.byte	0x7
 721 003e 03       		.uleb128 0x3
 722 003f 02010000 		.4byte	.LASF2
 723 0043 04       		.byte	0x4
 724 0044 07       		.byte	0x7
 725 0045 03       		.uleb128 0x3
 726 0046 87010000 		.4byte	.LASF3
 727 004a 01       		.byte	0x1
 728 004b 06       		.byte	0x6
 729 004c 03       		.uleb128 0x3
 730 004d 61010000 		.4byte	.LASF4
 731 0051 02       		.byte	0x2
 732 0052 05       		.byte	0x5
 733 0053 04       		.uleb128 0x4
 734 0054 696E7400 		.ascii	"int\000"
 735 0058 04       		.byte	0x4
ARM GAS  /cygdrive/c/DOCUME~1/mkwapisz/LOCALS~1/Temp/ccnbDm2q.s 			page 18


 736 0059 05       		.byte	0x5
 737 005a 05       		.uleb128 0x5
 738 005b 93010000 		.4byte	.LASF5
 739 005f 02       		.byte	0x2
 740 0060 4C       		.byte	0x4c
 741 0061 30000000 		.4byte	0x30
 742 0065 03       		.uleb128 0x3
 743 0066 91000000 		.4byte	.LASF6
 744 006a 04       		.byte	0x4
 745 006b 07       		.byte	0x7
 746 006c 06       		.uleb128 0x6
 747 006d 04       		.byte	0x4
 748 006e 07       		.uleb128 0x7
 749 006f 99000000 		.4byte	0x99
 750 0073 01       		.byte	0x1
 751 0074 BE000000 		.4byte	.LASF7
 752 0078 01       		.byte	0x1
 753 0079 3D       		.byte	0x3d
 754 007a 01       		.byte	0x1
 755 007b 25000000 		.4byte	0x25
 756 007f 00000000 		.4byte	.LFB2
 757 0083 50000000 		.4byte	.LFE2
 758 0087 01       		.byte	0x1
 759 0088 5D       		.byte	0x5d
 760 0089 08       		.uleb128 0x8
 761 008a 23010000 		.4byte	.LASF9
 762 008e 01       		.byte	0x1
 763 008f 3E       		.byte	0x3e
 764 0090 25000000 		.4byte	0x25
 765 0094 00000000 		.4byte	.LLST1
 766 0098 00       		.byte	0x0
 767 0099 07       		.uleb128 0x7
 768 009a C2000000 		.4byte	0xc2
 769 009e 01       		.byte	0x1
 770 009f A6010000 		.4byte	.LASF8
 771 00a3 01       		.byte	0x1
 772 00a4 4E       		.byte	0x4e
 773 00a5 01       		.byte	0x1
 774 00a6 25000000 		.4byte	0x25
 775 00aa 50000000 		.4byte	.LFB3
 776 00ae 60000000 		.4byte	.LFE3
 777 00b2 01       		.byte	0x1
 778 00b3 5D       		.byte	0x5d
 779 00b4 09       		.uleb128 0x9
 780 00b5 55000000 		.4byte	.LASF10
 781 00b9 01       		.byte	0x1
 782 00ba 4F       		.byte	0x4f
 783 00bb 25000000 		.4byte	0x25
 784 00bf 01       		.byte	0x1
 785 00c0 50       		.byte	0x50
 786 00c1 00       		.byte	0x0
 787 00c2 0A       		.uleb128 0xa
 788 00c3 01       		.byte	0x1
 789 00c4 F1000000 		.4byte	.LASF32
 790 00c8 01       		.byte	0x1
 791 00c9 54       		.byte	0x54
 792 00ca 01       		.byte	0x1
ARM GAS  /cygdrive/c/DOCUME~1/mkwapisz/LOCALS~1/Temp/ccnbDm2q.s 			page 19


 793 00cb 25000000 		.4byte	0x25
 794 00cf 60000000 		.4byte	.LFB4
 795 00d3 6C000000 		.4byte	.LFE4
 796 00d7 01       		.byte	0x1
 797 00d8 5D       		.byte	0x5d
 798 00d9 0B       		.uleb128 0xb
 799 00da 0D010000 		.4byte	0x10d
 800 00de 01       		.byte	0x1
 801 00df C6000000 		.4byte	.LASF11
 802 00e3 01       		.byte	0x1
 803 00e4 58       		.byte	0x58
 804 00e5 01       		.byte	0x1
 805 00e6 6C000000 		.4byte	.LFB5
 806 00ea E0010000 		.4byte	.LFE5
 807 00ee 1E000000 		.4byte	.LLST4
 808 00f2 08       		.uleb128 0x8
 809 00f3 D4000000 		.4byte	.LASF12
 810 00f7 01       		.byte	0x1
 811 00f8 59       		.byte	0x59
 812 00f9 5A000000 		.4byte	0x5a
 813 00fd 3D000000 		.4byte	.LLST5
 814 0101 0C       		.uleb128 0xc
 815 0102 23010000 		.4byte	.LASF9
 816 0106 01       		.byte	0x1
 817 0107 5A       		.byte	0x5a
 818 0108 25000000 		.4byte	0x25
 819 010c 00       		.byte	0x0
 820 010d 0B       		.uleb128 0xb
 821 010e 35010000 		.4byte	0x135
 822 0112 01       		.byte	0x1
 823 0113 68000000 		.4byte	.LASF13
 824 0117 01       		.byte	0x1
 825 0118 DD       		.byte	0xdd
 826 0119 01       		.byte	0x1
 827 011a E0010000 		.4byte	.LFB7
 828 011e 20020000 		.4byte	.LFE7
 829 0122 5B000000 		.4byte	.LLST6
 830 0126 09       		.uleb128 0x9
 831 0127 6B010000 		.4byte	.LASF14
 832 012b 01       		.byte	0x1
 833 012c DE       		.byte	0xde
 834 012d 25000000 		.4byte	0x25
 835 0131 02       		.byte	0x2
 836 0132 91       		.byte	0x91
 837 0133 73       		.sleb128 -13
 838 0134 00       		.byte	0x0
 839 0135 0D       		.uleb128 0xd
 840 0136 5D010000 		.4byte	0x15d
 841 013a A3000000 		.4byte	.LASF33
 842 013e 01       		.byte	0x1
 843 013f D1       		.byte	0xd1
 844 0140 01       		.byte	0x1
 845 0141 20020000 		.4byte	.LFB6
 846 0145 40020000 		.4byte	.LFE6
 847 0149 86000000 		.4byte	.LLST7
 848 014d 0E       		.uleb128 0xe
 849 014e 61726700 		.ascii	"arg\000"
ARM GAS  /cygdrive/c/DOCUME~1/mkwapisz/LOCALS~1/Temp/ccnbDm2q.s 			page 20


 850 0152 01       		.byte	0x1
 851 0153 D1       		.byte	0xd1
 852 0154 6C000000 		.4byte	0x6c
 853 0158 A5000000 		.4byte	.LLST8
 854 015c 00       		.byte	0x0
 855 015d 09       		.uleb128 0x9
 856 015e 74000000 		.4byte	.LASF15
 857 0162 01       		.byte	0x1
 858 0163 2C       		.byte	0x2c
 859 0164 25000000 		.4byte	0x25
 860 0168 05       		.byte	0x5
 861 0169 03       		.byte	0x3
 862 016a 00000000 		.4byte	centerReleased
 863 016e 09       		.uleb128 0x9
 864 016f 47000000 		.4byte	.LASF16
 865 0173 01       		.byte	0x1
 866 0174 2D       		.byte	0x2d
 867 0175 25000000 		.4byte	0x25
 868 0179 05       		.byte	0x5
 869 017a 03       		.byte	0x3
 870 017b 01000000 		.4byte	keyUpReleased
 871 017f 09       		.uleb128 0x9
 872 0180 2A000000 		.4byte	.LASF17
 873 0184 01       		.byte	0x1
 874 0185 2E       		.byte	0x2e
 875 0186 25000000 		.4byte	0x25
 876 018a 05       		.byte	0x5
 877 018b 03       		.byte	0x3
 878 018c 02000000 		.4byte	keyDownReleased
 879 0190 09       		.uleb128 0x9
 880 0191 00000000 		.4byte	.LASF18
 881 0195 01       		.byte	0x1
 882 0196 2F       		.byte	0x2f
 883 0197 25000000 		.4byte	0x25
 884 019b 05       		.byte	0x5
 885 019c 03       		.byte	0x3
 886 019d 03000000 		.4byte	keyLeftReleased
 887 01a1 09       		.uleb128 0x9
 888 01a2 19000000 		.4byte	.LASF19
 889 01a6 01       		.byte	0x1
 890 01a7 30       		.byte	0x30
 891 01a8 25000000 		.4byte	0x25
 892 01ac 05       		.byte	0x5
 893 01ad 03       		.byte	0x3
 894 01ae 04000000 		.4byte	keyRightReleased
 895 01b2 09       		.uleb128 0x9
 896 01b3 99010000 		.4byte	.LASF20
 897 01b7 01       		.byte	0x1
 898 01b8 31       		.byte	0x31
 899 01b9 25000000 		.4byte	0x25
 900 01bd 05       		.byte	0x5
 901 01be 03       		.byte	0x3
 902 01bf 02000000 		.4byte	centerKeyCnt
 903 01c3 09       		.uleb128 0x9
 904 01c4 10000000 		.4byte	.LASF21
 905 01c8 01       		.byte	0x1
 906 01c9 32       		.byte	0x32
ARM GAS  /cygdrive/c/DOCUME~1/mkwapisz/LOCALS~1/Temp/ccnbDm2q.s 			page 21


 907 01ca 25000000 		.4byte	0x25
 908 01ce 05       		.byte	0x5
 909 01cf 03       		.byte	0x3
 910 01d0 03000000 		.4byte	upKeyCnt
 911 01d4 09       		.uleb128 0x9
 912 01d5 DC000000 		.4byte	.LASF22
 913 01d9 01       		.byte	0x1
 914 01da 33       		.byte	0x33
 915 01db 25000000 		.4byte	0x25
 916 01df 05       		.byte	0x5
 917 01e0 03       		.byte	0x3
 918 01e1 04000000 		.4byte	downKeyCnt
 919 01e5 09       		.uleb128 0x9
 920 01e6 71010000 		.4byte	.LASF23
 921 01ea 01       		.byte	0x1
 922 01eb 34       		.byte	0x34
 923 01ec 25000000 		.4byte	0x25
 924 01f0 05       		.byte	0x5
 925 01f1 03       		.byte	0x3
 926 01f2 05000000 		.4byte	leftKeyCnt
 927 01f6 09       		.uleb128 0x9
 928 01f7 5C000000 		.4byte	.LASF24
 929 01fb 01       		.byte	0x1
 930 01fc 35       		.byte	0x35
 931 01fd 25000000 		.4byte	0x25
 932 0201 05       		.byte	0x5
 933 0202 03       		.byte	0x3
 934 0203 06000000 		.4byte	rightKeyCnt
 935 0207 09       		.uleb128 0x9
 936 0208 E7000000 		.4byte	.LASF25
 937 020c 01       		.byte	0x1
 938 020d 37       		.byte	0x37
 939 020e 18020000 		.4byte	0x218
 940 0212 05       		.byte	0x5
 941 0213 03       		.byte	0x3
 942 0214 00000000 		.4byte	activeKey
 943 0218 0F       		.uleb128 0xf
 944 0219 25000000 		.4byte	0x25
 945 021d 09       		.uleb128 0x9
 946 021e 56010000 		.4byte	.LASF26
 947 0222 01       		.byte	0x1
 948 0223 38       		.byte	0x38
 949 0224 18020000 		.4byte	0x218
 950 0228 05       		.byte	0x5
 951 0229 03       		.byte	0x3
 952 022a 01000000 		.4byte	activeKey2
 953 022e 10       		.uleb128 0x10
 954 022f 3F020000 		.4byte	0x23f
 955 0233 25000000 		.4byte	0x25
 956 0237 11       		.uleb128 0x11
 957 0238 65000000 		.4byte	0x65
 958 023c 2B01     		.2byte	0x12b
 959 023e 00       		.byte	0x0
 960 023f 09       		.uleb128 0x9
 961 0240 3A000000 		.4byte	.LASF27
 962 0244 01       		.byte	0x1
 963 0245 3A       		.byte	0x3a
ARM GAS  /cygdrive/c/DOCUME~1/mkwapisz/LOCALS~1/Temp/ccnbDm2q.s 			page 22


 964 0246 2E020000 		.4byte	0x22e
 965 024a 05       		.byte	0x5
 966 024b 03       		.byte	0x3
 967 024c 07000000 		.4byte	keyProcStack
 968 0250 09       		.uleb128 0x9
 969 0251 7C010000 		.4byte	.LASF28
 970 0255 01       		.byte	0x1
 971 0256 3B       		.byte	0x3b
 972 0257 25000000 		.4byte	0x25
 973 025b 05       		.byte	0x5
 974 025c 03       		.byte	0x3
 975 025d 33010000 		.4byte	keyProcPid
 976 0261 00       		.byte	0x0
 977              		.section	.debug_abbrev
 978 0000 01       		.uleb128 0x1
 979 0001 11       		.uleb128 0x11
 980 0002 01       		.byte	0x1
 981 0003 10       		.uleb128 0x10
 982 0004 06       		.uleb128 0x6
 983 0005 12       		.uleb128 0x12
 984 0006 01       		.uleb128 0x1
 985 0007 11       		.uleb128 0x11
 986 0008 01       		.uleb128 0x1
 987 0009 25       		.uleb128 0x25
 988 000a 0E       		.uleb128 0xe
 989 000b 13       		.uleb128 0x13
 990 000c 0B       		.uleb128 0xb
 991 000d 03       		.uleb128 0x3
 992 000e 0E       		.uleb128 0xe
 993 000f 1B       		.uleb128 0x1b
 994 0010 0E       		.uleb128 0xe
 995 0011 00       		.byte	0x0
 996 0012 00       		.byte	0x0
 997 0013 02       		.uleb128 0x2
 998 0014 16       		.uleb128 0x16
 999 0015 00       		.byte	0x0
 1000 0016 03       		.uleb128 0x3
 1001 0017 08       		.uleb128 0x8
 1002 0018 3A       		.uleb128 0x3a
 1003 0019 0B       		.uleb128 0xb
 1004 001a 3B       		.uleb128 0x3b
 1005 001b 0B       		.uleb128 0xb
 1006 001c 49       		.uleb128 0x49
 1007 001d 13       		.uleb128 0x13
 1008 001e 00       		.byte	0x0
 1009 001f 00       		.byte	0x0
 1010 0020 03       		.uleb128 0x3
 1011 0021 24       		.uleb128 0x24
 1012 0022 00       		.byte	0x0
 1013 0023 03       		.uleb128 0x3
 1014 0024 0E       		.uleb128 0xe
 1015 0025 0B       		.uleb128 0xb
 1016 0026 0B       		.uleb128 0xb
 1017 0027 3E       		.uleb128 0x3e
 1018 0028 0B       		.uleb128 0xb
 1019 0029 00       		.byte	0x0
 1020 002a 00       		.byte	0x0
ARM GAS  /cygdrive/c/DOCUME~1/mkwapisz/LOCALS~1/Temp/ccnbDm2q.s 			page 23


 1021 002b 04       		.uleb128 0x4
 1022 002c 24       		.uleb128 0x24
 1023 002d 00       		.byte	0x0
 1024 002e 03       		.uleb128 0x3
 1025 002f 08       		.uleb128 0x8
 1026 0030 0B       		.uleb128 0xb
 1027 0031 0B       		.uleb128 0xb
 1028 0032 3E       		.uleb128 0x3e
 1029 0033 0B       		.uleb128 0xb
 1030 0034 00       		.byte	0x0
 1031 0035 00       		.byte	0x0
 1032 0036 05       		.uleb128 0x5
 1033 0037 16       		.uleb128 0x16
 1034 0038 00       		.byte	0x0
 1035 0039 03       		.uleb128 0x3
 1036 003a 0E       		.uleb128 0xe
 1037 003b 3A       		.uleb128 0x3a
 1038 003c 0B       		.uleb128 0xb
 1039 003d 3B       		.uleb128 0x3b
 1040 003e 0B       		.uleb128 0xb
 1041 003f 49       		.uleb128 0x49
 1042 0040 13       		.uleb128 0x13
 1043 0041 00       		.byte	0x0
 1044 0042 00       		.byte	0x0
 1045 0043 06       		.uleb128 0x6
 1046 0044 0F       		.uleb128 0xf
 1047 0045 00       		.byte	0x0
 1048 0046 0B       		.uleb128 0xb
 1049 0047 0B       		.uleb128 0xb
 1050 0048 00       		.byte	0x0
 1051 0049 00       		.byte	0x0
 1052 004a 07       		.uleb128 0x7
 1053 004b 2E       		.uleb128 0x2e
 1054 004c 01       		.byte	0x1
 1055 004d 01       		.uleb128 0x1
 1056 004e 13       		.uleb128 0x13
 1057 004f 3F       		.uleb128 0x3f
 1058 0050 0C       		.uleb128 0xc
 1059 0051 03       		.uleb128 0x3
 1060 0052 0E       		.uleb128 0xe
 1061 0053 3A       		.uleb128 0x3a
 1062 0054 0B       		.uleb128 0xb
 1063 0055 3B       		.uleb128 0x3b
 1064 0056 0B       		.uleb128 0xb
 1065 0057 27       		.uleb128 0x27
 1066 0058 0C       		.uleb128 0xc
 1067 0059 49       		.uleb128 0x49
 1068 005a 13       		.uleb128 0x13
 1069 005b 11       		.uleb128 0x11
 1070 005c 01       		.uleb128 0x1
 1071 005d 12       		.uleb128 0x12
 1072 005e 01       		.uleb128 0x1
 1073 005f 40       		.uleb128 0x40
 1074 0060 0A       		.uleb128 0xa
 1075 0061 00       		.byte	0x0
 1076 0062 00       		.byte	0x0
 1077 0063 08       		.uleb128 0x8
ARM GAS  /cygdrive/c/DOCUME~1/mkwapisz/LOCALS~1/Temp/ccnbDm2q.s 			page 24


 1078 0064 34       		.uleb128 0x34
 1079 0065 00       		.byte	0x0
 1080 0066 03       		.uleb128 0x3
 1081 0067 0E       		.uleb128 0xe
 1082 0068 3A       		.uleb128 0x3a
 1083 0069 0B       		.uleb128 0xb
 1084 006a 3B       		.uleb128 0x3b
 1085 006b 0B       		.uleb128 0xb
 1086 006c 49       		.uleb128 0x49
 1087 006d 13       		.uleb128 0x13
 1088 006e 02       		.uleb128 0x2
 1089 006f 06       		.uleb128 0x6
 1090 0070 00       		.byte	0x0
 1091 0071 00       		.byte	0x0
 1092 0072 09       		.uleb128 0x9
 1093 0073 34       		.uleb128 0x34
 1094 0074 00       		.byte	0x0
 1095 0075 03       		.uleb128 0x3
 1096 0076 0E       		.uleb128 0xe
 1097 0077 3A       		.uleb128 0x3a
 1098 0078 0B       		.uleb128 0xb
 1099 0079 3B       		.uleb128 0x3b
 1100 007a 0B       		.uleb128 0xb
 1101 007b 49       		.uleb128 0x49
 1102 007c 13       		.uleb128 0x13
 1103 007d 02       		.uleb128 0x2
 1104 007e 0A       		.uleb128 0xa
 1105 007f 00       		.byte	0x0
 1106 0080 00       		.byte	0x0
 1107 0081 0A       		.uleb128 0xa
 1108 0082 2E       		.uleb128 0x2e
 1109 0083 00       		.byte	0x0
 1110 0084 3F       		.uleb128 0x3f
 1111 0085 0C       		.uleb128 0xc
 1112 0086 03       		.uleb128 0x3
 1113 0087 0E       		.uleb128 0xe
 1114 0088 3A       		.uleb128 0x3a
 1115 0089 0B       		.uleb128 0xb
 1116 008a 3B       		.uleb128 0x3b
 1117 008b 0B       		.uleb128 0xb
 1118 008c 27       		.uleb128 0x27
 1119 008d 0C       		.uleb128 0xc
 1120 008e 49       		.uleb128 0x49
 1121 008f 13       		.uleb128 0x13
 1122 0090 11       		.uleb128 0x11
 1123 0091 01       		.uleb128 0x1
 1124 0092 12       		.uleb128 0x12
 1125 0093 01       		.uleb128 0x1
 1126 0094 40       		.uleb128 0x40
 1127 0095 0A       		.uleb128 0xa
 1128 0096 00       		.byte	0x0
 1129 0097 00       		.byte	0x0
 1130 0098 0B       		.uleb128 0xb
 1131 0099 2E       		.uleb128 0x2e
 1132 009a 01       		.byte	0x1
 1133 009b 01       		.uleb128 0x1
 1134 009c 13       		.uleb128 0x13
ARM GAS  /cygdrive/c/DOCUME~1/mkwapisz/LOCALS~1/Temp/ccnbDm2q.s 			page 25


 1135 009d 3F       		.uleb128 0x3f
 1136 009e 0C       		.uleb128 0xc
 1137 009f 03       		.uleb128 0x3
 1138 00a0 0E       		.uleb128 0xe
 1139 00a1 3A       		.uleb128 0x3a
 1140 00a2 0B       		.uleb128 0xb
 1141 00a3 3B       		.uleb128 0x3b
 1142 00a4 0B       		.uleb128 0xb
 1143 00a5 27       		.uleb128 0x27
 1144 00a6 0C       		.uleb128 0xc
 1145 00a7 11       		.uleb128 0x11
 1146 00a8 01       		.uleb128 0x1
 1147 00a9 12       		.uleb128 0x12
 1148 00aa 01       		.uleb128 0x1
 1149 00ab 40       		.uleb128 0x40
 1150 00ac 06       		.uleb128 0x6
 1151 00ad 00       		.byte	0x0
 1152 00ae 00       		.byte	0x0
 1153 00af 0C       		.uleb128 0xc
 1154 00b0 34       		.uleb128 0x34
 1155 00b1 00       		.byte	0x0
 1156 00b2 03       		.uleb128 0x3
 1157 00b3 0E       		.uleb128 0xe
 1158 00b4 3A       		.uleb128 0x3a
 1159 00b5 0B       		.uleb128 0xb
 1160 00b6 3B       		.uleb128 0x3b
 1161 00b7 0B       		.uleb128 0xb
 1162 00b8 49       		.uleb128 0x49
 1163 00b9 13       		.uleb128 0x13
 1164 00ba 00       		.byte	0x0
 1165 00bb 00       		.byte	0x0
 1166 00bc 0D       		.uleb128 0xd
 1167 00bd 2E       		.uleb128 0x2e
 1168 00be 01       		.byte	0x1
 1169 00bf 01       		.uleb128 0x1
 1170 00c0 13       		.uleb128 0x13
 1171 00c1 03       		.uleb128 0x3
 1172 00c2 0E       		.uleb128 0xe
 1173 00c3 3A       		.uleb128 0x3a
 1174 00c4 0B       		.uleb128 0xb
 1175 00c5 3B       		.uleb128 0x3b
 1176 00c6 0B       		.uleb128 0xb
 1177 00c7 27       		.uleb128 0x27
 1178 00c8 0C       		.uleb128 0xc
 1179 00c9 11       		.uleb128 0x11
 1180 00ca 01       		.uleb128 0x1
 1181 00cb 12       		.uleb128 0x12
 1182 00cc 01       		.uleb128 0x1
 1183 00cd 40       		.uleb128 0x40
 1184 00ce 06       		.uleb128 0x6
 1185 00cf 00       		.byte	0x0
 1186 00d0 00       		.byte	0x0
 1187 00d1 0E       		.uleb128 0xe
 1188 00d2 05       		.uleb128 0x5
 1189 00d3 00       		.byte	0x0
 1190 00d4 03       		.uleb128 0x3
 1191 00d5 08       		.uleb128 0x8
ARM GAS  /cygdrive/c/DOCUME~1/mkwapisz/LOCALS~1/Temp/ccnbDm2q.s 			page 26


 1192 00d6 3A       		.uleb128 0x3a
 1193 00d7 0B       		.uleb128 0xb
 1194 00d8 3B       		.uleb128 0x3b
 1195 00d9 0B       		.uleb128 0xb
 1196 00da 49       		.uleb128 0x49
 1197 00db 13       		.uleb128 0x13
 1198 00dc 02       		.uleb128 0x2
 1199 00dd 06       		.uleb128 0x6
 1200 00de 00       		.byte	0x0
 1201 00df 00       		.byte	0x0
 1202 00e0 0F       		.uleb128 0xf
 1203 00e1 35       		.uleb128 0x35
 1204 00e2 00       		.byte	0x0
 1205 00e3 49       		.uleb128 0x49
 1206 00e4 13       		.uleb128 0x13
 1207 00e5 00       		.byte	0x0
 1208 00e6 00       		.byte	0x0
 1209 00e7 10       		.uleb128 0x10
 1210 00e8 01       		.uleb128 0x1
 1211 00e9 01       		.byte	0x1
 1212 00ea 01       		.uleb128 0x1
 1213 00eb 13       		.uleb128 0x13
 1214 00ec 49       		.uleb128 0x49
 1215 00ed 13       		.uleb128 0x13
 1216 00ee 00       		.byte	0x0
 1217 00ef 00       		.byte	0x0
 1218 00f0 11       		.uleb128 0x11
 1219 00f1 21       		.uleb128 0x21
 1220 00f2 00       		.byte	0x0
 1221 00f3 49       		.uleb128 0x49
 1222 00f4 13       		.uleb128 0x13
 1223 00f5 2F       		.uleb128 0x2f
 1224 00f6 05       		.uleb128 0x5
 1225 00f7 00       		.byte	0x0
 1226 00f8 00       		.byte	0x0
 1227 00f9 00       		.byte	0x0
 1228              		.section	.debug_pubnames,"",%progbits
 1229 0000 63000000 		.4byte	0x63
 1230 0004 0200     		.2byte	0x2
 1231 0006 00000000 		.4byte	.Ldebug_info0
 1232 000a 62020000 		.4byte	0x262
 1233 000e 6E000000 		.4byte	0x6e
 1234 0012 6765744B 		.ascii	"getKeys\000"
 1234      65797300 
 1235 001a 99000000 		.4byte	0x99
 1236 001e 67657450 		.ascii	"getPressedKey\000"
 1236      72657373 
 1236      65644B65 
 1236      7900
 1237 002c C2000000 		.4byte	0xc2
 1238 0030 6765744E 		.ascii	"getNowPressedKey\000"
 1238      6F775072 
 1238      65737365 
 1238      644B6579 
 1238      00
 1239 0041 D9000000 		.4byte	0xd9
 1240 0045 72656164 		.ascii	"readKeyInLoop\000"
ARM GAS  /cygdrive/c/DOCUME~1/mkwapisz/LOCALS~1/Temp/ccnbDm2q.s 			page 27


 1240      4B657949 
 1240      6E4C6F6F 
 1240      7000
 1241 0053 0D010000 		.4byte	0x10d
 1242 0057 696E6974 		.ascii	"initKeyProc\000"
 1242      4B657950 
 1242      726F6300 
 1243 0063 00000000 		.4byte	0x0
 1244              		.section	.debug_aranges,"",%progbits
 1245 0000 1C000000 		.4byte	0x1c
 1246 0004 0200     		.2byte	0x2
 1247 0006 00000000 		.4byte	.Ldebug_info0
 1248 000a 04       		.byte	0x4
 1249 000b 00       		.byte	0x0
 1250 000c 0000     		.2byte	0x0
 1251 000e 0000     		.2byte	0x0
 1252 0010 00000000 		.4byte	.Ltext0
 1253 0014 40020000 		.4byte	.Letext0-.Ltext0
 1254 0018 00000000 		.4byte	0x0
 1255 001c 00000000 		.4byte	0x0
 1256              		.section	.debug_str,"MS",%progbits,1
 1257              	.LASF18:
 1258 0000 6B65794C 		.ascii	"keyLeftReleased\000"
 1258      65667452 
 1258      656C6561 
 1258      73656400 
 1259              	.LASF21:
 1260 0010 75704B65 		.ascii	"upKeyCnt\000"
 1260      79436E74 
 1260      00
 1261              	.LASF19:
 1262 0019 6B657952 		.ascii	"keyRightReleased\000"
 1262      69676874 
 1262      52656C65 
 1262      61736564 
 1262      00
 1263              	.LASF17:
 1264 002a 6B657944 		.ascii	"keyDownReleased\000"
 1264      6F776E52 
 1264      656C6561 
 1264      73656400 
 1265              	.LASF27:
 1266 003a 6B657950 		.ascii	"keyProcStack\000"
 1266      726F6353 
 1266      7461636B 
 1266      00
 1267              	.LASF16:
 1268 0047 6B657955 		.ascii	"keyUpReleased\000"
 1268      7052656C 
 1268      65617365 
 1268      6400
 1269              	.LASF10:
 1270 0055 72657456 		.ascii	"retVal\000"
 1270      616C00
 1271              	.LASF24:
 1272 005c 72696768 		.ascii	"rightKeyCnt\000"
 1272      744B6579 
ARM GAS  /cygdrive/c/DOCUME~1/mkwapisz/LOCALS~1/Temp/ccnbDm2q.s 			page 28


 1272      436E7400 
 1273              	.LASF13:
 1274 0068 696E6974 		.ascii	"initKeyProc\000"
 1274      4B657950 
 1274      726F6300 
 1275              	.LASF15:
 1276 0074 63656E74 		.ascii	"centerReleased\000"
 1276      65725265 
 1276      6C656173 
 1276      656400
 1277              	.LASF0:
 1278 0083 756E7369 		.ascii	"unsigned char\000"
 1278      676E6564 
 1278      20636861 
 1278      7200
 1279              	.LASF6:
 1280 0091 6C6F6E67 		.ascii	"long unsigned int\000"
 1280      20756E73 
 1280      69676E65 
 1280      6420696E 
 1280      7400
 1281              	.LASF33:
 1282 00a3 70726F63 		.ascii	"procKey\000"
 1282      4B657900 
 1283              	.LASF1:
 1284 00ab 73686F72 		.ascii	"short unsigned int\000"
 1284      7420756E 
 1284      7369676E 
 1284      65642069 
 1284      6E7400
 1285              	.LASF7:
 1286 00be 6765744B 		.ascii	"getKeys\000"
 1286      65797300 
 1287              	.LASF11:
 1288 00c6 72656164 		.ascii	"readKeyInLoop\000"
 1288      4B657949 
 1288      6E4C6F6F 
 1288      7000
 1289              	.LASF12:
 1290 00d4 6E6F7468 		.ascii	"nothing\000"
 1290      696E6700 
 1291              	.LASF22:
 1292 00dc 646F776E 		.ascii	"downKeyCnt\000"
 1292      4B657943 
 1292      6E7400
 1293              	.LASF25:
 1294 00e7 61637469 		.ascii	"activeKey\000"
 1294      76654B65 
 1294      7900
 1295              	.LASF32:
 1296 00f1 6765744E 		.ascii	"getNowPressedKey\000"
 1296      6F775072 
 1296      65737365 
 1296      644B6579 
 1296      00
 1297              	.LASF2:
 1298 0102 756E7369 		.ascii	"unsigned int\000"
ARM GAS  /cygdrive/c/DOCUME~1/mkwapisz/LOCALS~1/Temp/ccnbDm2q.s 			page 29


 1298      676E6564 
 1298      20696E74 
 1298      00
 1299              	.LASF30:
 1300 010f 6A6F7973 		.ascii	"joystick/joystick.c\000"
 1300      7469636B 
 1300      2F6A6F79 
 1300      73746963 
 1300      6B2E6300 
 1301              	.LASF9:
 1302 0123 72656164 		.ascii	"readKeys\000"
 1302      4B657973 
 1302      00
 1303              	.LASF29:
 1304 012c 474E5520 		.ascii	"GNU C 4.1.1\000"
 1304      4320342E 
 1304      312E3100 
 1305              	.LASF31:
 1306 0138 2F637967 		.ascii	"/cygdrive/z/IntergatedSystems\000"
 1306      64726976 
 1306      652F7A2F 
 1306      496E7465 
 1306      72676174 
 1307              	.LASF26:
 1308 0156 61637469 		.ascii	"activeKey2\000"
 1308      76654B65 
 1308      793200
 1309              	.LASF4:
 1310 0161 73686F72 		.ascii	"short int\000"
 1310      7420696E 
 1310      7400
 1311              	.LASF14:
 1312 016b 6572726F 		.ascii	"error\000"
 1312      7200
 1313              	.LASF23:
 1314 0171 6C656674 		.ascii	"leftKeyCnt\000"
 1314      4B657943 
 1314      6E7400
 1315              	.LASF28:
 1316 017c 6B657950 		.ascii	"keyProcPid\000"
 1316      726F6350 
 1316      696400
 1317              	.LASF3:
 1318 0187 7369676E 		.ascii	"signed char\000"
 1318      65642063 
 1318      68617200 
 1319              	.LASF5:
 1320 0193 74426F6F 		.ascii	"tBool\000"
 1320      6C00
 1321              	.LASF20:
 1322 0199 63656E74 		.ascii	"centerKeyCnt\000"
 1322      65724B65 
 1322      79436E74 
 1322      00
 1323              	.LASF8:
 1324 01a6 67657450 		.ascii	"getPressedKey\000"
 1324      72657373 
ARM GAS  /cygdrive/c/DOCUME~1/mkwapisz/LOCALS~1/Temp/ccnbDm2q.s 			page 30


 1324      65644B65 
 1324      7900
 1325              		.ident	"GCC: (GNU) 4.1.1"
ARM GAS  /cygdrive/c/DOCUME~1/mkwapisz/LOCALS~1/Temp/ccnbDm2q.s 			page 31


DEFINED SYMBOLS
                            *ABS*:00000000 joystick.c
/cygdrive/c/DOCUME~1/mkwapisz/LOCALS~1/Temp/ccnbDm2q.s:1      .text:00000000 $t
/cygdrive/c/DOCUME~1/mkwapisz/LOCALS~1/Temp/ccnbDm2q.s:16     .text:00000000 getKeys
/cygdrive/c/DOCUME~1/mkwapisz/LOCALS~1/Temp/ccnbDm2q.s:84     .text:0000004c $d
/cygdrive/c/DOCUME~1/mkwapisz/LOCALS~1/Temp/ccnbDm2q.s:92     .text:00000050 getPressedKey
/cygdrive/c/DOCUME~1/mkwapisz/LOCALS~1/Temp/ccnbDm2q.s:89     .text:00000050 $t
/cygdrive/c/DOCUME~1/mkwapisz/LOCALS~1/Temp/ccnbDm2q.s:110    .text:0000005c $d
/cygdrive/c/DOCUME~1/mkwapisz/LOCALS~1/Temp/ccnbDm2q.s:491    .bss:00000000 activeKey
/cygdrive/c/DOCUME~1/mkwapisz/LOCALS~1/Temp/ccnbDm2q.s:118    .text:00000060 getNowPressedKey
/cygdrive/c/DOCUME~1/mkwapisz/LOCALS~1/Temp/ccnbDm2q.s:115    .text:00000060 $t
/cygdrive/c/DOCUME~1/mkwapisz/LOCALS~1/Temp/ccnbDm2q.s:132    .text:00000068 $d
/cygdrive/c/DOCUME~1/mkwapisz/LOCALS~1/Temp/ccnbDm2q.s:493    .bss:00000001 activeKey2
/cygdrive/c/DOCUME~1/mkwapisz/LOCALS~1/Temp/ccnbDm2q.s:140    .text:0000006c readKeyInLoop
/cygdrive/c/DOCUME~1/mkwapisz/LOCALS~1/Temp/ccnbDm2q.s:137    .text:0000006c $t
/cygdrive/c/DOCUME~1/mkwapisz/LOCALS~1/Temp/ccnbDm2q.s:395    .text:000001b0 $d
/cygdrive/c/DOCUME~1/mkwapisz/LOCALS~1/Temp/ccnbDm2q.s:488    .data:00000000 centerReleased
/cygdrive/c/DOCUME~1/mkwapisz/LOCALS~1/Temp/ccnbDm2q.s:513    .bss:00000002 centerKeyCnt
/cygdrive/c/DOCUME~1/mkwapisz/LOCALS~1/Temp/ccnbDm2q.s:498    .data:00000001 keyUpReleased
/cygdrive/c/DOCUME~1/mkwapisz/LOCALS~1/Temp/ccnbDm2q.s:515    .bss:00000003 upKeyCnt
/cygdrive/c/DOCUME~1/mkwapisz/LOCALS~1/Temp/ccnbDm2q.s:502    .data:00000002 keyDownReleased
/cygdrive/c/DOCUME~1/mkwapisz/LOCALS~1/Temp/ccnbDm2q.s:517    .bss:00000004 downKeyCnt
/cygdrive/c/DOCUME~1/mkwapisz/LOCALS~1/Temp/ccnbDm2q.s:506    .data:00000003 keyLeftReleased
/cygdrive/c/DOCUME~1/mkwapisz/LOCALS~1/Temp/ccnbDm2q.s:519    .bss:00000005 leftKeyCnt
/cygdrive/c/DOCUME~1/mkwapisz/LOCALS~1/Temp/ccnbDm2q.s:510    .data:00000004 keyRightReleased
/cygdrive/c/DOCUME~1/mkwapisz/LOCALS~1/Temp/ccnbDm2q.s:521    .bss:00000006 rightKeyCnt
/cygdrive/c/DOCUME~1/mkwapisz/LOCALS~1/Temp/ccnbDm2q.s:414    .text:000001e0 initKeyProc
/cygdrive/c/DOCUME~1/mkwapisz/LOCALS~1/Temp/ccnbDm2q.s:411    .text:000001e0 $t
/cygdrive/c/DOCUME~1/mkwapisz/LOCALS~1/Temp/ccnbDm2q.s:449    .text:00000214 $d
/cygdrive/c/DOCUME~1/mkwapisz/LOCALS~1/Temp/ccnbDm2q.s:525    .bss:00000133 keyProcPid
/cygdrive/c/DOCUME~1/mkwapisz/LOCALS~1/Temp/ccnbDm2q.s:458    .text:00000220 procKey
/cygdrive/c/DOCUME~1/mkwapisz/LOCALS~1/Temp/ccnbDm2q.s:523    .bss:00000007 keyProcStack
/cygdrive/c/DOCUME~1/mkwapisz/LOCALS~1/Temp/ccnbDm2q.s:455    .text:00000220 $t
/cygdrive/c/DOCUME~1/mkwapisz/LOCALS~1/Temp/ccnbDm2q.s:481    .text:00000238 $d
                             .bss:00000000 $d
/cygdrive/c/DOCUME~1/mkwapisz/LOCALS~1/Temp/ccnbDm2q.s:495    .bss:00000002 $d

UNDEFINED SYMBOLS
osCreateProcess
osStartProcess
osSleep
