ARM GAS  /cygdrive/c/DOCUME~1/mkwapisz/LOCALS~1/Temp/ccumO4cZ.s 			page 1


   1              		.code	16
   2              		.file	"secondLCD.c"
   3              		.section	.debug_abbrev,"",%progbits
   4              	.Ldebug_abbrev0:
   5              		.section	.debug_info,"",%progbits
   6              	.Ldebug_info0:
   7              		.section	.debug_line,"",%progbits
   8              	.Ldebug_line0:
   9 0000 29010000 		.text
   9      02006F00 
   9      00000201 
   9      FB0E0D00 
   9      01010101 
  10              	.Ltext0:
  11              		.align	2
  12              		.global	initSecondLCD
  13              		.code 16
  14              		.thumb_func
  15              		.type	initSecondLCD, %function
  16              	initSecondLCD:
  17              	.LFB2:
  18              		.file 1 "secondLCD/secondLCD.c"
   1:secondLCD/secondLCD.c **** /*
   2:secondLCD/secondLCD.c ****  * secondLCD.c
   3:secondLCD/secondLCD.c ****  *
   4:secondLCD/secondLCD.c ****  *  Created on: 05-11-2013
   5:secondLCD/secondLCD.c ****  *      Author: embedded
   6:secondLCD/secondLCD.c ****  */
   7:secondLCD/secondLCD.c **** #include "secondLCD.h"
   8:secondLCD/secondLCD.c **** tU8 scoreString[16];
   9:secondLCD/secondLCD.c **** tU8 hsString[16];
  10:secondLCD/secondLCD.c **** 
  11:secondLCD/secondLCD.c **** void initSecondLCD(void) {
  19              		.loc 1 11 0
  12:secondLCD/secondLCD.c **** 	IODIR1 |= (LCD_DATA | LCD_E | LCD_RS);
  20              		.loc 1 12 0
  21 0000 0A4A     		ldr	r2, .L3
  22 0002 0B49     		ldr	r1, .L3+4
  23 0004 1368     		ldr	r3, [r2]
  24 0006 0B43     		orr	r3, r3, r1
  25 0008 1360     		str	r3, [r2]
  13:secondLCD/secondLCD.c **** 	IOCLR1 = (LCD_DATA | LCD_E | LCD_RS);
  26              		.loc 1 13 0
  27 000a 0A4B     		ldr	r3, .L3+8
  28 000c 1960     		str	r1, [r3]
  14:secondLCD/secondLCD.c **** 
  15:secondLCD/secondLCD.c **** 	IODIR0 |= LCD_RW;
  29              		.loc 1 15 0
  30 000e 0A49     		ldr	r1, .L3+12
  31 0010 8022     		mov	r2, #128
  32 0012 0B68     		ldr	r3, [r1]
  33 0014 D203     		lsl	r2, r2, #15
  16:secondLCD/secondLCD.c **** 	IOCLR0 = LCD_RW;
  34              		.loc 1 16 0
  35 0016 0948     		ldr	r0, .L3+16
  36              		.loc 1 15 0
  37 0018 1343     		orr	r3, r3, r2
ARM GAS  /cygdrive/c/DOCUME~1/mkwapisz/LOCALS~1/Temp/ccumO4cZ.s 			page 2


  38 001a 0B60     		str	r3, [r1]
  39              		.loc 1 16 0
  40 001c 0260     		str	r2, [r0]
  17:secondLCD/secondLCD.c **** 
  18:secondLCD/secondLCD.c **** 	IODIR0 |= LCD_BACKLIGHT;
  41              		.loc 1 18 0
  42 001e 8023     		mov	r3, #128
  43 0020 0A68     		ldr	r2, [r1]
  44 0022 DB05     		lsl	r3, r3, #23
  45 0024 1A43     		orr	r2, r2, r3
  46 0026 0A60     		str	r2, [r1]
  47              		.loc 1 11 0
  48              		@ lr needed for prologue
  19:secondLCD/secondLCD.c **** 	IOCLR0 = LCD_BACKLIGHT;
  49              		.loc 1 19 0
  50 0028 0360     		str	r3, [r0]
  20:secondLCD/secondLCD.c **** }
  51              		.loc 1 20 0
  52              		@ sp needed for prologue
  53 002a 7047     		bx	lr
  54              	.L4:
  55              		.align	2
  56              	.L3:
  57 002c 188002E0 		.word	-536707048
  58 0030 0000FF03 		.word	67043328
  59 0034 1C8002E0 		.word	-536707044
  60 0038 088002E0 		.word	-536707064
  61 003c 0C8002E0 		.word	-536707060
  62              	.LFE2:
  63              		.size	initSecondLCD, .-initSecondLCD
  64              		.align	2
  65              		.code 16
  66              		.thumb_func
  67              		.type	delay37us, %function
  68              	delay37us:
  69              	.LFB3:
  21:secondLCD/secondLCD.c **** 
  22:secondLCD/secondLCD.c **** static void delay37us(void) {
  70              		.loc 1 22 0
  71 0040 81B0     		sub	sp, sp, #4
  72              	.LCFI0:
  23:secondLCD/secondLCD.c **** 	volatile tU32 i;
  24:secondLCD/secondLCD.c **** 
  25:secondLCD/secondLCD.c **** 	//Temp test for 140 uS delay
  26:secondLCD/secondLCD.c **** 	for (i = 0; i < 6 * 2500; i++)
  73              		.loc 1 26 0
  74 0042 0023     		mov	r3, #0
  75              		.loc 1 22 0
  76              		@ lr needed for prologue
  77 0044 02E0     		b	.L10
  78              	.LVL0:
  79              	.L7:
  27:secondLCD/secondLCD.c **** 		asm volatile (" nop");
  80              		.loc 1 27 0
  81 0046 C046     		 nop
  82              		.loc 1 26 0
  83              		.code	16
ARM GAS  /cygdrive/c/DOCUME~1/mkwapisz/LOCALS~1/Temp/ccumO4cZ.s 			page 3


  84 0048 009B     		ldr	r3, [sp]
  85 004a 0133     		add	r3, r3, #1
  86              	.L10:
  87 004c 0093     		str	r3, [sp]
  88 004e 009A     		ldr	r2, [sp]
  89 0050 024B     		ldr	r3, .L11
  90 0052 9A42     		cmp	r2, r3
  91 0054 F7D9     		bls	.L7
  28:secondLCD/secondLCD.c **** 	//delay 15 ns x 2500 = about 37 us delay
  29:secondLCD/secondLCD.c **** }
  92              		.loc 1 29 0
  93 0056 01B0     		add	sp, sp, #4
  94              		@ sp needed for prologue
  95 0058 7047     		bx	lr
  96              	.L12:
  97 005a 0000     		.align	2
  98              	.L11:
  99 005c 973A0000 		.word	14999
 100              	.LFE3:
 101              		.size	delay37us, .-delay37us
 102              		.align	2
 103              		.code 16
 104              		.thumb_func
 105              		.type	writeLCD, %function
 106              	writeLCD:
 107              	.LFB5:
  30:secondLCD/secondLCD.c **** 
  31:secondLCD/secondLCD.c **** static void lcdBacklight(tU8 onOff) {
  32:secondLCD/secondLCD.c **** 	if (onOff == TRUE)
  33:secondLCD/secondLCD.c **** 		IOSET0 = LCD_BACKLIGHT;
  34:secondLCD/secondLCD.c **** 	else
  35:secondLCD/secondLCD.c **** 		IOCLR0 = LCD_BACKLIGHT;
  36:secondLCD/secondLCD.c **** }
  37:secondLCD/secondLCD.c **** 
  38:secondLCD/secondLCD.c **** static void writeLCD(tU8 reg, tU8 data) {
 108              		.loc 1 38 0
 109              	.LVL1:
 110 0060 0906     		lsl	r1, r1, #24
 111              	.LVL2:
 112 0062 0006     		lsl	r0, r0, #24
 113              	.LVL3:
 114 0064 81B0     		sub	sp, sp, #4
 115              	.LCFI1:
 116              		@ lr needed for prologue
 117              		.loc 1 38 0
 118 0066 090E     		lsr	r1, r1, #24
 119              	.LVL4:
  39:secondLCD/secondLCD.c **** 	volatile tU8 i;
  40:secondLCD/secondLCD.c **** 
  41:secondLCD/secondLCD.c **** 	if (reg == 0)
 120              		.loc 1 41 0
 121 0068 0028     		cmp	r0, #0
 122 006a 03D1     		bne	.L14
  42:secondLCD/secondLCD.c **** 		IOCLR1 = LCD_RS;
 123              		.loc 1 42 0
 124 006c 8023     		mov	r3, #128
 125 006e 1D4A     		ldr	r2, .L25
ARM GAS  /cygdrive/c/DOCUME~1/mkwapisz/LOCALS~1/Temp/ccumO4cZ.s 			page 4


 126 0070 5B04     		lsl	r3, r3, #17
 127 0072 02E0     		b	.L24
 128              	.L14:
  43:secondLCD/secondLCD.c **** 	else
  44:secondLCD/secondLCD.c **** 		IOSET1 = LCD_RS;
 129              		.loc 1 44 0
 130 0074 8023     		mov	r3, #128
 131 0076 1C4A     		ldr	r2, .L25+4
 132 0078 5B04     		lsl	r3, r3, #17
 133              	.L24:
 134 007a 1360     		str	r3, [r2]
  45:secondLCD/secondLCD.c **** 
  46:secondLCD/secondLCD.c **** 	IOCLR0 = LCD_RW;
 135              		.loc 1 46 0
 136 007c 1B4A     		ldr	r2, .L25+8
 137 007e 8023     		mov	r3, #128
 138 0080 DB03     		lsl	r3, r3, #15
 139 0082 1360     		str	r3, [r2]
  47:secondLCD/secondLCD.c **** 	IOCLR1 = LCD_DATA;
 140              		.loc 1 47 0
 141 0084 174B     		ldr	r3, .L25
 142 0086 FF22     		mov	r2, #255
 143 0088 1204     		lsl	r2, r2, #16
 144 008a 1A60     		str	r2, [r3]
  48:secondLCD/secondLCD.c **** 	IOSET1 = ((tU32) data << 16) & LCD_DATA;
 145              		.loc 1 48 0
 146 008c 0B04     		lsl	r3, r1, #16
 147 008e 1340     		and	r3, r3, r2
 148 0090 154A     		ldr	r2, .L25+4
 149 0092 1360     		str	r3, [r2]
  49:secondLCD/secondLCD.c **** 	//printf("\nwrite: %x", data);
  50:secondLCD/secondLCD.c **** 	IOSET1 = LCD_E;
 150              		.loc 1 50 0
 151 0094 8023     		mov	r3, #128
 152 0096 9B04     		lsl	r3, r3, #18
 153 0098 1360     		str	r3, [r2]
  51:secondLCD/secondLCD.c **** 	//	osSleep(1);
  52:secondLCD/secondLCD.c **** 	for (i = 0; i < 16; i++)
 154              		.loc 1 52 0
 155 009a 6B46     		mov	r3, sp
 156 009c 0022     		mov	r2, #0
 157 009e 0333     		add	r3, r3, #3
 158 00a0 1A70     		strb	r2, [r3]
 159              	.LVL5:
 160 00a2 05E0     		b	.L17
 161              	.LVL6:
 162              	.L18:
  53:secondLCD/secondLCD.c **** 		asm volatile (" nop");
 163              		.loc 1 53 0
 164 00a4 C046     		 nop
 165              		.loc 1 52 0
 166              		.code	16
 167 00a6 0B78     		ldrb	r3, [r1]
 168 00a8 0133     		add	r3, r3, #1
 169              	.LVL7:
 170 00aa 1B06     		lsl	r3, r3, #24
 171 00ac 1B0E     		lsr	r3, r3, #24
ARM GAS  /cygdrive/c/DOCUME~1/mkwapisz/LOCALS~1/Temp/ccumO4cZ.s 			page 5


 172 00ae 0B70     		strb	r3, [r1]
 173              	.LVL8:
 174              	.L17:
 175 00b0 6946     		mov	r1, sp
 176              	.LVL9:
 177 00b2 0331     		add	r1, r1, #3
 178 00b4 0B78     		ldrb	r3, [r1]
 179 00b6 0F2B     		cmp	r3, #15
 180 00b8 F4D9     		bls	.L18
 181              	.LVL10:
  54:secondLCD/secondLCD.c **** 	//delay 15 ns x 16 = about 250 ns delay
  55:secondLCD/secondLCD.c **** 	IOCLR1 = LCD_E;
 182              		.loc 1 55 0
 183 00ba 8023     		mov	r3, #128
 184              	.LVL11:
 185 00bc 094A     		ldr	r2, .L25
 186 00be 9B04     		lsl	r3, r3, #18
 187 00c0 1360     		str	r3, [r2]
  56:secondLCD/secondLCD.c **** 	//	osSleep(1);
  57:secondLCD/secondLCD.c **** 	for (i = 0; i < 16; i++)
 188              		.loc 1 57 0
 189 00c2 0023     		mov	r3, #0
 190 00c4 0B70     		strb	r3, [r1]
 191 00c6 05E0     		b	.L20
 192              	.LVL12:
 193              	.L21:
  58:secondLCD/secondLCD.c **** 		asm volatile (" nop");
 194              		.loc 1 58 0
 195 00c8 C046     		 nop
 196              		.loc 1 57 0
 197              		.code	16
 198 00ca 1378     		ldrb	r3, [r2]
 199 00cc 0133     		add	r3, r3, #1
 200              	.LVL13:
 201 00ce 1B06     		lsl	r3, r3, #24
 202 00d0 1B0E     		lsr	r3, r3, #24
 203 00d2 1370     		strb	r3, [r2]
 204              	.LVL14:
 205              	.L20:
 206 00d4 6A46     		mov	r2, sp
 207 00d6 0332     		add	r2, r2, #3
 208 00d8 1378     		ldrb	r3, [r2]
 209 00da 0F2B     		cmp	r3, #15
 210 00dc F4D9     		bls	.L21
 211              	.LVL15:
  59:secondLCD/secondLCD.c **** 	//delay 15 ns x 16 = about 250 ns delay
  60:secondLCD/secondLCD.c **** }
 212              		.loc 1 60 0
 213 00de 01B0     		add	sp, sp, #4
 214              		@ sp needed for prologue
 215 00e0 7047     		bx	lr
 216              	.L26:
 217 00e2 0000     		.align	2
 218              	.L25:
 219 00e4 1C8002E0 		.word	-536707044
 220 00e8 148002E0 		.word	-536707052
 221 00ec 0C8002E0 		.word	-536707060
ARM GAS  /cygdrive/c/DOCUME~1/mkwapisz/LOCALS~1/Temp/ccumO4cZ.s 			page 6


 222              	.LFE5:
 223              		.size	writeLCD, .-writeLCD
 224              		.section	.rodata.str1.4,"aMS",%progbits,1
 225              		.align	2
 226              	.LC1:
 227 0000 44697370 		.ascii	"Display score %d\012\000"
 227      6C617920 
 227      73636F72 
 227      65202564 
 227      0A00
 228              		.global	__udivsi3
 229              		.global	__umodsi3
 230              		.global	__divsi3
 231              		.global	__modsi3
 232 0012 0000     		.align	2
 233              	.LC8:
 234 0014 25730A00 		.ascii	"%s\012\000"
 235              		.text
 236              		.align	2
 237              		.global	displayScoreAndTime
 238              		.code 16
 239              		.thumb_func
 240              		.type	displayScoreAndTime, %function
 241              	displayScoreAndTime:
 242              	.LFB8:
  61:secondLCD/secondLCD.c **** 
  62:secondLCD/secondLCD.c **** static void getScoreAsString(tU32 score) {
  63:secondLCD/secondLCD.c **** 	int i;
  64:secondLCD/secondLCD.c **** 	for (i = 0; i < 16; i++) {
  65:secondLCD/secondLCD.c **** 		scoreString[i] = ' ';
  66:secondLCD/secondLCD.c **** 	}
  67:secondLCD/secondLCD.c **** 	scoreString[0] = 'S';
  68:secondLCD/secondLCD.c **** 	scoreString[1] = 'c';
  69:secondLCD/secondLCD.c **** 	scoreString[2] = 'o';
  70:secondLCD/secondLCD.c **** 	scoreString[3] = 'r';
  71:secondLCD/secondLCD.c **** 	scoreString[4] = 'e';
  72:secondLCD/secondLCD.c **** 	scoreString[5] = ':';
  73:secondLCD/secondLCD.c **** 	scoreString[6] = score / 100000 + '0';
  74:secondLCD/secondLCD.c **** 	scoreString[7] = (score / 10000) % 10 + '0';
  75:secondLCD/secondLCD.c **** 	scoreString[8] = (score / 1000) % 10 + '0';
  76:secondLCD/secondLCD.c **** 	scoreString[9] = (score / 100) % 10 + '0';
  77:secondLCD/secondLCD.c **** 	scoreString[10] = (score / 10) % 10 + '0';
  78:secondLCD/secondLCD.c **** 	scoreString[11] = score % 10 + '0';
  79:secondLCD/secondLCD.c **** 	scoreString[12] = 0;
  80:secondLCD/secondLCD.c **** 
  81:secondLCD/secondLCD.c **** 	//remove leading zeroes
  82:secondLCD/secondLCD.c **** 	if (scoreString[6] == '0') {
  83:secondLCD/secondLCD.c **** 		scoreString[6] = ' ';
  84:secondLCD/secondLCD.c **** 		if (scoreString[7] == '0') {
  85:secondLCD/secondLCD.c **** 			scoreString[7] = ' ';
  86:secondLCD/secondLCD.c **** 			if (scoreString[8] == '0') {
  87:secondLCD/secondLCD.c **** 				scoreString[8] = ' ';
  88:secondLCD/secondLCD.c **** 				if (scoreString[9] == '0') {
  89:secondLCD/secondLCD.c **** 					scoreString[9] = ' ';
  90:secondLCD/secondLCD.c **** 					if (scoreString[10] == '0') {
  91:secondLCD/secondLCD.c **** 						scoreString[10] = ' ';
  92:secondLCD/secondLCD.c **** 					}
ARM GAS  /cygdrive/c/DOCUME~1/mkwapisz/LOCALS~1/Temp/ccumO4cZ.s 			page 7


  93:secondLCD/secondLCD.c **** 				}
  94:secondLCD/secondLCD.c **** 			}
  95:secondLCD/secondLCD.c **** 		}
  96:secondLCD/secondLCD.c **** 	}
  97:secondLCD/secondLCD.c **** }
  98:secondLCD/secondLCD.c **** 
  99:secondLCD/secondLCD.c **** static void getHSAsString() {
 100:secondLCD/secondLCD.c **** 	int i;
 101:secondLCD/secondLCD.c **** 	for (i = 0; i < 16; i++) {
 102:secondLCD/secondLCD.c **** 			hsString[i] = ' ';
 103:secondLCD/secondLCD.c **** 		}
 104:secondLCD/secondLCD.c **** 		hsString[0] = 'H';
 105:secondLCD/secondLCD.c **** 		hsString[1] = 'i';
 106:secondLCD/secondLCD.c **** 		hsString[2] = 'g';
 107:secondLCD/secondLCD.c **** 		hsString[3] = 'h';
 108:secondLCD/secondLCD.c **** 		hsString[4] = 'S';
 109:secondLCD/secondLCD.c **** 		hsString[5] = 'c';
 110:secondLCD/secondLCD.c **** 		hsString[6] = 'o';
 111:secondLCD/secondLCD.c **** 		hsString[7] = 'r';
 112:secondLCD/secondLCD.c **** 		hsString[8] = 'e';
 113:secondLCD/secondLCD.c **** 		hsString[9] = ':';
 114:secondLCD/secondLCD.c **** 		hsString[10] = highScore / 100000 + '0';
 115:secondLCD/secondLCD.c **** 		hsString[11] = (highScore / 10000) % 10 + '0';
 116:secondLCD/secondLCD.c **** 		hsString[12] = (highScore / 1000) % 10 + '0';
 117:secondLCD/secondLCD.c **** 		hsString[13] = (highScore / 100) % 10 + '0';
 118:secondLCD/secondLCD.c **** 		hsString[14] = (highScore / 10) % 10 + '0';
 119:secondLCD/secondLCD.c **** 		hsString[15] = highScore % 10 + '0';
 120:secondLCD/secondLCD.c **** 		hsString[16] = 0;
 121:secondLCD/secondLCD.c **** 
 122:secondLCD/secondLCD.c **** 		//remove leading zeroes
 123:secondLCD/secondLCD.c **** 		if (hsString[10] == '0') {
 124:secondLCD/secondLCD.c **** 			hsString[10] = ' ';
 125:secondLCD/secondLCD.c **** 			if (hsString[11] == '0') {
 126:secondLCD/secondLCD.c **** 				hsString[11] = ' ';
 127:secondLCD/secondLCD.c **** 				if (hsString[12] == '0') {
 128:secondLCD/secondLCD.c **** 					hsString[12] = ' ';
 129:secondLCD/secondLCD.c **** 					if (hsString[13] == '0') {
 130:secondLCD/secondLCD.c **** 						hsString[13] = ' ';
 131:secondLCD/secondLCD.c **** 						if (hsString[14] == '0') {
 132:secondLCD/secondLCD.c **** 							hsString[14] = ' ';
 133:secondLCD/secondLCD.c **** 						}
 134:secondLCD/secondLCD.c **** 					}
 135:secondLCD/secondLCD.c **** 				}
 136:secondLCD/secondLCD.c **** 			}
 137:secondLCD/secondLCD.c **** 	}
 138:secondLCD/secondLCD.c **** }
 139:secondLCD/secondLCD.c **** void displayScoreAndTime(tU32 score) {
 243              		.loc 1 139 0
 244 00f0 70B5     		push	{r4, r5, r6, lr}
 245              	.LCFI2:
 246              	.LVL16:
 247              	.LBB8:
 248              	.LBB9:
 249              		.loc 1 33 0
 250 00f2 994A     		ldr	r2, .L61
 251 00f4 8023     		mov	r3, #128
 252 00f6 DB05     		lsl	r3, r3, #23
ARM GAS  /cygdrive/c/DOCUME~1/mkwapisz/LOCALS~1/Temp/ccumO4cZ.s 			page 8


 253              	.LBE9:
 254              	.LBE8:
 255              		.loc 1 139 0
 256 00f8 051C     		mov	r5, r0
 257              	.LBB10:
 258              	.LBB11:
 259              		.loc 1 33 0
 260 00fa 1360     		str	r3, [r2]
 261              	.LBE11:
 262              	.LBE10:
 140:secondLCD/secondLCD.c **** 	lcdBacklight(TRUE);
 141:secondLCD/secondLCD.c **** 	printf("Display score %d\n", score);
 263              		.loc 1 141 0
 264 00fc 9748     		ldr	r0, .L61+4
 265              	.LVL17:
 266 00fe 291C     		mov	r1, r5
 267 0100 FFF7FEFF 		bl	simplePrintf
 268 0104 964B     		ldr	r3, .L61+8
 269 0106 1A1C     		mov	r2, r3
 270 0108 1032     		add	r2, r2, #16
 271              	.L28:
 272              	.LBB12:
 273              	.LBB13:
 274              		.loc 1 65 0
 275 010a 2026     		mov	r6, #32
 276 010c 1E70     		strb	r6, [r3]
 277 010e 0133     		add	r3, r3, #1
 278              		.loc 1 64 0
 279 0110 9342     		cmp	r3, r2
 280 0112 FAD1     		bne	.L28
 281              		.loc 1 67 0
 282 0114 1C1C     		mov	r4, r3
 283 0116 103C     		sub	r4, r4, #16
 284 0118 5323     		mov	r3, #83
 285 011a 2370     		strb	r3, [r4]
 286              		.loc 1 68 0
 287 011c 6323     		mov	r3, #99
 288 011e 6370     		strb	r3, [r4, #1]
 289              		.loc 1 69 0
 290 0120 6F23     		mov	r3, #111
 291 0122 A370     		strb	r3, [r4, #2]
 292              		.loc 1 70 0
 293 0124 7223     		mov	r3, #114
 294 0126 E370     		strb	r3, [r4, #3]
 295              		.loc 1 71 0
 296 0128 6523     		mov	r3, #101
 297 012a 2371     		strb	r3, [r4, #4]
 298              		.loc 1 72 0
 299 012c 3A23     		mov	r3, #58
 300 012e 6371     		strb	r3, [r4, #5]
 301              		.loc 1 73 0
 302 0130 8C49     		ldr	r1, .L61+12
 303 0132 281C     		mov	r0, r5
 304 0134 FFF7FEFF 		bl	__udivsi3
 305 0138 3030     		add	r0, r0, #48
 306 013a A071     		strb	r0, [r4, #6]
 307              		.loc 1 74 0
ARM GAS  /cygdrive/c/DOCUME~1/mkwapisz/LOCALS~1/Temp/ccumO4cZ.s 			page 9


 308 013c 8A49     		ldr	r1, .L61+16
 309 013e 281C     		mov	r0, r5
 310 0140 FFF7FEFF 		bl	__udivsi3
 311 0144 0A21     		mov	r1, #10
 312 0146 FFF7FEFF 		bl	__umodsi3
 313              		.loc 1 75 0
 314 014a FA21     		mov	r1, #250
 315              		.loc 1 74 0
 316 014c 3030     		add	r0, r0, #48
 317 014e E071     		strb	r0, [r4, #7]
 318              		.loc 1 75 0
 319 0150 8900     		lsl	r1, r1, #2
 320 0152 281C     		mov	r0, r5
 321 0154 FFF7FEFF 		bl	__udivsi3
 322 0158 0A21     		mov	r1, #10
 323 015a FFF7FEFF 		bl	__umodsi3
 324 015e 3030     		add	r0, r0, #48
 325 0160 2072     		strb	r0, [r4, #8]
 326              		.loc 1 76 0
 327 0162 6421     		mov	r1, #100
 328 0164 281C     		mov	r0, r5
 329 0166 FFF7FEFF 		bl	__udivsi3
 330 016a 0A21     		mov	r1, #10
 331 016c FFF7FEFF 		bl	__umodsi3
 332 0170 3030     		add	r0, r0, #48
 333 0172 6072     		strb	r0, [r4, #9]
 334              		.loc 1 77 0
 335 0174 0A21     		mov	r1, #10
 336 0176 281C     		mov	r0, r5
 337 0178 FFF7FEFF 		bl	__udivsi3
 338 017c 0A21     		mov	r1, #10
 339 017e FFF7FEFF 		bl	__umodsi3
 340 0182 3030     		add	r0, r0, #48
 341 0184 A072     		strb	r0, [r4, #10]
 342              		.loc 1 78 0
 343 0186 0A21     		mov	r1, #10
 344 0188 281C     		mov	r0, r5
 345 018a FFF7FEFF 		bl	__umodsi3
 346              		.loc 1 79 0
 347 018e 0023     		mov	r3, #0
 348 0190 2373     		strb	r3, [r4, #12]
 349              		.loc 1 82 0
 350 0192 A379     		ldrb	r3, [r4, #6]
 351              		.loc 1 78 0
 352 0194 3030     		add	r0, r0, #48
 353 0196 E072     		strb	r0, [r4, #11]
 354              		.loc 1 82 0
 355 0198 302B     		cmp	r3, #48
 356 019a 10D1     		bne	.L30
 357              		.loc 1 84 0
 358 019c E379     		ldrb	r3, [r4, #7]
 359              		.loc 1 83 0
 360 019e A671     		strb	r6, [r4, #6]
 361              		.loc 1 84 0
 362 01a0 302B     		cmp	r3, #48
 363 01a2 0CD1     		bne	.L30
 364              		.loc 1 86 0
ARM GAS  /cygdrive/c/DOCUME~1/mkwapisz/LOCALS~1/Temp/ccumO4cZ.s 			page 10


 365 01a4 237A     		ldrb	r3, [r4, #8]
 366              		.loc 1 85 0
 367 01a6 E671     		strb	r6, [r4, #7]
 368              		.loc 1 86 0
 369 01a8 302B     		cmp	r3, #48
 370 01aa 08D1     		bne	.L30
 371              		.loc 1 88 0
 372 01ac 637A     		ldrb	r3, [r4, #9]
 373              		.loc 1 87 0
 374 01ae 2672     		strb	r6, [r4, #8]
 375              		.loc 1 88 0
 376 01b0 302B     		cmp	r3, #48
 377 01b2 04D1     		bne	.L30
 378              		.loc 1 90 0
 379 01b4 A37A     		ldrb	r3, [r4, #10]
 380              		.loc 1 89 0
 381 01b6 6672     		strb	r6, [r4, #9]
 382              		.loc 1 90 0
 383 01b8 302B     		cmp	r3, #48
 384 01ba 00D1     		bne	.L30
 385              		.loc 1 91 0
 386 01bc A672     		strb	r6, [r4, #10]
 387              	.L30:
 388 01be 6B4B     		ldr	r3, .L61+20
 389 01c0 1A1C     		mov	r2, r3
 390 01c2 1032     		add	r2, r2, #16
 391              	.L36:
 392              	.LBE13:
 393              	.LBE12:
 394              	.LBB14:
 395              	.LBB15:
 396              		.loc 1 102 0
 397 01c4 2026     		mov	r6, #32
 398 01c6 1E70     		strb	r6, [r3]
 399 01c8 0133     		add	r3, r3, #1
 400              		.loc 1 101 0
 401 01ca 9342     		cmp	r3, r2
 402 01cc FAD1     		bne	.L36
 403              		.loc 1 104 0
 404 01ce 1D1C     		mov	r5, r3
 405              	.LVL18:
 406 01d0 103D     		sub	r5, r5, #16
 407 01d2 4823     		mov	r3, #72
 408 01d4 2B70     		strb	r3, [r5]
 409              		.loc 1 105 0
 410 01d6 6923     		mov	r3, #105
 411 01d8 6B70     		strb	r3, [r5, #1]
 412              		.loc 1 106 0
 413 01da 6723     		mov	r3, #103
 414 01dc AB70     		strb	r3, [r5, #2]
 415              		.loc 1 107 0
 416 01de 6823     		mov	r3, #104
 417 01e0 EB70     		strb	r3, [r5, #3]
 418              		.loc 1 108 0
 419 01e2 5323     		mov	r3, #83
 420 01e4 2B71     		strb	r3, [r5, #4]
 421              		.loc 1 109 0
ARM GAS  /cygdrive/c/DOCUME~1/mkwapisz/LOCALS~1/Temp/ccumO4cZ.s 			page 11


 422 01e6 6323     		mov	r3, #99
 423 01e8 6B71     		strb	r3, [r5, #5]
 424              		.loc 1 110 0
 425 01ea 6F23     		mov	r3, #111
 426 01ec AB71     		strb	r3, [r5, #6]
 427              		.loc 1 111 0
 428 01ee 7223     		mov	r3, #114
 429 01f0 EB71     		strb	r3, [r5, #7]
 430              		.loc 1 112 0
 431 01f2 6523     		mov	r3, #101
 432 01f4 2B72     		strb	r3, [r5, #8]
 433              		.loc 1 113 0
 434 01f6 3A23     		mov	r3, #58
 435 01f8 6B72     		strb	r3, [r5, #9]
 436              		.loc 1 114 0
 437 01fa 5D4B     		ldr	r3, .L61+24
 438 01fc 1C68     		ldr	r4, [r3]
 439 01fe 5949     		ldr	r1, .L61+12
 440 0200 201C     		mov	r0, r4
 441 0202 FFF7FEFF 		bl	__divsi3
 442 0206 3030     		add	r0, r0, #48
 443 0208 A872     		strb	r0, [r5, #10]
 444              		.loc 1 115 0
 445 020a 5749     		ldr	r1, .L61+16
 446 020c 201C     		mov	r0, r4
 447 020e FFF7FEFF 		bl	__divsi3
 448 0212 0A21     		mov	r1, #10
 449 0214 FFF7FEFF 		bl	__modsi3
 450              		.loc 1 116 0
 451 0218 FA21     		mov	r1, #250
 452              		.loc 1 115 0
 453 021a 3030     		add	r0, r0, #48
 454 021c E872     		strb	r0, [r5, #11]
 455              		.loc 1 116 0
 456 021e 8900     		lsl	r1, r1, #2
 457 0220 201C     		mov	r0, r4
 458 0222 FFF7FEFF 		bl	__divsi3
 459 0226 0A21     		mov	r1, #10
 460 0228 FFF7FEFF 		bl	__modsi3
 461 022c 3030     		add	r0, r0, #48
 462 022e 2873     		strb	r0, [r5, #12]
 463              		.loc 1 117 0
 464 0230 6421     		mov	r1, #100
 465 0232 201C     		mov	r0, r4
 466 0234 FFF7FEFF 		bl	__divsi3
 467 0238 0A21     		mov	r1, #10
 468 023a FFF7FEFF 		bl	__modsi3
 469 023e 3030     		add	r0, r0, #48
 470 0240 6873     		strb	r0, [r5, #13]
 471              		.loc 1 118 0
 472 0242 0A21     		mov	r1, #10
 473 0244 201C     		mov	r0, r4
 474 0246 FFF7FEFF 		bl	__divsi3
 475 024a 0A21     		mov	r1, #10
 476 024c FFF7FEFF 		bl	__modsi3
 477 0250 3030     		add	r0, r0, #48
 478 0252 A873     		strb	r0, [r5, #14]
ARM GAS  /cygdrive/c/DOCUME~1/mkwapisz/LOCALS~1/Temp/ccumO4cZ.s 			page 12


 479              		.loc 1 119 0
 480 0254 0A21     		mov	r1, #10
 481 0256 201C     		mov	r0, r4
 482 0258 FFF7FEFF 		bl	__modsi3
 483              		.loc 1 120 0
 484 025c 0023     		mov	r3, #0
 485 025e 2B74     		strb	r3, [r5, #16]
 486              		.loc 1 123 0
 487 0260 AB7A     		ldrb	r3, [r5, #10]
 488              		.loc 1 119 0
 489 0262 3030     		add	r0, r0, #48
 490 0264 E873     		strb	r0, [r5, #15]
 491              		.loc 1 123 0
 492 0266 302B     		cmp	r3, #48
 493 0268 10D1     		bne	.L38
 494              		.loc 1 125 0
 495 026a EB7A     		ldrb	r3, [r5, #11]
 496              		.loc 1 124 0
 497 026c AE72     		strb	r6, [r5, #10]
 498              		.loc 1 125 0
 499 026e 302B     		cmp	r3, #48
 500 0270 0CD1     		bne	.L38
 501              		.loc 1 127 0
 502 0272 2B7B     		ldrb	r3, [r5, #12]
 503              		.loc 1 126 0
 504 0274 EE72     		strb	r6, [r5, #11]
 505              		.loc 1 127 0
 506 0276 302B     		cmp	r3, #48
 507 0278 08D1     		bne	.L38
 508              		.loc 1 129 0
 509 027a 6B7B     		ldrb	r3, [r5, #13]
 510              		.loc 1 128 0
 511 027c 2E73     		strb	r6, [r5, #12]
 512              		.loc 1 129 0
 513 027e 302B     		cmp	r3, #48
 514 0280 04D1     		bne	.L38
 515              		.loc 1 131 0
 516 0282 AB7B     		ldrb	r3, [r5, #14]
 517              		.loc 1 130 0
 518 0284 6E73     		strb	r6, [r5, #13]
 519              		.loc 1 131 0
 520 0286 302B     		cmp	r3, #48
 521 0288 00D1     		bne	.L38
 522              		.loc 1 132 0
 523 028a AE73     		strb	r6, [r5, #14]
 524              	.L38:
 525              	.LBE15:
 526              	.LBE14:
 142:secondLCD/secondLCD.c **** 	getScoreAsString(score);
 143:secondLCD/secondLCD.c **** 	getHSAsString();
 144:secondLCD/secondLCD.c **** 	//function set
 145:secondLCD/secondLCD.c **** 	writeLCD(0, 0x30);
 527              		.loc 1 145 0
 528 028c 3021     		mov	r1, #48
 529 028e 0020     		mov	r0, #0
 530 0290 FFF7E6FE 		bl	writeLCD
 146:secondLCD/secondLCD.c **** 	osSleep(1);
ARM GAS  /cygdrive/c/DOCUME~1/mkwapisz/LOCALS~1/Temp/ccumO4cZ.s 			page 13


 531              		.loc 1 146 0
 532 0294 0120     		mov	r0, #1
 533 0296 FFF7FEFF 		bl	osSleep
 147:secondLCD/secondLCD.c **** 	writeLCD(0, 0x30);
 534              		.loc 1 147 0
 535 029a 0020     		mov	r0, #0
 536 029c 3021     		mov	r1, #48
 537 029e FFF7DFFE 		bl	writeLCD
 148:secondLCD/secondLCD.c **** 	delay37us();
 538              		.loc 1 148 0
 539 02a2 FFF7CDFE 		bl	delay37us
 149:secondLCD/secondLCD.c **** 	writeLCD(0, 0x30);
 540              		.loc 1 149 0
 541 02a6 0020     		mov	r0, #0
 542 02a8 3021     		mov	r1, #48
 543 02aa FFF7D9FE 		bl	writeLCD
 150:secondLCD/secondLCD.c **** 	delay37us();
 544              		.loc 1 150 0
 545 02ae FFF7C7FE 		bl	delay37us
 151:secondLCD/secondLCD.c **** 
 152:secondLCD/secondLCD.c **** 	//function set
 153:secondLCD/secondLCD.c **** 	writeLCD(0, 0x38);
 546              		.loc 1 153 0
 547 02b2 0020     		mov	r0, #0
 548 02b4 3821     		mov	r1, #56
 549 02b6 FFF7D3FE 		bl	writeLCD
 154:secondLCD/secondLCD.c **** 	delay37us();
 550              		.loc 1 154 0
 551 02ba FFF7C1FE 		bl	delay37us
 155:secondLCD/secondLCD.c **** 
 156:secondLCD/secondLCD.c **** 	//display off
 157:secondLCD/secondLCD.c **** 	writeLCD(0, 0x08);
 552              		.loc 1 157 0
 553 02be 0020     		mov	r0, #0
 554 02c0 0821     		mov	r1, #8
 555 02c2 FFF7CDFE 		bl	writeLCD
 158:secondLCD/secondLCD.c **** 	delay37us();
 556              		.loc 1 158 0
 557 02c6 FFF7BBFE 		bl	delay37us
 159:secondLCD/secondLCD.c **** 
 160:secondLCD/secondLCD.c **** 	//display clear
 161:secondLCD/secondLCD.c **** 	writeLCD(0, 0x01);
 558              		.loc 1 161 0
 559 02ca 0121     		mov	r1, #1
 560 02cc 0020     		mov	r0, #0
 561 02ce FFF7C7FE 		bl	writeLCD
 162:secondLCD/secondLCD.c **** 	osSleep(1); //actually only 1.52 mS needed
 562              		.loc 1 162 0
 563 02d2 0120     		mov	r0, #1
 564 02d4 FFF7FEFF 		bl	osSleep
 163:secondLCD/secondLCD.c **** 
 164:secondLCD/secondLCD.c **** 	//display control set
 165:secondLCD/secondLCD.c **** 	writeLCD(0, 0x06);
 565              		.loc 1 165 0
 566 02d8 0621     		mov	r1, #6
 567 02da 0020     		mov	r0, #0
 568 02dc FFF7C0FE 		bl	writeLCD
ARM GAS  /cygdrive/c/DOCUME~1/mkwapisz/LOCALS~1/Temp/ccumO4cZ.s 			page 14


 166:secondLCD/secondLCD.c **** 	osSleep(1);
 569              		.loc 1 166 0
 570 02e0 0120     		mov	r0, #1
 571 02e2 FFF7FEFF 		bl	osSleep
 167:secondLCD/secondLCD.c **** 
 168:secondLCD/secondLCD.c **** 	//display control set
 169:secondLCD/secondLCD.c **** 	writeLCD(0, 0x0c);
 572              		.loc 1 169 0
 573 02e6 0020     		mov	r0, #0
 574 02e8 0C21     		mov	r1, #12
 575 02ea FFF7B9FE 		bl	writeLCD
 170:secondLCD/secondLCD.c **** 	delay37us();
 576              		.loc 1 170 0
 577 02ee FFF7A7FE 		bl	delay37us
 171:secondLCD/secondLCD.c **** 
 172:secondLCD/secondLCD.c **** 	//cursor home
 173:secondLCD/secondLCD.c **** 	writeLCD(0, 0x02);
 578              		.loc 1 173 0
 579 02f2 0221     		mov	r1, #2
 580 02f4 0020     		mov	r0, #0
 581 02f6 FFF7B3FE 		bl	writeLCD
 174:secondLCD/secondLCD.c **** 	osSleep(1);
 582              		.loc 1 174 0
 583 02fa 0120     		mov	r0, #1
 584 02fc FFF7FEFF 		bl	osSleep
 175:secondLCD/secondLCD.c **** 
 176:secondLCD/secondLCD.c **** 	printf("%s\n",scoreString);
 585              		.loc 1 176 0
 586 0300 174C     		ldr	r4, .L61+8
 587 0302 1C48     		ldr	r0, .L61+28
 588 0304 211C     		mov	r1, r4
 589 0306 FFF7FEFF 		bl	simplePrintf
 590              	.L44:
 177:secondLCD/secondLCD.c **** 
 178:secondLCD/secondLCD.c **** 	int i;
 179:secondLCD/secondLCD.c **** 	for (i = 0; i < 16; i++) {
 180:secondLCD/secondLCD.c **** 		if (scoreString[i] != ' ') {
 591              		.loc 1 180 0
 592 030a 2178     		ldrb	r1, [r4]
 593 030c 2029     		cmp	r1, #32
 594 030e 04D0     		beq	.L45
 181:secondLCD/secondLCD.c **** 			writeLCD(1, scoreString[i]);
 595              		.loc 1 181 0
 596 0310 0120     		mov	r0, #1
 597 0312 FFF7A5FE 		bl	writeLCD
 182:secondLCD/secondLCD.c **** 			delay37us();
 598              		.loc 1 182 0
 599 0316 FFF793FE 		bl	delay37us
 600              	.L45:
 601              		.loc 1 179 0
 602 031a 174B     		ldr	r3, .L61+32
 603              		.loc 1 182 0
 604 031c 0134     		add	r4, r4, #1
 605              		.loc 1 179 0
 606 031e 9C42     		cmp	r4, r3
 607 0320 F3D1     		bne	.L44
 183:secondLCD/secondLCD.c **** 		}
ARM GAS  /cygdrive/c/DOCUME~1/mkwapisz/LOCALS~1/Temp/ccumO4cZ.s 			page 15


 184:secondLCD/secondLCD.c **** 	}
 185:secondLCD/secondLCD.c **** 
 186:secondLCD/secondLCD.c **** 	//move curstor to second row
 187:secondLCD/secondLCD.c **** 	writeLCD(0, 0x80 | 0x40);
 608              		.loc 1 187 0
 609 0322 0020     		mov	r0, #0
 610 0324 C021     		mov	r1, #192
 611 0326 FFF79BFE 		bl	writeLCD
 188:secondLCD/secondLCD.c **** 	delay37us();
 612              		.loc 1 188 0
 613 032a FFF789FE 		bl	delay37us
 189:secondLCD/secondLCD.c **** 
 190:secondLCD/secondLCD.c **** 	printf("%s\n",hsString);
 614              		.loc 1 190 0
 615 032e 0F4C     		ldr	r4, .L61+20
 616 0330 1048     		ldr	r0, .L61+28
 617 0332 211C     		mov	r1, r4
 618 0334 FFF7FEFF 		bl	simplePrintf
 619              	.L48:
 191:secondLCD/secondLCD.c **** 
 192:secondLCD/secondLCD.c **** 	for (i = 0; i < 14; i++) {
 193:secondLCD/secondLCD.c **** 		if (hsString[i] != ' ') {
 620              		.loc 1 193 0
 621 0338 2178     		ldrb	r1, [r4]
 622 033a 2029     		cmp	r1, #32
 623 033c 04D0     		beq	.L49
 194:secondLCD/secondLCD.c **** 			writeLCD(1, hsString[i]);
 624              		.loc 1 194 0
 625 033e 0120     		mov	r0, #1
 626 0340 FFF78EFE 		bl	writeLCD
 195:secondLCD/secondLCD.c **** 			delay37us();
 627              		.loc 1 195 0
 628 0344 FFF77CFE 		bl	delay37us
 629              	.L49:
 630              		.loc 1 192 0
 631 0348 0C4B     		ldr	r3, .L61+36
 632              		.loc 1 195 0
 633 034a 0134     		add	r4, r4, #1
 634              		.loc 1 192 0
 635 034c 9C42     		cmp	r4, r3
 636 034e F3D1     		bne	.L48
 196:secondLCD/secondLCD.c **** 		}
 197:secondLCD/secondLCD.c **** 	}
 198:secondLCD/secondLCD.c **** 
 199:secondLCD/secondLCD.c **** }
 637              		.loc 1 199 0
 638              		@ sp needed for prologue
 639 0350 70BC     		pop	{r4, r5, r6}
 640 0352 01BC     		pop	{r0}
 641 0354 0047     		bx	r0
 642              	.L62:
 643 0356 0000     		.align	2
 644              	.L61:
 645 0358 048002E0 		.word	-536707068
 646 035c 00000000 		.word	.LC1
 647 0360 00000000 		.word	scoreString
 648 0364 A0860100 		.word	100000
ARM GAS  /cygdrive/c/DOCUME~1/mkwapisz/LOCALS~1/Temp/ccumO4cZ.s 			page 16


 649 0368 10270000 		.word	10000
 650 036c 00000000 		.word	hsString
 651 0370 00000000 		.word	highScore
 652 0374 14000000 		.word	.LC8
 653 0378 10000000 		.word	scoreString+16
 654 037c 0E000000 		.word	hsString+14
 655              	.LFE8:
 656              		.size	displayScoreAndTime, .-displayScoreAndTime
 657              		.comm	highScore,4,4
 658              		.comm	scoreString,16,1
 659              		.comm	hsString,16,1
 660              		.section	.debug_frame,"",%progbits
 661              	.Lframe0:
 662 0000 0C000000 		.4byte	.LECIE0-.LSCIE0
 663              	.LSCIE0:
 664 0004 FFFFFFFF 		.4byte	0xffffffff
 665 0008 01       		.byte	0x1
 666 0009 00       		.ascii	"\000"
 667 000a 01       		.uleb128 0x1
 668 000b 7C       		.sleb128 -4
 669 000c 0E       		.byte	0xe
 670 000d 0C       		.byte	0xc
 671 000e 0D       		.uleb128 0xd
 672 000f 00       		.uleb128 0x0
 673              		.align	2
 674              	.LECIE0:
 675              	.LSFDE0:
 676 0010 0C000000 		.4byte	.LEFDE0-.LASFDE0
 677              	.LASFDE0:
 678 0014 00000000 		.4byte	.Lframe0
 679 0018 00000000 		.4byte	.LFB2
 680 001c 40000000 		.4byte	.LFE2-.LFB2
 681              		.align	2
 682              	.LEFDE0:
 683              	.LSFDE2:
 684 0020 10000000 		.4byte	.LEFDE2-.LASFDE2
 685              	.LASFDE2:
 686 0024 00000000 		.4byte	.Lframe0
 687 0028 40000000 		.4byte	.LFB3
 688 002c 20000000 		.4byte	.LFE3-.LFB3
 689 0030 42       		.byte	0x4
 690              		.4byte	.LCFI0-.LFB3
 691 0031 0E       		.byte	0xe
 692 0032 04       		.uleb128 0x4
 693 0033 00       		.align	2
 694              	.LEFDE2:
 695              	.LSFDE4:
 696 0034 10000000 		.4byte	.LEFDE4-.LASFDE4
 697              	.LASFDE4:
 698 0038 00000000 		.4byte	.Lframe0
 699 003c 60000000 		.4byte	.LFB5
 700 0040 90000000 		.4byte	.LFE5-.LFB5
 701 0044 46       		.byte	0x4
 702              		.4byte	.LCFI1-.LFB5
 703 0045 0E       		.byte	0xe
 704 0046 04       		.uleb128 0x4
 705 0047 00       		.align	2
ARM GAS  /cygdrive/c/DOCUME~1/mkwapisz/LOCALS~1/Temp/ccumO4cZ.s 			page 17


 706              	.LEFDE4:
 707              	.LSFDE6:
 708 0048 18000000 		.4byte	.LEFDE6-.LASFDE6
 709              	.LASFDE6:
 710 004c 00000000 		.4byte	.Lframe0
 711 0050 F0000000 		.4byte	.LFB8
 712 0054 90020000 		.4byte	.LFE8-.LFB8
 713 0058 42       		.byte	0x4
 714              		.4byte	.LCFI2-.LFB8
 715 0059 0E       		.byte	0xe
 716 005a 10       		.uleb128 0x10
 717 005b 84       		.byte	0x84
 718 005c 04       		.uleb128 0x4
 719 005d 85       		.byte	0x85
 720 005e 03       		.uleb128 0x3
 721 005f 86       		.byte	0x86
 722 0060 02       		.uleb128 0x2
 723 0061 8E       		.byte	0x8e
 724 0062 01       		.uleb128 0x1
 725 0063 00       		.align	2
 726              	.LEFDE6:
 727              		.file 2 "secondLCD/../pre_emptive_os/api/../api/general.h"
 728              		.file 3 "secondLCD/secondLCD.h"
 729              		.text
 730              	.Letext0:
 731              		.section	.debug_loc,"",%progbits
 732              	.Ldebug_loc0:
 733              	.LLST1:
 734 0000 40000000 		.4byte	.LFB3-.Ltext0
 735 0004 42000000 		.4byte	.LCFI0-.Ltext0
 736 0008 0100     		.2byte	0x1
 737 000a 5D       		.byte	0x5d
 738 000b 42000000 		.4byte	.LCFI0-.Ltext0
 739 000f 60000000 		.4byte	.LFE3-.Ltext0
 740 0013 0200     		.2byte	0x2
 741 0015 7D       		.byte	0x7d
 742 0016 04       		.sleb128 4
 743 0017 00000000 		.4byte	0x0
 744 001b 00000000 		.4byte	0x0
 745              	.LLST2:
 746 001f 60000000 		.4byte	.LFB5-.Ltext0
 747 0023 66000000 		.4byte	.LCFI1-.Ltext0
 748 0027 0100     		.2byte	0x1
 749 0029 5D       		.byte	0x5d
 750 002a 66000000 		.4byte	.LCFI1-.Ltext0
 751 002e F0000000 		.4byte	.LFE5-.Ltext0
 752 0032 0200     		.2byte	0x2
 753 0034 7D       		.byte	0x7d
 754 0035 04       		.sleb128 4
 755 0036 00000000 		.4byte	0x0
 756 003a 00000000 		.4byte	0x0
 757              	.LLST3:
 758 003e 60000000 		.4byte	.LVL1-.Ltext0
 759 0042 64000000 		.4byte	.LVL3-.Ltext0
 760 0046 0100     		.2byte	0x1
 761 0048 50       		.byte	0x50
 762 0049 00000000 		.4byte	0x0
ARM GAS  /cygdrive/c/DOCUME~1/mkwapisz/LOCALS~1/Temp/ccumO4cZ.s 			page 18


 763 004d 00000000 		.4byte	0x0
 764              	.LLST4:
 765 0051 60000000 		.4byte	.LVL1-.Ltext0
 766 0055 62000000 		.4byte	.LVL2-.Ltext0
 767 0059 0100     		.2byte	0x1
 768 005b 51       		.byte	0x51
 769 005c 68000000 		.4byte	.LVL4-.Ltext0
 770 0060 A4000000 		.4byte	.LVL6-.Ltext0
 771 0064 0100     		.2byte	0x1
 772 0066 51       		.byte	0x51
 773 0067 B0000000 		.4byte	.LVL8-.Ltext0
 774 006b B2000000 		.4byte	.LVL9-.Ltext0
 775 006f 0100     		.2byte	0x1
 776 0071 51       		.byte	0x51
 777 0072 00000000 		.4byte	0x0
 778 0076 00000000 		.4byte	0x0
 779              	.LLST5:
 780 007a A2000000 		.4byte	.LVL5-.Ltext0
 781 007e A4000000 		.4byte	.LVL6-.Ltext0
 782 0082 0200     		.2byte	0x2
 783 0084 73       		.byte	0x73
 784 0085 00       		.sleb128 0
 785 0086 A4000000 		.4byte	.LVL6-.Ltext0
 786 008a AA000000 		.4byte	.LVL7-.Ltext0
 787 008e 0100     		.2byte	0x1
 788 0090 53       		.byte	0x53
 789 0091 AA000000 		.4byte	.LVL7-.Ltext0
 790 0095 B0000000 		.4byte	.LVL8-.Ltext0
 791 0099 0200     		.2byte	0x2
 792 009b 71       		.byte	0x71
 793 009c 00       		.sleb128 0
 794 009d B0000000 		.4byte	.LVL8-.Ltext0
 795 00a1 BA000000 		.4byte	.LVL10-.Ltext0
 796 00a5 0200     		.2byte	0x2
 797 00a7 73       		.byte	0x73
 798 00a8 00       		.sleb128 0
 799 00a9 BA000000 		.4byte	.LVL10-.Ltext0
 800 00ad BC000000 		.4byte	.LVL11-.Ltext0
 801 00b1 0100     		.2byte	0x1
 802 00b3 53       		.byte	0x53
 803 00b4 BC000000 		.4byte	.LVL11-.Ltext0
 804 00b8 C8000000 		.4byte	.LVL12-.Ltext0
 805 00bc 0200     		.2byte	0x2
 806 00be 71       		.byte	0x71
 807 00bf 00       		.sleb128 0
 808 00c0 C8000000 		.4byte	.LVL12-.Ltext0
 809 00c4 CE000000 		.4byte	.LVL13-.Ltext0
 810 00c8 0100     		.2byte	0x1
 811 00ca 53       		.byte	0x53
 812 00cb CE000000 		.4byte	.LVL13-.Ltext0
 813 00cf D4000000 		.4byte	.LVL14-.Ltext0
 814 00d3 0200     		.2byte	0x2
 815 00d5 72       		.byte	0x72
 816 00d6 00       		.sleb128 0
 817 00d7 D4000000 		.4byte	.LVL14-.Ltext0
 818 00db DE000000 		.4byte	.LVL15-.Ltext0
 819 00df 0200     		.2byte	0x2
ARM GAS  /cygdrive/c/DOCUME~1/mkwapisz/LOCALS~1/Temp/ccumO4cZ.s 			page 19


 820 00e1 71       		.byte	0x71
 821 00e2 00       		.sleb128 0
 822 00e3 DE000000 		.4byte	.LVL15-.Ltext0
 823 00e7 F0000000 		.4byte	.LFE5-.Ltext0
 824 00eb 0100     		.2byte	0x1
 825 00ed 53       		.byte	0x53
 826 00ee 00000000 		.4byte	0x0
 827 00f2 00000000 		.4byte	0x0
 828              	.LLST6:
 829 00f6 F0000000 		.4byte	.LFB8-.Ltext0
 830 00fa F2000000 		.4byte	.LCFI2-.Ltext0
 831 00fe 0100     		.2byte	0x1
 832 0100 5D       		.byte	0x5d
 833 0101 F2000000 		.4byte	.LCFI2-.Ltext0
 834 0105 80030000 		.4byte	.LFE8-.Ltext0
 835 0109 0200     		.2byte	0x2
 836 010b 7D       		.byte	0x7d
 837 010c 10       		.sleb128 16
 838 010d 00000000 		.4byte	0x0
 839 0111 00000000 		.4byte	0x0
 840              	.LLST7:
 841 0115 F2000000 		.4byte	.LVL16-.Ltext0
 842 0119 FE000000 		.4byte	.LVL17-.Ltext0
 843 011d 0100     		.2byte	0x1
 844 011f 50       		.byte	0x50
 845 0120 FE000000 		.4byte	.LVL17-.Ltext0
 846 0124 D0010000 		.4byte	.LVL18-.Ltext0
 847 0128 0100     		.2byte	0x1
 848 012a 55       		.byte	0x55
 849 012b 00000000 		.4byte	0x0
 850 012f 00000000 		.4byte	0x0
 851              		.section	.debug_info
 852 0000 1F020000 		.4byte	0x21f
 853 0004 0200     		.2byte	0x2
 854 0006 00000000 		.4byte	.Ldebug_abbrev0
 855 000a 04       		.byte	0x4
 856 000b 01       		.uleb128 0x1
 857 000c 00000000 		.4byte	.Ldebug_line0
 858 0010 80030000 		.4byte	.Letext0
 859 0014 00000000 		.4byte	.Ltext0
 860 0018 EF000000 		.4byte	.LASF19
 861 001c 01       		.byte	0x1
 862 001d 05000000 		.4byte	.LASF20
 863 0021 91000000 		.4byte	.LASF21
 864 0025 02       		.uleb128 0x2
 865 0026 74553800 		.ascii	"tU8\000"
 866 002a 02       		.byte	0x2
 867 002b 46       		.byte	0x46
 868 002c 30000000 		.4byte	0x30
 869 0030 03       		.uleb128 0x3
 870 0031 4A000000 		.4byte	.LASF0
 871 0035 01       		.byte	0x1
 872 0036 08       		.byte	0x8
 873 0037 03       		.uleb128 0x3
 874 0038 6A000000 		.4byte	.LASF1
 875 003c 02       		.byte	0x2
 876 003d 07       		.byte	0x7
ARM GAS  /cygdrive/c/DOCUME~1/mkwapisz/LOCALS~1/Temp/ccumO4cZ.s 			page 20


 877 003e 04       		.uleb128 0x4
 878 003f FB000000 		.4byte	.LASF2
 879 0043 02       		.byte	0x2
 880 0044 48       		.byte	0x48
 881 0045 49000000 		.4byte	0x49
 882 0049 03       		.uleb128 0x3
 883 004a CF000000 		.4byte	.LASF3
 884 004e 04       		.byte	0x4
 885 004f 07       		.byte	0x7
 886 0050 03       		.uleb128 0x3
 887 0051 25010000 		.4byte	.LASF4
 888 0055 01       		.byte	0x1
 889 0056 06       		.byte	0x6
 890 0057 03       		.uleb128 0x3
 891 0058 00010000 		.4byte	.LASF5
 892 005c 02       		.byte	0x2
 893 005d 05       		.byte	0x5
 894 005e 04       		.uleb128 0x4
 895 005f 00000000 		.4byte	.LASF6
 896 0063 02       		.byte	0x2
 897 0064 4B       		.byte	0x4b
 898 0065 69000000 		.4byte	0x69
 899 0069 05       		.uleb128 0x5
 900 006a 696E7400 		.ascii	"int\000"
 901 006e 04       		.byte	0x4
 902 006f 05       		.byte	0x5
 903 0070 03       		.uleb128 0x3
 904 0071 58000000 		.4byte	.LASF7
 905 0075 04       		.byte	0x4
 906 0076 07       		.byte	0x7
 907 0077 06       		.uleb128 0x6
 908 0078 01       		.byte	0x1
 909 0079 20000000 		.4byte	.LASF22
 910 007d 01       		.byte	0x1
 911 007e 0B       		.byte	0xb
 912 007f 01       		.byte	0x1
 913 0080 00000000 		.4byte	.LFB2
 914 0084 40000000 		.4byte	.LFE2
 915 0088 01       		.byte	0x1
 916 0089 5D       		.byte	0x5d
 917 008a 07       		.uleb128 0x7
 918 008b AF000000 		.4byte	0xaf
 919 008f DC000000 		.4byte	.LASF8
 920 0093 01       		.byte	0x1
 921 0094 16       		.byte	0x16
 922 0095 01       		.byte	0x1
 923 0096 40000000 		.4byte	.LFB3
 924 009a 60000000 		.4byte	.LFE3
 925 009e 00000000 		.4byte	.LLST1
 926 00a2 08       		.uleb128 0x8
 927 00a3 6900     		.ascii	"i\000"
 928 00a5 01       		.byte	0x1
 929 00a6 17       		.byte	0x17
 930 00a7 AF000000 		.4byte	0xaf
 931 00ab 02       		.byte	0x2
 932 00ac 91       		.byte	0x91
 933 00ad 7C       		.sleb128 -4
ARM GAS  /cygdrive/c/DOCUME~1/mkwapisz/LOCALS~1/Temp/ccumO4cZ.s 			page 21


 934 00ae 00       		.byte	0x0
 935 00af 09       		.uleb128 0x9
 936 00b0 3E000000 		.4byte	0x3e
 937 00b4 07       		.uleb128 0x7
 938 00b5 F8000000 		.4byte	0xf8
 939 00b9 2E000000 		.4byte	.LASF9
 940 00bd 01       		.byte	0x1
 941 00be 26       		.byte	0x26
 942 00bf 01       		.byte	0x1
 943 00c0 60000000 		.4byte	.LFB5
 944 00c4 F0000000 		.4byte	.LFE5
 945 00c8 1F000000 		.4byte	.LLST2
 946 00cc 0A       		.uleb128 0xa
 947 00cd 72656700 		.ascii	"reg\000"
 948 00d1 01       		.byte	0x1
 949 00d2 26       		.byte	0x26
 950 00d3 25000000 		.4byte	0x25
 951 00d7 3E000000 		.4byte	.LLST3
 952 00db 0B       		.uleb128 0xb
 953 00dc 1B000000 		.4byte	.LASF10
 954 00e0 01       		.byte	0x1
 955 00e1 26       		.byte	0x26
 956 00e2 25000000 		.4byte	0x25
 957 00e6 51000000 		.4byte	.LLST4
 958 00ea 0C       		.uleb128 0xc
 959 00eb 6900     		.ascii	"i\000"
 960 00ed 01       		.byte	0x1
 961 00ee 27       		.byte	0x27
 962 00ef F8000000 		.4byte	0xf8
 963 00f3 7A000000 		.4byte	.LLST5
 964 00f7 00       		.byte	0x0
 965 00f8 09       		.uleb128 0x9
 966 00f9 25000000 		.4byte	0x25
 967 00fd 0D       		.uleb128 0xd
 968 00fe 16010000 		.4byte	0x116
 969 0102 3D000000 		.4byte	.LASF11
 970 0106 01       		.byte	0x1
 971 0107 1F       		.byte	0x1f
 972 0108 01       		.byte	0x1
 973 0109 01       		.byte	0x1
 974 010a 0E       		.uleb128 0xe
 975 010b 8B000000 		.4byte	.LASF12
 976 010f 01       		.byte	0x1
 977 0110 1F       		.byte	0x1f
 978 0111 25000000 		.4byte	0x25
 979 0115 00       		.byte	0x0
 980 0116 0D       		.uleb128 0xd
 981 0117 38010000 		.4byte	0x138
 982 011b 0A010000 		.4byte	.LASF13
 983 011f 01       		.byte	0x1
 984 0120 3E       		.byte	0x3e
 985 0121 01       		.byte	0x1
 986 0122 01       		.byte	0x1
 987 0123 0E       		.uleb128 0xe
 988 0124 37000000 		.4byte	.LASF14
 989 0128 01       		.byte	0x1
 990 0129 3E       		.byte	0x3e
ARM GAS  /cygdrive/c/DOCUME~1/mkwapisz/LOCALS~1/Temp/ccumO4cZ.s 			page 22


 991 012a 3E000000 		.4byte	0x3e
 992 012e 0F       		.uleb128 0xf
 993 012f 6900     		.ascii	"i\000"
 994 0131 01       		.byte	0x1
 995 0132 3F       		.byte	0x3f
 996 0133 69000000 		.4byte	0x69
 997 0137 00       		.byte	0x0
 998 0138 10       		.uleb128 0x10
 999 0139 4E010000 		.4byte	0x14e
 1000 013d 7D000000 		.4byte	.LASF15
 1001 0141 01       		.byte	0x1
 1002 0142 63       		.byte	0x63
 1003 0143 01       		.byte	0x1
 1004 0144 0F       		.uleb128 0xf
 1005 0145 6900     		.ascii	"i\000"
 1006 0147 01       		.byte	0x1
 1007 0148 64       		.byte	0x64
 1008 0149 69000000 		.4byte	0x69
 1009 014d 00       		.byte	0x0
 1010 014e 11       		.uleb128 0x11
 1011 014f DC010000 		.4byte	0x1dc
 1012 0153 01       		.byte	0x1
 1013 0154 BB000000 		.4byte	.LASF23
 1014 0158 01       		.byte	0x1
 1015 0159 8B       		.byte	0x8b
 1016 015a 01       		.byte	0x1
 1017 015b F0000000 		.4byte	.LFB8
 1018 015f 80030000 		.4byte	.LFE8
 1019 0163 F6000000 		.4byte	.LLST6
 1020 0167 0B       		.uleb128 0xb
 1021 0168 37000000 		.4byte	.LASF14
 1022 016c 01       		.byte	0x1
 1023 016d 8B       		.byte	0x8b
 1024 016e 3E000000 		.4byte	0x3e
 1025 0172 15010000 		.4byte	.LLST7
 1026 0176 0F       		.uleb128 0xf
 1027 0177 6900     		.ascii	"i\000"
 1028 0179 01       		.byte	0x1
 1029 017a B2       		.byte	0xb2
 1030 017b 69000000 		.4byte	0x69
 1031 017f 12       		.uleb128 0x12
 1032 0180 94010000 		.4byte	0x194
 1033 0184 FD000000 		.4byte	0xfd
 1034 0188 00000000 		.4byte	.Ldebug_ranges0+0x0
 1035 018c 01       		.byte	0x1
 1036 018d 8C       		.byte	0x8c
 1037 018e 13       		.uleb128 0x13
 1038 018f 0A010000 		.4byte	0x10a
 1039 0193 00       		.byte	0x0
 1040 0194 14       		.uleb128 0x14
 1041 0195 BC010000 		.4byte	0x1bc
 1042 0199 16010000 		.4byte	0x116
 1043 019d 0A010000 		.4byte	.LBB12
 1044 01a1 C4010000 		.4byte	.LBE12
 1045 01a5 01       		.byte	0x1
 1046 01a6 8E       		.byte	0x8e
 1047 01a7 13       		.uleb128 0x13
ARM GAS  /cygdrive/c/DOCUME~1/mkwapisz/LOCALS~1/Temp/ccumO4cZ.s 			page 23


 1048 01a8 23010000 		.4byte	0x123
 1049 01ac 15       		.uleb128 0x15
 1050 01ad 0A010000 		.4byte	.LBB13
 1051 01b1 C4010000 		.4byte	.LBE13
 1052 01b5 16       		.uleb128 0x16
 1053 01b6 2E010000 		.4byte	0x12e
 1054 01ba 00       		.byte	0x0
 1055 01bb 00       		.byte	0x0
 1056 01bc 17       		.uleb128 0x17
 1057 01bd 38010000 		.4byte	0x138
 1058 01c1 C4010000 		.4byte	.LBB14
 1059 01c5 8C020000 		.4byte	.LBE14
 1060 01c9 01       		.byte	0x1
 1061 01ca 8F       		.byte	0x8f
 1062 01cb 15       		.uleb128 0x15
 1063 01cc C4010000 		.4byte	.LBB15
 1064 01d0 8C020000 		.4byte	.LBE15
 1065 01d4 16       		.uleb128 0x16
 1066 01d5 44010000 		.4byte	0x144
 1067 01d9 00       		.byte	0x0
 1068 01da 00       		.byte	0x0
 1069 01db 00       		.byte	0x0
 1070 01dc 18       		.uleb128 0x18
 1071 01dd 1B010000 		.4byte	.LASF16
 1072 01e1 03       		.byte	0x3
 1073 01e2 17       		.byte	0x17
 1074 01e3 5E000000 		.4byte	0x5e
 1075 01e7 01       		.byte	0x1
 1076 01e8 05       		.byte	0x5
 1077 01e9 03       		.byte	0x3
 1078 01ea 00000000 		.4byte	highScore
 1079 01ee 19       		.uleb128 0x19
 1080 01ef FE010000 		.4byte	0x1fe
 1081 01f3 25000000 		.4byte	0x25
 1082 01f7 1A       		.uleb128 0x1a
 1083 01f8 70000000 		.4byte	0x70
 1084 01fc 0F       		.byte	0xf
 1085 01fd 00       		.byte	0x0
 1086 01fe 18       		.uleb128 0x18
 1087 01ff AF000000 		.4byte	.LASF17
 1088 0203 01       		.byte	0x1
 1089 0204 08       		.byte	0x8
 1090 0205 EE010000 		.4byte	0x1ee
 1091 0209 01       		.byte	0x1
 1092 020a 05       		.byte	0x5
 1093 020b 03       		.byte	0x3
 1094 020c 00000000 		.4byte	scoreString
 1095 0210 18       		.uleb128 0x18
 1096 0211 E6000000 		.4byte	.LASF18
 1097 0215 01       		.byte	0x1
 1098 0216 09       		.byte	0x9
 1099 0217 EE010000 		.4byte	0x1ee
 1100 021b 01       		.byte	0x1
 1101 021c 05       		.byte	0x5
 1102 021d 03       		.byte	0x3
 1103 021e 00000000 		.4byte	hsString
 1104 0222 00       		.byte	0x0
ARM GAS  /cygdrive/c/DOCUME~1/mkwapisz/LOCALS~1/Temp/ccumO4cZ.s 			page 24


 1105              		.section	.debug_abbrev
 1106 0000 01       		.uleb128 0x1
 1107 0001 11       		.uleb128 0x11
 1108 0002 01       		.byte	0x1
 1109 0003 10       		.uleb128 0x10
 1110 0004 06       		.uleb128 0x6
 1111 0005 12       		.uleb128 0x12
 1112 0006 01       		.uleb128 0x1
 1113 0007 11       		.uleb128 0x11
 1114 0008 01       		.uleb128 0x1
 1115 0009 25       		.uleb128 0x25
 1116 000a 0E       		.uleb128 0xe
 1117 000b 13       		.uleb128 0x13
 1118 000c 0B       		.uleb128 0xb
 1119 000d 03       		.uleb128 0x3
 1120 000e 0E       		.uleb128 0xe
 1121 000f 1B       		.uleb128 0x1b
 1122 0010 0E       		.uleb128 0xe
 1123 0011 00       		.byte	0x0
 1124 0012 00       		.byte	0x0
 1125 0013 02       		.uleb128 0x2
 1126 0014 16       		.uleb128 0x16
 1127 0015 00       		.byte	0x0
 1128 0016 03       		.uleb128 0x3
 1129 0017 08       		.uleb128 0x8
 1130 0018 3A       		.uleb128 0x3a
 1131 0019 0B       		.uleb128 0xb
 1132 001a 3B       		.uleb128 0x3b
 1133 001b 0B       		.uleb128 0xb
 1134 001c 49       		.uleb128 0x49
 1135 001d 13       		.uleb128 0x13
 1136 001e 00       		.byte	0x0
 1137 001f 00       		.byte	0x0
 1138 0020 03       		.uleb128 0x3
 1139 0021 24       		.uleb128 0x24
 1140 0022 00       		.byte	0x0
 1141 0023 03       		.uleb128 0x3
 1142 0024 0E       		.uleb128 0xe
 1143 0025 0B       		.uleb128 0xb
 1144 0026 0B       		.uleb128 0xb
 1145 0027 3E       		.uleb128 0x3e
 1146 0028 0B       		.uleb128 0xb
 1147 0029 00       		.byte	0x0
 1148 002a 00       		.byte	0x0
 1149 002b 04       		.uleb128 0x4
 1150 002c 16       		.uleb128 0x16
 1151 002d 00       		.byte	0x0
 1152 002e 03       		.uleb128 0x3
 1153 002f 0E       		.uleb128 0xe
 1154 0030 3A       		.uleb128 0x3a
 1155 0031 0B       		.uleb128 0xb
 1156 0032 3B       		.uleb128 0x3b
 1157 0033 0B       		.uleb128 0xb
 1158 0034 49       		.uleb128 0x49
 1159 0035 13       		.uleb128 0x13
 1160 0036 00       		.byte	0x0
 1161 0037 00       		.byte	0x0
ARM GAS  /cygdrive/c/DOCUME~1/mkwapisz/LOCALS~1/Temp/ccumO4cZ.s 			page 25


 1162 0038 05       		.uleb128 0x5
 1163 0039 24       		.uleb128 0x24
 1164 003a 00       		.byte	0x0
 1165 003b 03       		.uleb128 0x3
 1166 003c 08       		.uleb128 0x8
 1167 003d 0B       		.uleb128 0xb
 1168 003e 0B       		.uleb128 0xb
 1169 003f 3E       		.uleb128 0x3e
 1170 0040 0B       		.uleb128 0xb
 1171 0041 00       		.byte	0x0
 1172 0042 00       		.byte	0x0
 1173 0043 06       		.uleb128 0x6
 1174 0044 2E       		.uleb128 0x2e
 1175 0045 00       		.byte	0x0
 1176 0046 3F       		.uleb128 0x3f
 1177 0047 0C       		.uleb128 0xc
 1178 0048 03       		.uleb128 0x3
 1179 0049 0E       		.uleb128 0xe
 1180 004a 3A       		.uleb128 0x3a
 1181 004b 0B       		.uleb128 0xb
 1182 004c 3B       		.uleb128 0x3b
 1183 004d 0B       		.uleb128 0xb
 1184 004e 27       		.uleb128 0x27
 1185 004f 0C       		.uleb128 0xc
 1186 0050 11       		.uleb128 0x11
 1187 0051 01       		.uleb128 0x1
 1188 0052 12       		.uleb128 0x12
 1189 0053 01       		.uleb128 0x1
 1190 0054 40       		.uleb128 0x40
 1191 0055 0A       		.uleb128 0xa
 1192 0056 00       		.byte	0x0
 1193 0057 00       		.byte	0x0
 1194 0058 07       		.uleb128 0x7
 1195 0059 2E       		.uleb128 0x2e
 1196 005a 01       		.byte	0x1
 1197 005b 01       		.uleb128 0x1
 1198 005c 13       		.uleb128 0x13
 1199 005d 03       		.uleb128 0x3
 1200 005e 0E       		.uleb128 0xe
 1201 005f 3A       		.uleb128 0x3a
 1202 0060 0B       		.uleb128 0xb
 1203 0061 3B       		.uleb128 0x3b
 1204 0062 0B       		.uleb128 0xb
 1205 0063 27       		.uleb128 0x27
 1206 0064 0C       		.uleb128 0xc
 1207 0065 11       		.uleb128 0x11
 1208 0066 01       		.uleb128 0x1
 1209 0067 12       		.uleb128 0x12
 1210 0068 01       		.uleb128 0x1
 1211 0069 40       		.uleb128 0x40
 1212 006a 06       		.uleb128 0x6
 1213 006b 00       		.byte	0x0
 1214 006c 00       		.byte	0x0
 1215 006d 08       		.uleb128 0x8
 1216 006e 34       		.uleb128 0x34
 1217 006f 00       		.byte	0x0
 1218 0070 03       		.uleb128 0x3
ARM GAS  /cygdrive/c/DOCUME~1/mkwapisz/LOCALS~1/Temp/ccumO4cZ.s 			page 26


 1219 0071 08       		.uleb128 0x8
 1220 0072 3A       		.uleb128 0x3a
 1221 0073 0B       		.uleb128 0xb
 1222 0074 3B       		.uleb128 0x3b
 1223 0075 0B       		.uleb128 0xb
 1224 0076 49       		.uleb128 0x49
 1225 0077 13       		.uleb128 0x13
 1226 0078 02       		.uleb128 0x2
 1227 0079 0A       		.uleb128 0xa
 1228 007a 00       		.byte	0x0
 1229 007b 00       		.byte	0x0
 1230 007c 09       		.uleb128 0x9
 1231 007d 35       		.uleb128 0x35
 1232 007e 00       		.byte	0x0
 1233 007f 49       		.uleb128 0x49
 1234 0080 13       		.uleb128 0x13
 1235 0081 00       		.byte	0x0
 1236 0082 00       		.byte	0x0
 1237 0083 0A       		.uleb128 0xa
 1238 0084 05       		.uleb128 0x5
 1239 0085 00       		.byte	0x0
 1240 0086 03       		.uleb128 0x3
 1241 0087 08       		.uleb128 0x8
 1242 0088 3A       		.uleb128 0x3a
 1243 0089 0B       		.uleb128 0xb
 1244 008a 3B       		.uleb128 0x3b
 1245 008b 0B       		.uleb128 0xb
 1246 008c 49       		.uleb128 0x49
 1247 008d 13       		.uleb128 0x13
 1248 008e 02       		.uleb128 0x2
 1249 008f 06       		.uleb128 0x6
 1250 0090 00       		.byte	0x0
 1251 0091 00       		.byte	0x0
 1252 0092 0B       		.uleb128 0xb
 1253 0093 05       		.uleb128 0x5
 1254 0094 00       		.byte	0x0
 1255 0095 03       		.uleb128 0x3
 1256 0096 0E       		.uleb128 0xe
 1257 0097 3A       		.uleb128 0x3a
 1258 0098 0B       		.uleb128 0xb
 1259 0099 3B       		.uleb128 0x3b
 1260 009a 0B       		.uleb128 0xb
 1261 009b 49       		.uleb128 0x49
 1262 009c 13       		.uleb128 0x13
 1263 009d 02       		.uleb128 0x2
 1264 009e 06       		.uleb128 0x6
 1265 009f 00       		.byte	0x0
 1266 00a0 00       		.byte	0x0
 1267 00a1 0C       		.uleb128 0xc
 1268 00a2 34       		.uleb128 0x34
 1269 00a3 00       		.byte	0x0
 1270 00a4 03       		.uleb128 0x3
 1271 00a5 08       		.uleb128 0x8
 1272 00a6 3A       		.uleb128 0x3a
 1273 00a7 0B       		.uleb128 0xb
 1274 00a8 3B       		.uleb128 0x3b
 1275 00a9 0B       		.uleb128 0xb
ARM GAS  /cygdrive/c/DOCUME~1/mkwapisz/LOCALS~1/Temp/ccumO4cZ.s 			page 27


 1276 00aa 49       		.uleb128 0x49
 1277 00ab 13       		.uleb128 0x13
 1278 00ac 02       		.uleb128 0x2
 1279 00ad 06       		.uleb128 0x6
 1280 00ae 00       		.byte	0x0
 1281 00af 00       		.byte	0x0
 1282 00b0 0D       		.uleb128 0xd
 1283 00b1 2E       		.uleb128 0x2e
 1284 00b2 01       		.byte	0x1
 1285 00b3 01       		.uleb128 0x1
 1286 00b4 13       		.uleb128 0x13
 1287 00b5 03       		.uleb128 0x3
 1288 00b6 0E       		.uleb128 0xe
 1289 00b7 3A       		.uleb128 0x3a
 1290 00b8 0B       		.uleb128 0xb
 1291 00b9 3B       		.uleb128 0x3b
 1292 00ba 0B       		.uleb128 0xb
 1293 00bb 27       		.uleb128 0x27
 1294 00bc 0C       		.uleb128 0xc
 1295 00bd 20       		.uleb128 0x20
 1296 00be 0B       		.uleb128 0xb
 1297 00bf 00       		.byte	0x0
 1298 00c0 00       		.byte	0x0
 1299 00c1 0E       		.uleb128 0xe
 1300 00c2 05       		.uleb128 0x5
 1301 00c3 00       		.byte	0x0
 1302 00c4 03       		.uleb128 0x3
 1303 00c5 0E       		.uleb128 0xe
 1304 00c6 3A       		.uleb128 0x3a
 1305 00c7 0B       		.uleb128 0xb
 1306 00c8 3B       		.uleb128 0x3b
 1307 00c9 0B       		.uleb128 0xb
 1308 00ca 49       		.uleb128 0x49
 1309 00cb 13       		.uleb128 0x13
 1310 00cc 00       		.byte	0x0
 1311 00cd 00       		.byte	0x0
 1312 00ce 0F       		.uleb128 0xf
 1313 00cf 34       		.uleb128 0x34
 1314 00d0 00       		.byte	0x0
 1315 00d1 03       		.uleb128 0x3
 1316 00d2 08       		.uleb128 0x8
 1317 00d3 3A       		.uleb128 0x3a
 1318 00d4 0B       		.uleb128 0xb
 1319 00d5 3B       		.uleb128 0x3b
 1320 00d6 0B       		.uleb128 0xb
 1321 00d7 49       		.uleb128 0x49
 1322 00d8 13       		.uleb128 0x13
 1323 00d9 00       		.byte	0x0
 1324 00da 00       		.byte	0x0
 1325 00db 10       		.uleb128 0x10
 1326 00dc 2E       		.uleb128 0x2e
 1327 00dd 01       		.byte	0x1
 1328 00de 01       		.uleb128 0x1
 1329 00df 13       		.uleb128 0x13
 1330 00e0 03       		.uleb128 0x3
 1331 00e1 0E       		.uleb128 0xe
 1332 00e2 3A       		.uleb128 0x3a
ARM GAS  /cygdrive/c/DOCUME~1/mkwapisz/LOCALS~1/Temp/ccumO4cZ.s 			page 28


 1333 00e3 0B       		.uleb128 0xb
 1334 00e4 3B       		.uleb128 0x3b
 1335 00e5 0B       		.uleb128 0xb
 1336 00e6 20       		.uleb128 0x20
 1337 00e7 0B       		.uleb128 0xb
 1338 00e8 00       		.byte	0x0
 1339 00e9 00       		.byte	0x0
 1340 00ea 11       		.uleb128 0x11
 1341 00eb 2E       		.uleb128 0x2e
 1342 00ec 01       		.byte	0x1
 1343 00ed 01       		.uleb128 0x1
 1344 00ee 13       		.uleb128 0x13
 1345 00ef 3F       		.uleb128 0x3f
 1346 00f0 0C       		.uleb128 0xc
 1347 00f1 03       		.uleb128 0x3
 1348 00f2 0E       		.uleb128 0xe
 1349 00f3 3A       		.uleb128 0x3a
 1350 00f4 0B       		.uleb128 0xb
 1351 00f5 3B       		.uleb128 0x3b
 1352 00f6 0B       		.uleb128 0xb
 1353 00f7 27       		.uleb128 0x27
 1354 00f8 0C       		.uleb128 0xc
 1355 00f9 11       		.uleb128 0x11
 1356 00fa 01       		.uleb128 0x1
 1357 00fb 12       		.uleb128 0x12
 1358 00fc 01       		.uleb128 0x1
 1359 00fd 40       		.uleb128 0x40
 1360 00fe 06       		.uleb128 0x6
 1361 00ff 00       		.byte	0x0
 1362 0100 00       		.byte	0x0
 1363 0101 12       		.uleb128 0x12
 1364 0102 1D       		.uleb128 0x1d
 1365 0103 01       		.byte	0x1
 1366 0104 01       		.uleb128 0x1
 1367 0105 13       		.uleb128 0x13
 1368 0106 31       		.uleb128 0x31
 1369 0107 13       		.uleb128 0x13
 1370 0108 55       		.uleb128 0x55
 1371 0109 06       		.uleb128 0x6
 1372 010a 58       		.uleb128 0x58
 1373 010b 0B       		.uleb128 0xb
 1374 010c 59       		.uleb128 0x59
 1375 010d 0B       		.uleb128 0xb
 1376 010e 00       		.byte	0x0
 1377 010f 00       		.byte	0x0
 1378 0110 13       		.uleb128 0x13
 1379 0111 05       		.uleb128 0x5
 1380 0112 00       		.byte	0x0
 1381 0113 31       		.uleb128 0x31
 1382 0114 13       		.uleb128 0x13
 1383 0115 00       		.byte	0x0
 1384 0116 00       		.byte	0x0
 1385 0117 14       		.uleb128 0x14
 1386 0118 1D       		.uleb128 0x1d
 1387 0119 01       		.byte	0x1
 1388 011a 01       		.uleb128 0x1
 1389 011b 13       		.uleb128 0x13
ARM GAS  /cygdrive/c/DOCUME~1/mkwapisz/LOCALS~1/Temp/ccumO4cZ.s 			page 29


 1390 011c 31       		.uleb128 0x31
 1391 011d 13       		.uleb128 0x13
 1392 011e 11       		.uleb128 0x11
 1393 011f 01       		.uleb128 0x1
 1394 0120 12       		.uleb128 0x12
 1395 0121 01       		.uleb128 0x1
 1396 0122 58       		.uleb128 0x58
 1397 0123 0B       		.uleb128 0xb
 1398 0124 59       		.uleb128 0x59
 1399 0125 0B       		.uleb128 0xb
 1400 0126 00       		.byte	0x0
 1401 0127 00       		.byte	0x0
 1402 0128 15       		.uleb128 0x15
 1403 0129 0B       		.uleb128 0xb
 1404 012a 01       		.byte	0x1
 1405 012b 11       		.uleb128 0x11
 1406 012c 01       		.uleb128 0x1
 1407 012d 12       		.uleb128 0x12
 1408 012e 01       		.uleb128 0x1
 1409 012f 00       		.byte	0x0
 1410 0130 00       		.byte	0x0
 1411 0131 16       		.uleb128 0x16
 1412 0132 34       		.uleb128 0x34
 1413 0133 00       		.byte	0x0
 1414 0134 31       		.uleb128 0x31
 1415 0135 13       		.uleb128 0x13
 1416 0136 00       		.byte	0x0
 1417 0137 00       		.byte	0x0
 1418 0138 17       		.uleb128 0x17
 1419 0139 1D       		.uleb128 0x1d
 1420 013a 01       		.byte	0x1
 1421 013b 31       		.uleb128 0x31
 1422 013c 13       		.uleb128 0x13
 1423 013d 11       		.uleb128 0x11
 1424 013e 01       		.uleb128 0x1
 1425 013f 12       		.uleb128 0x12
 1426 0140 01       		.uleb128 0x1
 1427 0141 58       		.uleb128 0x58
 1428 0142 0B       		.uleb128 0xb
 1429 0143 59       		.uleb128 0x59
 1430 0144 0B       		.uleb128 0xb
 1431 0145 00       		.byte	0x0
 1432 0146 00       		.byte	0x0
 1433 0147 18       		.uleb128 0x18
 1434 0148 34       		.uleb128 0x34
 1435 0149 00       		.byte	0x0
 1436 014a 03       		.uleb128 0x3
 1437 014b 0E       		.uleb128 0xe
 1438 014c 3A       		.uleb128 0x3a
 1439 014d 0B       		.uleb128 0xb
 1440 014e 3B       		.uleb128 0x3b
 1441 014f 0B       		.uleb128 0xb
 1442 0150 49       		.uleb128 0x49
 1443 0151 13       		.uleb128 0x13
 1444 0152 3F       		.uleb128 0x3f
 1445 0153 0C       		.uleb128 0xc
 1446 0154 02       		.uleb128 0x2
ARM GAS  /cygdrive/c/DOCUME~1/mkwapisz/LOCALS~1/Temp/ccumO4cZ.s 			page 30


 1447 0155 0A       		.uleb128 0xa
 1448 0156 00       		.byte	0x0
 1449 0157 00       		.byte	0x0
 1450 0158 19       		.uleb128 0x19
 1451 0159 01       		.uleb128 0x1
 1452 015a 01       		.byte	0x1
 1453 015b 01       		.uleb128 0x1
 1454 015c 13       		.uleb128 0x13
 1455 015d 49       		.uleb128 0x49
 1456 015e 13       		.uleb128 0x13
 1457 015f 00       		.byte	0x0
 1458 0160 00       		.byte	0x0
 1459 0161 1A       		.uleb128 0x1a
 1460 0162 21       		.uleb128 0x21
 1461 0163 00       		.byte	0x0
 1462 0164 49       		.uleb128 0x49
 1463 0165 13       		.uleb128 0x13
 1464 0166 2F       		.uleb128 0x2f
 1465 0167 0B       		.uleb128 0xb
 1466 0168 00       		.byte	0x0
 1467 0169 00       		.byte	0x0
 1468 016a 00       		.byte	0x0
 1469              		.section	.debug_pubnames,"",%progbits
 1470 0000 63000000 		.4byte	0x63
 1471 0004 0200     		.2byte	0x2
 1472 0006 00000000 		.4byte	.Ldebug_info0
 1473 000a 23020000 		.4byte	0x223
 1474 000e 77000000 		.4byte	0x77
 1475 0012 696E6974 		.ascii	"initSecondLCD\000"
 1475      5365636F 
 1475      6E644C43 
 1475      4400
 1476 0020 4E010000 		.4byte	0x14e
 1477 0024 64697370 		.ascii	"displayScoreAndTime\000"
 1477      6C617953 
 1477      636F7265 
 1477      416E6454 
 1477      696D6500 
 1478 0038 DC010000 		.4byte	0x1dc
 1479 003c 68696768 		.ascii	"highScore\000"
 1479      53636F72 
 1479      6500
 1480 0046 FE010000 		.4byte	0x1fe
 1481 004a 73636F72 		.ascii	"scoreString\000"
 1481      65537472 
 1481      696E6700 
 1482 0056 10020000 		.4byte	0x210
 1483 005a 68735374 		.ascii	"hsString\000"
 1483      72696E67 
 1483      00
 1484 0063 00000000 		.4byte	0x0
 1485              		.section	.debug_aranges,"",%progbits
 1486 0000 1C000000 		.4byte	0x1c
 1487 0004 0200     		.2byte	0x2
 1488 0006 00000000 		.4byte	.Ldebug_info0
 1489 000a 04       		.byte	0x4
 1490 000b 00       		.byte	0x0
ARM GAS  /cygdrive/c/DOCUME~1/mkwapisz/LOCALS~1/Temp/ccumO4cZ.s 			page 31


 1491 000c 0000     		.2byte	0x0
 1492 000e 0000     		.2byte	0x0
 1493 0010 00000000 		.4byte	.Ltext0
 1494 0014 80030000 		.4byte	.Letext0-.Ltext0
 1495 0018 00000000 		.4byte	0x0
 1496 001c 00000000 		.4byte	0x0
 1497              		.section	.debug_ranges,"",%progbits
 1498              	.Ldebug_ranges0:
 1499 0000 F2000000 		.4byte	.LBB8-.Ltext0
 1500 0004 F8000000 		.4byte	.LBE8-.Ltext0
 1501 0008 FA000000 		.4byte	.LBB10-.Ltext0
 1502 000c FC000000 		.4byte	.LBE10-.Ltext0
 1503 0010 00000000 		.4byte	0x0
 1504 0014 00000000 		.4byte	0x0
 1505              		.section	.debug_str,"MS",%progbits,1
 1506              	.LASF6:
 1507 0000 74533332 		.ascii	"tS32\000"
 1507      00
 1508              	.LASF20:
 1509 0005 7365636F 		.ascii	"secondLCD/secondLCD.c\000"
 1509      6E644C43 
 1509      442F7365 
 1509      636F6E64 
 1509      4C43442E 
 1510              	.LASF10:
 1511 001b 64617461 		.ascii	"data\000"
 1511      00
 1512              	.LASF22:
 1513 0020 696E6974 		.ascii	"initSecondLCD\000"
 1513      5365636F 
 1513      6E644C43 
 1513      4400
 1514              	.LASF9:
 1515 002e 77726974 		.ascii	"writeLCD\000"
 1515      654C4344 
 1515      00
 1516              	.LASF14:
 1517 0037 73636F72 		.ascii	"score\000"
 1517      6500
 1518              	.LASF11:
 1519 003d 6C636442 		.ascii	"lcdBacklight\000"
 1519      61636B6C 
 1519      69676874 
 1519      00
 1520              	.LASF0:
 1521 004a 756E7369 		.ascii	"unsigned char\000"
 1521      676E6564 
 1521      20636861 
 1521      7200
 1522              	.LASF7:
 1523 0058 6C6F6E67 		.ascii	"long unsigned int\000"
 1523      20756E73 
 1523      69676E65 
 1523      6420696E 
 1523      7400
 1524              	.LASF1:
 1525 006a 73686F72 		.ascii	"short unsigned int\000"
ARM GAS  /cygdrive/c/DOCUME~1/mkwapisz/LOCALS~1/Temp/ccumO4cZ.s 			page 32


 1525      7420756E 
 1525      7369676E 
 1525      65642069 
 1525      6E7400
 1526              	.LASF15:
 1527 007d 67657448 		.ascii	"getHSAsString\000"
 1527      53417353 
 1527      7472696E 
 1527      6700
 1528              	.LASF12:
 1529 008b 6F6E4F66 		.ascii	"onOff\000"
 1529      6600
 1530              	.LASF21:
 1531 0091 2F637967 		.ascii	"/cygdrive/z/IntergatedSystems\000"
 1531      64726976 
 1531      652F7A2F 
 1531      496E7465 
 1531      72676174 
 1532              	.LASF17:
 1533 00af 73636F72 		.ascii	"scoreString\000"
 1533      65537472 
 1533      696E6700 
 1534              	.LASF23:
 1535 00bb 64697370 		.ascii	"displayScoreAndTime\000"
 1535      6C617953 
 1535      636F7265 
 1535      416E6454 
 1535      696D6500 
 1536              	.LASF3:
 1537 00cf 756E7369 		.ascii	"unsigned int\000"
 1537      676E6564 
 1537      20696E74 
 1537      00
 1538              	.LASF8:
 1539 00dc 64656C61 		.ascii	"delay37us\000"
 1539      79333775 
 1539      7300
 1540              	.LASF18:
 1541 00e6 68735374 		.ascii	"hsString\000"
 1541      72696E67 
 1541      00
 1542              	.LASF19:
 1543 00ef 474E5520 		.ascii	"GNU C 4.1.1\000"
 1543      4320342E 
 1543      312E3100 
 1544              	.LASF2:
 1545 00fb 74553332 		.ascii	"tU32\000"
 1545      00
 1546              	.LASF5:
 1547 0100 73686F72 		.ascii	"short int\000"
 1547      7420696E 
 1547      7400
 1548              	.LASF13:
 1549 010a 67657453 		.ascii	"getScoreAsString\000"
 1549      636F7265 
 1549      41735374 
 1549      72696E67 
ARM GAS  /cygdrive/c/DOCUME~1/mkwapisz/LOCALS~1/Temp/ccumO4cZ.s 			page 33


 1549      00
 1550              	.LASF16:
 1551 011b 68696768 		.ascii	"highScore\000"
 1551      53636F72 
 1551      6500
 1552              	.LASF4:
 1553 0125 7369676E 		.ascii	"signed char\000"
 1553      65642063 
 1553      68617200 
 1554              		.ident	"GCC: (GNU) 4.1.1"
ARM GAS  /cygdrive/c/DOCUME~1/mkwapisz/LOCALS~1/Temp/ccumO4cZ.s 			page 34


DEFINED SYMBOLS
                            *ABS*:00000000 secondLCD.c
/cygdrive/c/DOCUME~1/mkwapisz/LOCALS~1/Temp/ccumO4cZ.s:1      .text:00000000 $t
/cygdrive/c/DOCUME~1/mkwapisz/LOCALS~1/Temp/ccumO4cZ.s:16     .text:00000000 initSecondLCD
/cygdrive/c/DOCUME~1/mkwapisz/LOCALS~1/Temp/ccumO4cZ.s:57     .text:0000002c $d
/cygdrive/c/DOCUME~1/mkwapisz/LOCALS~1/Temp/ccumO4cZ.s:65     .text:00000040 $t
/cygdrive/c/DOCUME~1/mkwapisz/LOCALS~1/Temp/ccumO4cZ.s:68     .text:00000040 delay37us
/cygdrive/c/DOCUME~1/mkwapisz/LOCALS~1/Temp/ccumO4cZ.s:99     .text:0000005c $d
/cygdrive/c/DOCUME~1/mkwapisz/LOCALS~1/Temp/ccumO4cZ.s:103    .text:00000060 $t
/cygdrive/c/DOCUME~1/mkwapisz/LOCALS~1/Temp/ccumO4cZ.s:106    .text:00000060 writeLCD
/cygdrive/c/DOCUME~1/mkwapisz/LOCALS~1/Temp/ccumO4cZ.s:219    .text:000000e4 $d
/cygdrive/c/DOCUME~1/mkwapisz/LOCALS~1/Temp/ccumO4cZ.s:241    .text:000000f0 displayScoreAndTime
/cygdrive/c/DOCUME~1/mkwapisz/LOCALS~1/Temp/ccumO4cZ.s:238    .text:000000f0 $t
/cygdrive/c/DOCUME~1/mkwapisz/LOCALS~1/Temp/ccumO4cZ.s:645    .text:00000358 $d
                            *COM*:00000010 scoreString
                            *COM*:00000010 hsString
                            *COM*:00000004 highScore

UNDEFINED SYMBOLS
__udivsi3
__umodsi3
__divsi3
__modsi3
simplePrintf
osSleep
