ARM GAS  /cygdrive/c/DOCUME~1/mkwapisz/LOCALS~1/Temp/cc90xA4J.s 			page 1


   1              		.code	16
   2              		.file	"main.c"
   3              		.section	.debug_abbrev,"",%progbits
   4              	.Ldebug_abbrev0:
   5              		.section	.debug_info,"",%progbits
   6              	.Ldebug_info0:
   7              		.section	.debug_line,"",%progbits
   8              	.Ldebug_line0:
   9 0000 91000000 		.text
   9      02005200 
   9      00000201 
   9      FB0E0D00 
   9      01010101 
  10              	.Ltext0:
  11              		.align	2
  12              		.global	appTick
  13              		.code 16
  14              		.thumb_func
  15              		.type	appTick, %function
  16              	appTick:
  17              	.LFB8:
  18              		.file 1 "main.c"
   1:main.c        **** /******************************************************************************
   2:main.c        ****  *
   3:main.c        ****  * Copyright:
   4:main.c        ****  *    (C) 2000 - 2008 Embedded Artists AB
   5:main.c        ****  *
   6:main.c        ****  * Description:
   7:main.c        ****  *    Main program for Experiment Expansion Board (for LPC2103 Education Board)
   8:main.c        ****  *
   9:main.c        ****  *****************************************************************************/
  10:main.c        **** 
  11:main.c        **** #include "startup/ea_init.h"
  12:main.c        **** #include "startup/lpc2xxx.h" //definicje
  13:main.c        **** #include "startup/config.h"
  14:main.c        **** 
  15:main.c        **** #include "i2c/i2c.h"
  16:main.c        **** #include "lcd/lcd.h"
  17:main.c        **** #include "pca9532.h"
  18:main.c        **** #include "snake.h"
  19:main.c        **** #include "joystick/joystick.h"
  20:main.c        **** #include "timer/timer.h"
  21:main.c        **** #include "hscore/hscore.h"
  22:main.c        **** #include "secondLCD/secondLCD.h"
  23:main.c        **** #include "dac.h"
  24:main.c        **** #include "led/led_utils.h"
  25:main.c        **** 
  26:main.c        **** #define SPI_SLAVE_CS 0x00002000  //pin P0.13
  27:main.c        **** #define ENC_RESET    0x00001000  //pin P0.12
  28:main.c        **** #define FAILSAFE_VALUE 5000
  29:main.c        **** 
  30:main.c        **** #define PROC1_STACK_SIZE 750
  31:main.c        **** #define PROC2_STACK_SIZE 750
  32:main.c        **** #define INIT_STACK_SIZE  400
  33:main.c        **** 
  34:main.c        **** static tU8 gameProcessStack[PROC1_STACK_SIZE];
  35:main.c        **** static tU8 ledsStack[PROC2_STACK_SIZE];
ARM GAS  /cygdrive/c/DOCUME~1/mkwapisz/LOCALS~1/Temp/cc90xA4J.s 			page 2


  36:main.c        **** static tU8 tkSnakeStack[INIT_STACK_SIZE];
  37:main.c        **** static tU8 pid1;
  38:main.c        **** static tU8 pid2;
  39:main.c        **** static tU8 contrast = 46;
  40:main.c        **** 
  41:main.c        **** static void leds(void* arg);
  42:main.c        **** static void initializeGameProcess(void* arg);
  43:main.c        **** static void initializeTKSnake(void* arg);
  44:main.c        **** 
  45:main.c        **** volatile tU32 ms;
  46:main.c        **** // SD status variables
  47:main.c        **** 
  48:main.c        **** 
  49:main.c        **** /**
  50:main.c        ****  * Entry procedure.
  51:main.c        ****  * Call order:
  52:main.c        ****  * 1. initialize OS -> osInit();
  53:main.c        ****  * 2. cceate the process by passing callback method which actually creates our app as the first arg
  54:main.c        ****  * 3. start the process
  55:main.c        ****  * 4. start OS
  56:main.c        ****  */
  57:main.c        **** int main(void) {
  58:main.c        **** 	tU8 error;
  59:main.c        **** 	tU8 pid;
  60:main.c        **** 
  61:main.c        **** 	osInit();
  62:main.c        **** 	{
  63:main.c        **** 		osCreateProcess(initializeTKSnake, tkSnakeStack, INIT_STACK_SIZE, &pid,
  64:main.c        **** 				1, NULL, &error);
  65:main.c        **** 		osStartProcess(pid, &error);
  66:main.c        **** 
  67:main.c        **** 	}
  68:main.c        **** 	osStart();
  69:main.c        **** 
  70:main.c        **** 	return 0;
  71:main.c        **** }
  72:main.c        **** 
  73:main.c        **** static void leds(void* arg) {
  74:main.c        **** 	while (TRUE)
  75:main.c        **** 		lightLedPatternOne();
  76:main.c        **** }
  77:main.c        **** static void initializeGameProcess(void* arg) {
  78:main.c        **** 	IODIR |= 0x00006000; //P0.13/14
  79:main.c        **** 	IOSET = 0x00006000;
  80:main.c        **** 
  81:main.c        **** 	lcdInit();
  82:main.c        **** 	initKeyProc();
  83:main.c        **** 	lcdContrast(contrast);
  84:main.c        **** 	initSecondLCD();
  85:main.c        **** 	initDac();
  86:main.c        **** 	highScore = getLastHScore().score;
  87:main.c        **** 
  88:main.c        **** 	playSnake();
  89:main.c        **** }
  90:main.c        **** 
  91:main.c        **** /**
  92:main.c        ****  * Initializes TKSnake
ARM GAS  /cygdrive/c/DOCUME~1/mkwapisz/LOCALS~1/Temp/cc90xA4J.s 			page 3


  93:main.c        ****  * Call order:
  94:main.c        ****  * 1. initialize out stream (printf)
  95:main.c        ****  * 2. initialize i2c interface
  96:main.c        ****  * 3. Bootstraps two process [main app, led pattern]
  97:main.c        ****  */
  98:main.c        **** static void initializeTKSnake(void* arg) {
  99:main.c        **** 	tU8 error;
 100:main.c        **** 
 101:main.c        **** 	eaInit();
 102:main.c        **** 	i2cInit();
 103:main.c        **** 
 104:main.c        **** 	osCreateProcess(initializeGameProcess, gameProcessStack, PROC1_STACK_SIZE,
 105:main.c        **** 			&pid1, 3, NULL, &error);
 106:main.c        **** 	osStartProcess(pid1, &error);
 107:main.c        **** 
 108:main.c        **** 	osCreateProcess(leds, ledsStack, PROC2_STACK_SIZE, &pid2, 4, NULL, &error);
 109:main.c        **** 	osStartProcess(pid2, &error);
 110:main.c        **** 
 111:main.c        **** 	osDeleteProcess();
 112:main.c        **** 
 113:main.c        **** }
 114:main.c        **** 
 115:main.c        **** void appTick(tU32 elapsedTime) {
  19              		.loc 1 115 0
  20              	.LVL0:
 116:main.c        **** 	ms += elapsedTime;
  21              		.loc 1 116 0
  22 0000 024A     		ldr	r2, .L3
  23 0002 1368     		ldr	r3, [r2]
  24 0004 1B18     		add	r3, r3, r0
  25              		.loc 1 115 0
  26              		@ lr needed for prologue
  27              		.loc 1 116 0
  28 0006 1360     		str	r3, [r2]
 117:main.c        **** }
  29              		.loc 1 117 0
  30              		@ sp needed for prologue
  31 0008 7047     		bx	lr
  32              	.L4:
  33 000a 0000     		.align	2
  34              	.L3:
  35 000c 00000000 		.word	ms
  36              	.LFE8:
  37              		.size	appTick, .-appTick
  38              		.align	2
  39              		.global	main
  40              		.code 16
  41              		.thumb_func
  42              		.type	main, %function
  43              	main:
  44              	.LFB4:
  45              		.loc 1 57 0
  46 0010 30B5     		push	{r4, r5, lr}
  47              	.LCFI0:
  48 0012 84B0     		sub	sp, sp, #16
  49              	.LCFI1:
  50              		.loc 1 61 0
ARM GAS  /cygdrive/c/DOCUME~1/mkwapisz/LOCALS~1/Temp/cc90xA4J.s 			page 4


  51 0014 FFF7FEFF 		bl	osInit
  52              		.loc 1 63 0
  53 0018 6D46     		mov	r5, sp
  54 001a 0123     		mov	r3, #1
  55 001c 0E35     		add	r5, r5, #14
  56 001e 0093     		str	r3, [sp]
  57 0020 6C46     		mov	r4, sp
  58 0022 0023     		mov	r3, #0
  59 0024 C822     		mov	r2, #200
  60 0026 5200     		lsl	r2, r2, #1
  61 0028 0193     		str	r3, [sp, #4]
  62 002a 0F34     		add	r4, r4, #15
  63 002c 2B1C     		mov	r3, r5
  64 002e 0848     		ldr	r0, .L7
  65 0030 0849     		ldr	r1, .L7+4
  66 0032 0294     		str	r4, [sp, #8]
  67 0034 FFF7FEFF 		bl	osCreateProcess
  68              	.LVL1:
  69              		.loc 1 65 0
  70 0038 2878     		ldrb	r0, [r5]
  71 003a 211C     		mov	r1, r4
  72 003c FFF7FEFF 		bl	osStartProcess
  73              		.loc 1 68 0
  74 0040 FFF7FEFF 		bl	osStart
  75              		.loc 1 71 0
  76 0044 0020     		mov	r0, #0
  77 0046 04B0     		add	sp, sp, #16
  78              		@ sp needed for prologue
  79 0048 30BC     		pop	{r4, r5}
  80 004a 02BC     		pop	{r1}
  81 004c 0847     		bx	r1
  82              	.L8:
  83 004e 0000     		.align	2
  84              	.L7:
  85 0050 00000000 		.word	initializeTKSnake
  86 0054 DC050000 		.word	tkSnakeStack
  87              	.LFE4:
  88              		.size	main, .-main
  89              		.align	2
  90              		.code 16
  91              		.thumb_func
  92              		.type	initializeTKSnake, %function
  93              	initializeTKSnake:
  94              	.LFB7:
  95              		.loc 1 98 0
  96 0058 F0B5     		push	{r4, r5, r6, r7, lr}
  97              	.LCFI2:
  98              	.LVL2:
  99 005a 84B0     		sub	sp, sp, #16
 100              	.LCFI3:
 101              		.loc 1 101 0
 102 005c FFF7FEFF 		bl	eaInit
 103              	.LVL3:
 104              		.loc 1 104 0
 105 0060 144F     		ldr	r7, .L11
 106              		.loc 1 102 0
 107 0062 FFF7FEFF 		bl	i2cInit
ARM GAS  /cygdrive/c/DOCUME~1/mkwapisz/LOCALS~1/Temp/cc90xA4J.s 			page 5


 108              		.loc 1 104 0
 109 0066 144D     		ldr	r5, .L11+4
 110 0068 0323     		mov	r3, #3
 111 006a 6C46     		mov	r4, sp
 112 006c 0F34     		add	r4, r4, #15
 113 006e 3A1C     		mov	r2, r7
 114 0070 0026     		mov	r6, #0
 115 0072 0093     		str	r3, [sp]
 116 0074 1148     		ldr	r0, .L11+8
 117 0076 2B1C     		mov	r3, r5
 118 0078 1149     		ldr	r1, .L11+12
 119 007a 0196     		str	r6, [sp, #4]
 120 007c 0294     		str	r4, [sp, #8]
 121 007e FFF7FEFF 		bl	osCreateProcess
 122              		.loc 1 106 0
 123 0082 2878     		ldrb	r0, [r5]
 124 0084 211C     		mov	r1, r4
 125 0086 FFF7FEFF 		bl	osStartProcess
 126              		.loc 1 108 0
 127 008a 0E4D     		ldr	r5, .L11+16
 128 008c 0423     		mov	r3, #4
 129 008e 3A1C     		mov	r2, r7
 130 0090 0093     		str	r3, [sp]
 131 0092 0D48     		ldr	r0, .L11+20
 132 0094 2B1C     		mov	r3, r5
 133 0096 0D49     		ldr	r1, .L11+24
 134 0098 0196     		str	r6, [sp, #4]
 135 009a 0294     		str	r4, [sp, #8]
 136 009c FFF7FEFF 		bl	osCreateProcess
 137              		.loc 1 109 0
 138 00a0 2878     		ldrb	r0, [r5]
 139 00a2 211C     		mov	r1, r4
 140 00a4 FFF7FEFF 		bl	osStartProcess
 141              		.loc 1 111 0
 142 00a8 FFF7FEFF 		bl	osDeleteProcess
 143              		.loc 1 113 0
 144 00ac 04B0     		add	sp, sp, #16
 145              		@ sp needed for prologue
 146 00ae F0BC     		pop	{r4, r5, r6, r7}
 147 00b0 01BC     		pop	{r0}
 148 00b2 0047     		bx	r0
 149              	.L12:
 150              		.align	2
 151              	.L11:
 152 00b4 EE020000 		.word	750
 153 00b8 6C070000 		.word	pid1
 154 00bc 00000000 		.word	initializeGameProcess
 155 00c0 00000000 		.word	gameProcessStack
 156 00c4 6D070000 		.word	pid2
 157 00c8 00000000 		.word	leds
 158 00cc EE020000 		.word	ledsStack
 159              	.LFE7:
 160              		.size	initializeTKSnake, .-initializeTKSnake
 161              		.align	2
 162              		.code 16
 163              		.thumb_func
 164              		.type	leds, %function
ARM GAS  /cygdrive/c/DOCUME~1/mkwapisz/LOCALS~1/Temp/cc90xA4J.s 			page 6


 165              	leds:
 166              	.LFB5:
 167              		.loc 1 73 0
 168 00d0 00B5     		push	{lr}
 169              	.LCFI4:
 170              	.LVL4:
 171              	.L15:
 172              		.loc 1 75 0
 173 00d2 FFF7FEFF 		bl	lightLedPatternOne
 174              	.LVL5:
 175 00d6 FCE7     		b	.L15
 176              	.LFE5:
 177              		.size	leds, .-leds
 178              		.align	2
 179              		.code 16
 180              		.thumb_func
 181              		.type	initializeGameProcess, %function
 182              	initializeGameProcess:
 183              	.LFB6:
 184              		.loc 1 77 0
 185 00d8 10B5     		push	{r4, lr}
 186              	.LCFI5:
 187              	.LVL6:
 188              		.loc 1 78 0
 189 00da 1049     		ldr	r1, .L19
 190 00dc C022     		mov	r2, #192
 191 00de 0B68     		ldr	r3, [r1]
 192 00e0 D201     		lsl	r2, r2, #7
 193 00e2 1343     		orr	r3, r3, r2
 194 00e4 0B60     		str	r3, [r1]
 195              		.loc 1 79 0
 196 00e6 0E4B     		ldr	r3, .L19+4
 197              		.loc 1 77 0
 198 00e8 83B0     		sub	sp, sp, #12
 199              	.LCFI6:
 200              		.loc 1 79 0
 201 00ea 1A60     		str	r2, [r3]
 202              		.loc 1 81 0
 203 00ec FFF7FEFF 		bl	lcdInit
 204              	.LVL7:
 205              		.loc 1 82 0
 206 00f0 FFF7FEFF 		bl	initKeyProc
 207              		.loc 1 83 0
 208 00f4 2E20     		mov	r0, #46
 209 00f6 FFF7FEFF 		bl	lcdContrast
 210              		.loc 1 86 0
 211 00fa 6C46     		mov	r4, sp
 212              		.loc 1 84 0
 213 00fc FFF7FEFF 		bl	initSecondLCD
 214              		.loc 1 85 0
 215 0100 FFF7FEFF 		bl	initDac
 216              		.loc 1 86 0
 217 0104 6846     		mov	r0, sp
 218 0106 FFF7FEFF 		bl	getLastHScore
 219 010a 064A     		ldr	r2, .L19+8
 220 010c 2388     		ldrh	r3, [r4]
 221 010e 1360     		str	r3, [r2]
ARM GAS  /cygdrive/c/DOCUME~1/mkwapisz/LOCALS~1/Temp/cc90xA4J.s 			page 7


 222              		.loc 1 88 0
 223 0110 FFF7FEFF 		bl	playSnake
 224              		.loc 1 89 0
 225 0114 03B0     		add	sp, sp, #12
 226              		@ sp needed for prologue
 227 0116 10BC     		pop	{r4}
 228 0118 01BC     		pop	{r0}
 229 011a 0047     		bx	r0
 230              	.L20:
 231              		.align	2
 232              	.L19:
 233 011c 088002E0 		.word	-536707064
 234 0120 048002E0 		.word	-536707068
 235 0124 00000000 		.word	highScore
 236              	.LFE6:
 237              		.size	initializeGameProcess, .-initializeGameProcess
 238              		.bss
 239              	gameProcessStack:
 240 0000 00000000 		.space	750
 240      00000000 
 240      00000000 
 240      00000000 
 240      00000000 
 241              	ledsStack:
 242 02ee 00000000 		.space	750
 242      00000000 
 242      00000000 
 242      00000000 
 242      00000000 
 243              	tkSnakeStack:
 244 05dc 00000000 		.space	400
 244      00000000 
 244      00000000 
 244      00000000 
 244      00000000 
 245              	pid1:
 246 076c 00       		.space	1
 247              	pid2:
 248 076d 00       		.space	1
 249              		.comm	highScore,4,4
 250              		.comm	ms,4,4
 251              		.section	.debug_frame,"",%progbits
 252              	.Lframe0:
 253 0000 0C000000 		.4byte	.LECIE0-.LSCIE0
 254              	.LSCIE0:
 255 0004 FFFFFFFF 		.4byte	0xffffffff
 256 0008 01       		.byte	0x1
 257 0009 00       		.ascii	"\000"
 258 000a 01       		.uleb128 0x1
 259 000b 7C       		.sleb128 -4
 260 000c 0E       		.byte	0xe
 261 000d 0C       		.byte	0xc
 262 000e 0D       		.uleb128 0xd
 263 000f 00       		.uleb128 0x0
 264              		.align	2
 265              	.LECIE0:
 266              	.LSFDE0:
ARM GAS  /cygdrive/c/DOCUME~1/mkwapisz/LOCALS~1/Temp/cc90xA4J.s 			page 8


 267 0010 0C000000 		.4byte	.LEFDE0-.LASFDE0
 268              	.LASFDE0:
 269 0014 00000000 		.4byte	.Lframe0
 270 0018 00000000 		.4byte	.LFB8
 271 001c 10000000 		.4byte	.LFE8-.LFB8
 272              		.align	2
 273              	.LEFDE0:
 274              	.LSFDE2:
 275 0020 18000000 		.4byte	.LEFDE2-.LASFDE2
 276              	.LASFDE2:
 277 0024 00000000 		.4byte	.Lframe0
 278 0028 10000000 		.4byte	.LFB4
 279 002c 48000000 		.4byte	.LFE4-.LFB4
 280 0030 42       		.byte	0x4
 281              		.4byte	.LCFI0-.LFB4
 282 0031 0E       		.byte	0xe
 283 0032 0C       		.uleb128 0xc
 284 0033 84       		.byte	0x84
 285 0034 03       		.uleb128 0x3
 286 0035 85       		.byte	0x85
 287 0036 02       		.uleb128 0x2
 288 0037 8E       		.byte	0x8e
 289 0038 01       		.uleb128 0x1
 290 0039 42       		.byte	0x4
 291              		.4byte	.LCFI1-.LCFI0
 292 003a 0E       		.byte	0xe
 293 003b 1C       		.uleb128 0x1c
 294              		.align	2
 295              	.LEFDE2:
 296              	.LSFDE4:
 297 003c 1C000000 		.4byte	.LEFDE4-.LASFDE4
 298              	.LASFDE4:
 299 0040 00000000 		.4byte	.Lframe0
 300 0044 58000000 		.4byte	.LFB7
 301 0048 78000000 		.4byte	.LFE7-.LFB7
 302 004c 42       		.byte	0x4
 303              		.4byte	.LCFI2-.LFB7
 304 004d 0E       		.byte	0xe
 305 004e 14       		.uleb128 0x14
 306 004f 84       		.byte	0x84
 307 0050 05       		.uleb128 0x5
 308 0051 85       		.byte	0x85
 309 0052 04       		.uleb128 0x4
 310 0053 86       		.byte	0x86
 311 0054 03       		.uleb128 0x3
 312 0055 87       		.byte	0x87
 313 0056 02       		.uleb128 0x2
 314 0057 8E       		.byte	0x8e
 315 0058 01       		.uleb128 0x1
 316 0059 42       		.byte	0x4
 317              		.4byte	.LCFI3-.LCFI2
 318 005a 0E       		.byte	0xe
 319 005b 24       		.uleb128 0x24
 320              		.align	2
 321              	.LEFDE4:
 322              	.LSFDE6:
 323 005c 14000000 		.4byte	.LEFDE6-.LASFDE6
ARM GAS  /cygdrive/c/DOCUME~1/mkwapisz/LOCALS~1/Temp/cc90xA4J.s 			page 9


 324              	.LASFDE6:
 325 0060 00000000 		.4byte	.Lframe0
 326 0064 D0000000 		.4byte	.LFB5
 327 0068 08000000 		.4byte	.LFE5-.LFB5
 328 006c 42       		.byte	0x4
 329              		.4byte	.LCFI4-.LFB5
 330 006d 0E       		.byte	0xe
 331 006e 04       		.uleb128 0x4
 332 006f 8E       		.byte	0x8e
 333 0070 01       		.uleb128 0x1
 334 0071 000000   		.align	2
 335              	.LEFDE6:
 336              	.LSFDE8:
 337 0074 18000000 		.4byte	.LEFDE8-.LASFDE8
 338              	.LASFDE8:
 339 0078 00000000 		.4byte	.Lframe0
 340 007c D8000000 		.4byte	.LFB6
 341 0080 50000000 		.4byte	.LFE6-.LFB6
 342 0084 42       		.byte	0x4
 343              		.4byte	.LCFI5-.LFB6
 344 0085 0E       		.byte	0xe
 345 0086 08       		.uleb128 0x8
 346 0087 84       		.byte	0x84
 347 0088 02       		.uleb128 0x2
 348 0089 8E       		.byte	0x8e
 349 008a 01       		.uleb128 0x1
 350 008b 50       		.byte	0x4
 351              		.4byte	.LCFI6-.LCFI5
 352 008c 0E       		.byte	0xe
 353 008d 14       		.uleb128 0x14
 354 008e 0000     		.align	2
 355              	.LEFDE8:
 356              		.file 2 "i2c/../startup/general.h"
 357              		.file 3 "secondLCD/secondLCD.h"
 358              		.text
 359              	.Letext0:
 360              		.section	.debug_loc,"",%progbits
 361              	.Ldebug_loc0:
 362              	.LLST1:
 363 0000 10000000 		.4byte	.LFB4-.Ltext0
 364 0004 12000000 		.4byte	.LCFI0-.Ltext0
 365 0008 0100     		.2byte	0x1
 366 000a 5D       		.byte	0x5d
 367 000b 12000000 		.4byte	.LCFI0-.Ltext0
 368 000f 14000000 		.4byte	.LCFI1-.Ltext0
 369 0013 0200     		.2byte	0x2
 370 0015 7D       		.byte	0x7d
 371 0016 0C       		.sleb128 12
 372 0017 14000000 		.4byte	.LCFI1-.Ltext0
 373 001b 58000000 		.4byte	.LFE4-.Ltext0
 374 001f 0200     		.2byte	0x2
 375 0021 7D       		.byte	0x7d
 376 0022 1C       		.sleb128 28
 377 0023 00000000 		.4byte	0x0
 378 0027 00000000 		.4byte	0x0
 379              	.LLST2:
 380 002b 58000000 		.4byte	.LFB7-.Ltext0
ARM GAS  /cygdrive/c/DOCUME~1/mkwapisz/LOCALS~1/Temp/cc90xA4J.s 			page 10


 381 002f 5A000000 		.4byte	.LCFI2-.Ltext0
 382 0033 0100     		.2byte	0x1
 383 0035 5D       		.byte	0x5d
 384 0036 5A000000 		.4byte	.LCFI2-.Ltext0
 385 003a 5C000000 		.4byte	.LCFI3-.Ltext0
 386 003e 0200     		.2byte	0x2
 387 0040 7D       		.byte	0x7d
 388 0041 14       		.sleb128 20
 389 0042 5C000000 		.4byte	.LCFI3-.Ltext0
 390 0046 D0000000 		.4byte	.LFE7-.Ltext0
 391 004a 0200     		.2byte	0x2
 392 004c 7D       		.byte	0x7d
 393 004d 24       		.sleb128 36
 394 004e 00000000 		.4byte	0x0
 395 0052 00000000 		.4byte	0x0
 396              	.LLST3:
 397 0056 5A000000 		.4byte	.LVL2-.Ltext0
 398 005a 60000000 		.4byte	.LVL3-.Ltext0
 399 005e 0100     		.2byte	0x1
 400 0060 50       		.byte	0x50
 401 0061 00000000 		.4byte	0x0
 402 0065 00000000 		.4byte	0x0
 403              	.LLST4:
 404 0069 D0000000 		.4byte	.LFB5-.Ltext0
 405 006d D2000000 		.4byte	.LCFI4-.Ltext0
 406 0071 0100     		.2byte	0x1
 407 0073 5D       		.byte	0x5d
 408 0074 D2000000 		.4byte	.LCFI4-.Ltext0
 409 0078 D8000000 		.4byte	.LFE5-.Ltext0
 410 007c 0200     		.2byte	0x2
 411 007e 7D       		.byte	0x7d
 412 007f 04       		.sleb128 4
 413 0080 00000000 		.4byte	0x0
 414 0084 00000000 		.4byte	0x0
 415              	.LLST5:
 416 0088 D2000000 		.4byte	.LVL4-.Ltext0
 417 008c D6000000 		.4byte	.LVL5-.Ltext0
 418 0090 0100     		.2byte	0x1
 419 0092 50       		.byte	0x50
 420 0093 00000000 		.4byte	0x0
 421 0097 00000000 		.4byte	0x0
 422              	.LLST6:
 423 009b D8000000 		.4byte	.LFB6-.Ltext0
 424 009f DA000000 		.4byte	.LCFI5-.Ltext0
 425 00a3 0100     		.2byte	0x1
 426 00a5 5D       		.byte	0x5d
 427 00a6 DA000000 		.4byte	.LCFI5-.Ltext0
 428 00aa EA000000 		.4byte	.LCFI6-.Ltext0
 429 00ae 0200     		.2byte	0x2
 430 00b0 7D       		.byte	0x7d
 431 00b1 08       		.sleb128 8
 432 00b2 EA000000 		.4byte	.LCFI6-.Ltext0
 433 00b6 28010000 		.4byte	.LFE6-.Ltext0
 434 00ba 0200     		.2byte	0x2
 435 00bc 7D       		.byte	0x7d
 436 00bd 14       		.sleb128 20
 437 00be 00000000 		.4byte	0x0
ARM GAS  /cygdrive/c/DOCUME~1/mkwapisz/LOCALS~1/Temp/cc90xA4J.s 			page 11


 438 00c2 00000000 		.4byte	0x0
 439              	.LLST7:
 440 00c6 DA000000 		.4byte	.LVL6-.Ltext0
 441 00ca F0000000 		.4byte	.LVL7-.Ltext0
 442 00ce 0100     		.2byte	0x1
 443 00d0 50       		.byte	0x50
 444 00d1 00000000 		.4byte	0x0
 445 00d5 00000000 		.4byte	0x0
 446              		.section	.debug_info
 447 0000 2E020000 		.4byte	0x22e
 448 0004 0200     		.2byte	0x2
 449 0006 00000000 		.4byte	.Ldebug_abbrev0
 450 000a 04       		.byte	0x4
 451 000b 01       		.uleb128 0x1
 452 000c 00000000 		.4byte	.Ldebug_line0
 453 0010 28010000 		.4byte	.Letext0
 454 0014 00000000 		.4byte	.Ltext0
 455 0018 2A000000 		.4byte	.LASF26
 456 001c 01       		.byte	0x1
 457 001d DC000000 		.4byte	.LASF27
 458 0021 17010000 		.4byte	.LASF28
 459 0025 02       		.uleb128 0x2
 460 0026 74553800 		.ascii	"tU8\000"
 461 002a 02       		.byte	0x2
 462 002b 46       		.byte	0x46
 463 002c 30000000 		.4byte	0x30
 464 0030 03       		.uleb128 0x3
 465 0031 6D000000 		.4byte	.LASF0
 466 0035 01       		.byte	0x1
 467 0036 08       		.byte	0x8
 468 0037 03       		.uleb128 0x3
 469 0038 AB000000 		.4byte	.LASF1
 470 003c 02       		.byte	0x2
 471 003d 07       		.byte	0x7
 472 003e 04       		.uleb128 0x4
 473 003f 14000000 		.4byte	.LASF2
 474 0043 02       		.byte	0x2
 475 0044 48       		.byte	0x48
 476 0045 49000000 		.4byte	0x49
 477 0049 03       		.uleb128 0x3
 478 004a 9E000000 		.4byte	.LASF3
 479 004e 04       		.byte	0x4
 480 004f 07       		.byte	0x7
 481 0050 03       		.uleb128 0x3
 482 0051 7B000000 		.4byte	.LASF4
 483 0055 01       		.byte	0x1
 484 0056 06       		.byte	0x6
 485 0057 03       		.uleb128 0x3
 486 0058 00000000 		.4byte	.LASF5
 487 005c 02       		.byte	0x2
 488 005d 05       		.byte	0x5
 489 005e 04       		.uleb128 0x4
 490 005f 5F000000 		.4byte	.LASF6
 491 0063 02       		.byte	0x2
 492 0064 4B       		.byte	0x4b
 493 0065 69000000 		.4byte	0x69
 494 0069 05       		.uleb128 0x5
ARM GAS  /cygdrive/c/DOCUME~1/mkwapisz/LOCALS~1/Temp/cc90xA4J.s 			page 12


 495 006a 696E7400 		.ascii	"int\000"
 496 006e 04       		.byte	0x4
 497 006f 05       		.byte	0x5
 498 0070 03       		.uleb128 0x3
 499 0071 44000000 		.4byte	.LASF7
 500 0075 04       		.byte	0x4
 501 0076 05       		.byte	0x5
 502 0077 03       		.uleb128 0x3
 503 0078 E3000000 		.4byte	.LASF8
 504 007c 04       		.byte	0x4
 505 007d 07       		.byte	0x7
 506 007e 03       		.uleb128 0x3
 507 007f 36000000 		.4byte	.LASF9
 508 0083 08       		.byte	0x8
 509 0084 05       		.byte	0x5
 510 0085 03       		.uleb128 0x3
 511 0086 87000000 		.4byte	.LASF10
 512 008a 08       		.byte	0x8
 513 008b 07       		.byte	0x7
 514 008c 03       		.uleb128 0x3
 515 008d E3000000 		.4byte	.LASF8
 516 0091 04       		.byte	0x4
 517 0092 07       		.byte	0x7
 518 0093 03       		.uleb128 0x3
 519 0094 BE000000 		.4byte	.LASF11
 520 0098 01       		.byte	0x1
 521 0099 08       		.byte	0x8
 522 009a 06       		.uleb128 0x6
 523 009b 04       		.byte	0x4
 524 009c 07       		.uleb128 0x7
 525 009d C1000000 		.4byte	0xc1
 526 00a1 01       		.byte	0x1
 527 00a2 4D000000 		.4byte	.LASF12
 528 00a6 01       		.byte	0x1
 529 00a7 73       		.byte	0x73
 530 00a8 01       		.byte	0x1
 531 00a9 00000000 		.4byte	.LFB8
 532 00ad 10000000 		.4byte	.LFE8
 533 00b1 01       		.byte	0x1
 534 00b2 5D       		.byte	0x5d
 535 00b3 08       		.uleb128 0x8
 536 00b4 D0000000 		.4byte	.LASF15
 537 00b8 01       		.byte	0x1
 538 00b9 73       		.byte	0x73
 539 00ba 3E000000 		.4byte	0x3e
 540 00be 01       		.byte	0x1
 541 00bf 50       		.byte	0x50
 542 00c0 00       		.byte	0x0
 543 00c1 09       		.uleb128 0x9
 544 00c2 FB000000 		.4byte	0xfb
 545 00c6 01       		.byte	0x1
 546 00c7 0F000000 		.4byte	.LASF13
 547 00cb 01       		.byte	0x1
 548 00cc 39       		.byte	0x39
 549 00cd 01       		.byte	0x1
 550 00ce 69000000 		.4byte	0x69
 551 00d2 10000000 		.4byte	.LFB4
ARM GAS  /cygdrive/c/DOCUME~1/mkwapisz/LOCALS~1/Temp/cc90xA4J.s 			page 13


 552 00d6 58000000 		.4byte	.LFE4
 553 00da 00000000 		.4byte	.LLST1
 554 00de 0A       		.uleb128 0xa
 555 00df 07010000 		.4byte	.LASF14
 556 00e3 01       		.byte	0x1
 557 00e4 3A       		.byte	0x3a
 558 00e5 25000000 		.4byte	0x25
 559 00e9 02       		.byte	0x2
 560 00ea 91       		.byte	0x91
 561 00eb 73       		.sleb128 -13
 562 00ec 0B       		.uleb128 0xb
 563 00ed 70696400 		.ascii	"pid\000"
 564 00f1 01       		.byte	0x1
 565 00f2 3B       		.byte	0x3b
 566 00f3 25000000 		.4byte	0x25
 567 00f7 02       		.byte	0x2
 568 00f8 75       		.byte	0x75
 569 00f9 00       		.sleb128 0
 570 00fa 00       		.byte	0x0
 571 00fb 0C       		.uleb128 0xc
 572 00fc 31010000 		.4byte	0x131
 573 0100 F5000000 		.4byte	.LASF16
 574 0104 01       		.byte	0x1
 575 0105 62       		.byte	0x62
 576 0106 01       		.byte	0x1
 577 0107 58000000 		.4byte	.LFB7
 578 010b D0000000 		.4byte	.LFE7
 579 010f 2B000000 		.4byte	.LLST2
 580 0113 0D       		.uleb128 0xd
 581 0114 61726700 		.ascii	"arg\000"
 582 0118 01       		.byte	0x1
 583 0119 62       		.byte	0x62
 584 011a 9A000000 		.4byte	0x9a
 585 011e 56000000 		.4byte	.LLST3
 586 0122 0A       		.uleb128 0xa
 587 0123 07010000 		.4byte	.LASF14
 588 0127 01       		.byte	0x1
 589 0128 63       		.byte	0x63
 590 0129 25000000 		.4byte	0x25
 591 012d 02       		.byte	0x2
 592 012e 91       		.byte	0x91
 593 012f 6B       		.sleb128 -21
 594 0130 00       		.byte	0x0
 595 0131 0C       		.uleb128 0xc
 596 0132 59010000 		.4byte	0x159
 597 0136 0A000000 		.4byte	.LASF17
 598 013a 01       		.byte	0x1
 599 013b 49       		.byte	0x49
 600 013c 01       		.byte	0x1
 601 013d D0000000 		.4byte	.LFB5
 602 0141 D8000000 		.4byte	.LFE5
 603 0145 69000000 		.4byte	.LLST4
 604 0149 0D       		.uleb128 0xd
 605 014a 61726700 		.ascii	"arg\000"
 606 014e 01       		.byte	0x1
 607 014f 49       		.byte	0x49
 608 0150 9A000000 		.4byte	0x9a
ARM GAS  /cygdrive/c/DOCUME~1/mkwapisz/LOCALS~1/Temp/cc90xA4J.s 			page 14


 609 0154 88000000 		.4byte	.LLST5
 610 0158 00       		.byte	0x0
 611 0159 0C       		.uleb128 0xc
 612 015a 81010000 		.4byte	0x181
 613 015e 3F010000 		.4byte	.LASF18
 614 0162 01       		.byte	0x1
 615 0163 4D       		.byte	0x4d
 616 0164 01       		.byte	0x1
 617 0165 D8000000 		.4byte	.LFB6
 618 0169 28010000 		.4byte	.LFE6
 619 016d 9B000000 		.4byte	.LLST6
 620 0171 0D       		.uleb128 0xd
 621 0172 61726700 		.ascii	"arg\000"
 622 0176 01       		.byte	0x1
 623 0177 4D       		.byte	0x4d
 624 0178 9A000000 		.4byte	0x9a
 625 017c C6000000 		.4byte	.LLST7
 626 0180 00       		.byte	0x0
 627 0181 0E       		.uleb128 0xe
 628 0182 92010000 		.4byte	0x192
 629 0186 25000000 		.4byte	0x25
 630 018a 0F       		.uleb128 0xf
 631 018b 8C000000 		.4byte	0x8c
 632 018f ED02     		.2byte	0x2ed
 633 0191 00       		.byte	0x0
 634 0192 0A       		.uleb128 0xa
 635 0193 19000000 		.4byte	.LASF19
 636 0197 01       		.byte	0x1
 637 0198 22       		.byte	0x22
 638 0199 81010000 		.4byte	0x181
 639 019d 05       		.byte	0x5
 640 019e 03       		.byte	0x3
 641 019f 00000000 		.4byte	gameProcessStack
 642 01a3 0A       		.uleb128 0xa
 643 01a4 0D010000 		.4byte	.LASF20
 644 01a8 01       		.byte	0x1
 645 01a9 23       		.byte	0x23
 646 01aa 81010000 		.4byte	0x181
 647 01ae 05       		.byte	0x5
 648 01af 03       		.byte	0x3
 649 01b0 EE020000 		.4byte	ledsStack
 650 01b4 0E       		.uleb128 0xe
 651 01b5 C5010000 		.4byte	0x1c5
 652 01b9 25000000 		.4byte	0x25
 653 01bd 0F       		.uleb128 0xf
 654 01be 8C000000 		.4byte	0x8c
 655 01c2 8F01     		.2byte	0x18f
 656 01c4 00       		.byte	0x0
 657 01c5 0A       		.uleb128 0xa
 658 01c6 C3000000 		.4byte	.LASF21
 659 01ca 01       		.byte	0x1
 660 01cb 24       		.byte	0x24
 661 01cc B4010000 		.4byte	0x1b4
 662 01d0 05       		.byte	0x5
 663 01d1 03       		.byte	0x3
 664 01d2 DC050000 		.4byte	tkSnakeStack
 665 01d6 0A       		.uleb128 0xa
ARM GAS  /cygdrive/c/DOCUME~1/mkwapisz/LOCALS~1/Temp/cc90xA4J.s 			page 15


 666 01d7 55000000 		.4byte	.LASF22
 667 01db 01       		.byte	0x1
 668 01dc 25       		.byte	0x25
 669 01dd 25000000 		.4byte	0x25
 670 01e1 05       		.byte	0x5
 671 01e2 03       		.byte	0x3
 672 01e3 6C070000 		.4byte	pid1
 673 01e7 0A       		.uleb128 0xa
 674 01e8 5A000000 		.4byte	.LASF23
 675 01ec 01       		.byte	0x1
 676 01ed 26       		.byte	0x26
 677 01ee 25000000 		.4byte	0x25
 678 01f2 05       		.byte	0x5
 679 01f3 03       		.byte	0x3
 680 01f4 6D070000 		.4byte	pid2
 681 01f8 10       		.uleb128 0x10
 682 01f9 64000000 		.4byte	.LASF24
 683 01fd 01       		.byte	0x1
 684 01fe 27       		.byte	0x27
 685 01ff 04020000 		.4byte	0x204
 686 0203 2E       		.byte	0x2e
 687 0204 11       		.uleb128 0x11
 688 0205 25000000 		.4byte	0x25
 689 0209 12       		.uleb128 0x12
 690 020a 35010000 		.4byte	.LASF25
 691 020e 03       		.byte	0x3
 692 020f 17       		.byte	0x17
 693 0210 5E000000 		.4byte	0x5e
 694 0214 01       		.byte	0x1
 695 0215 05       		.byte	0x5
 696 0216 03       		.byte	0x3
 697 0217 00000000 		.4byte	highScore
 698 021b 13       		.uleb128 0x13
 699 021c 6D7300   		.ascii	"ms\000"
 700 021f 01       		.byte	0x1
 701 0220 2D       		.byte	0x2d
 702 0221 2C020000 		.4byte	0x22c
 703 0225 01       		.byte	0x1
 704 0226 05       		.byte	0x5
 705 0227 03       		.byte	0x3
 706 0228 00000000 		.4byte	ms
 707 022c 14       		.uleb128 0x14
 708 022d 3E000000 		.4byte	0x3e
 709 0231 00       		.byte	0x0
 710              		.section	.debug_abbrev
 711 0000 01       		.uleb128 0x1
 712 0001 11       		.uleb128 0x11
 713 0002 01       		.byte	0x1
 714 0003 10       		.uleb128 0x10
 715 0004 06       		.uleb128 0x6
 716 0005 12       		.uleb128 0x12
 717 0006 01       		.uleb128 0x1
 718 0007 11       		.uleb128 0x11
 719 0008 01       		.uleb128 0x1
 720 0009 25       		.uleb128 0x25
 721 000a 0E       		.uleb128 0xe
 722 000b 13       		.uleb128 0x13
ARM GAS  /cygdrive/c/DOCUME~1/mkwapisz/LOCALS~1/Temp/cc90xA4J.s 			page 16


 723 000c 0B       		.uleb128 0xb
 724 000d 03       		.uleb128 0x3
 725 000e 0E       		.uleb128 0xe
 726 000f 1B       		.uleb128 0x1b
 727 0010 0E       		.uleb128 0xe
 728 0011 00       		.byte	0x0
 729 0012 00       		.byte	0x0
 730 0013 02       		.uleb128 0x2
 731 0014 16       		.uleb128 0x16
 732 0015 00       		.byte	0x0
 733 0016 03       		.uleb128 0x3
 734 0017 08       		.uleb128 0x8
 735 0018 3A       		.uleb128 0x3a
 736 0019 0B       		.uleb128 0xb
 737 001a 3B       		.uleb128 0x3b
 738 001b 0B       		.uleb128 0xb
 739 001c 49       		.uleb128 0x49
 740 001d 13       		.uleb128 0x13
 741 001e 00       		.byte	0x0
 742 001f 00       		.byte	0x0
 743 0020 03       		.uleb128 0x3
 744 0021 24       		.uleb128 0x24
 745 0022 00       		.byte	0x0
 746 0023 03       		.uleb128 0x3
 747 0024 0E       		.uleb128 0xe
 748 0025 0B       		.uleb128 0xb
 749 0026 0B       		.uleb128 0xb
 750 0027 3E       		.uleb128 0x3e
 751 0028 0B       		.uleb128 0xb
 752 0029 00       		.byte	0x0
 753 002a 00       		.byte	0x0
 754 002b 04       		.uleb128 0x4
 755 002c 16       		.uleb128 0x16
 756 002d 00       		.byte	0x0
 757 002e 03       		.uleb128 0x3
 758 002f 0E       		.uleb128 0xe
 759 0030 3A       		.uleb128 0x3a
 760 0031 0B       		.uleb128 0xb
 761 0032 3B       		.uleb128 0x3b
 762 0033 0B       		.uleb128 0xb
 763 0034 49       		.uleb128 0x49
 764 0035 13       		.uleb128 0x13
 765 0036 00       		.byte	0x0
 766 0037 00       		.byte	0x0
 767 0038 05       		.uleb128 0x5
 768 0039 24       		.uleb128 0x24
 769 003a 00       		.byte	0x0
 770 003b 03       		.uleb128 0x3
 771 003c 08       		.uleb128 0x8
 772 003d 0B       		.uleb128 0xb
 773 003e 0B       		.uleb128 0xb
 774 003f 3E       		.uleb128 0x3e
 775 0040 0B       		.uleb128 0xb
 776 0041 00       		.byte	0x0
 777 0042 00       		.byte	0x0
 778 0043 06       		.uleb128 0x6
 779 0044 0F       		.uleb128 0xf
ARM GAS  /cygdrive/c/DOCUME~1/mkwapisz/LOCALS~1/Temp/cc90xA4J.s 			page 17


 780 0045 00       		.byte	0x0
 781 0046 0B       		.uleb128 0xb
 782 0047 0B       		.uleb128 0xb
 783 0048 00       		.byte	0x0
 784 0049 00       		.byte	0x0
 785 004a 07       		.uleb128 0x7
 786 004b 2E       		.uleb128 0x2e
 787 004c 01       		.byte	0x1
 788 004d 01       		.uleb128 0x1
 789 004e 13       		.uleb128 0x13
 790 004f 3F       		.uleb128 0x3f
 791 0050 0C       		.uleb128 0xc
 792 0051 03       		.uleb128 0x3
 793 0052 0E       		.uleb128 0xe
 794 0053 3A       		.uleb128 0x3a
 795 0054 0B       		.uleb128 0xb
 796 0055 3B       		.uleb128 0x3b
 797 0056 0B       		.uleb128 0xb
 798 0057 27       		.uleb128 0x27
 799 0058 0C       		.uleb128 0xc
 800 0059 11       		.uleb128 0x11
 801 005a 01       		.uleb128 0x1
 802 005b 12       		.uleb128 0x12
 803 005c 01       		.uleb128 0x1
 804 005d 40       		.uleb128 0x40
 805 005e 0A       		.uleb128 0xa
 806 005f 00       		.byte	0x0
 807 0060 00       		.byte	0x0
 808 0061 08       		.uleb128 0x8
 809 0062 05       		.uleb128 0x5
 810 0063 00       		.byte	0x0
 811 0064 03       		.uleb128 0x3
 812 0065 0E       		.uleb128 0xe
 813 0066 3A       		.uleb128 0x3a
 814 0067 0B       		.uleb128 0xb
 815 0068 3B       		.uleb128 0x3b
 816 0069 0B       		.uleb128 0xb
 817 006a 49       		.uleb128 0x49
 818 006b 13       		.uleb128 0x13
 819 006c 02       		.uleb128 0x2
 820 006d 0A       		.uleb128 0xa
 821 006e 00       		.byte	0x0
 822 006f 00       		.byte	0x0
 823 0070 09       		.uleb128 0x9
 824 0071 2E       		.uleb128 0x2e
 825 0072 01       		.byte	0x1
 826 0073 01       		.uleb128 0x1
 827 0074 13       		.uleb128 0x13
 828 0075 3F       		.uleb128 0x3f
 829 0076 0C       		.uleb128 0xc
 830 0077 03       		.uleb128 0x3
 831 0078 0E       		.uleb128 0xe
 832 0079 3A       		.uleb128 0x3a
 833 007a 0B       		.uleb128 0xb
 834 007b 3B       		.uleb128 0x3b
 835 007c 0B       		.uleb128 0xb
 836 007d 27       		.uleb128 0x27
ARM GAS  /cygdrive/c/DOCUME~1/mkwapisz/LOCALS~1/Temp/cc90xA4J.s 			page 18


 837 007e 0C       		.uleb128 0xc
 838 007f 49       		.uleb128 0x49
 839 0080 13       		.uleb128 0x13
 840 0081 11       		.uleb128 0x11
 841 0082 01       		.uleb128 0x1
 842 0083 12       		.uleb128 0x12
 843 0084 01       		.uleb128 0x1
 844 0085 40       		.uleb128 0x40
 845 0086 06       		.uleb128 0x6
 846 0087 00       		.byte	0x0
 847 0088 00       		.byte	0x0
 848 0089 0A       		.uleb128 0xa
 849 008a 34       		.uleb128 0x34
 850 008b 00       		.byte	0x0
 851 008c 03       		.uleb128 0x3
 852 008d 0E       		.uleb128 0xe
 853 008e 3A       		.uleb128 0x3a
 854 008f 0B       		.uleb128 0xb
 855 0090 3B       		.uleb128 0x3b
 856 0091 0B       		.uleb128 0xb
 857 0092 49       		.uleb128 0x49
 858 0093 13       		.uleb128 0x13
 859 0094 02       		.uleb128 0x2
 860 0095 0A       		.uleb128 0xa
 861 0096 00       		.byte	0x0
 862 0097 00       		.byte	0x0
 863 0098 0B       		.uleb128 0xb
 864 0099 34       		.uleb128 0x34
 865 009a 00       		.byte	0x0
 866 009b 03       		.uleb128 0x3
 867 009c 08       		.uleb128 0x8
 868 009d 3A       		.uleb128 0x3a
 869 009e 0B       		.uleb128 0xb
 870 009f 3B       		.uleb128 0x3b
 871 00a0 0B       		.uleb128 0xb
 872 00a1 49       		.uleb128 0x49
 873 00a2 13       		.uleb128 0x13
 874 00a3 02       		.uleb128 0x2
 875 00a4 0A       		.uleb128 0xa
 876 00a5 00       		.byte	0x0
 877 00a6 00       		.byte	0x0
 878 00a7 0C       		.uleb128 0xc
 879 00a8 2E       		.uleb128 0x2e
 880 00a9 01       		.byte	0x1
 881 00aa 01       		.uleb128 0x1
 882 00ab 13       		.uleb128 0x13
 883 00ac 03       		.uleb128 0x3
 884 00ad 0E       		.uleb128 0xe
 885 00ae 3A       		.uleb128 0x3a
 886 00af 0B       		.uleb128 0xb
 887 00b0 3B       		.uleb128 0x3b
 888 00b1 0B       		.uleb128 0xb
 889 00b2 27       		.uleb128 0x27
 890 00b3 0C       		.uleb128 0xc
 891 00b4 11       		.uleb128 0x11
 892 00b5 01       		.uleb128 0x1
 893 00b6 12       		.uleb128 0x12
ARM GAS  /cygdrive/c/DOCUME~1/mkwapisz/LOCALS~1/Temp/cc90xA4J.s 			page 19


 894 00b7 01       		.uleb128 0x1
 895 00b8 40       		.uleb128 0x40
 896 00b9 06       		.uleb128 0x6
 897 00ba 00       		.byte	0x0
 898 00bb 00       		.byte	0x0
 899 00bc 0D       		.uleb128 0xd
 900 00bd 05       		.uleb128 0x5
 901 00be 00       		.byte	0x0
 902 00bf 03       		.uleb128 0x3
 903 00c0 08       		.uleb128 0x8
 904 00c1 3A       		.uleb128 0x3a
 905 00c2 0B       		.uleb128 0xb
 906 00c3 3B       		.uleb128 0x3b
 907 00c4 0B       		.uleb128 0xb
 908 00c5 49       		.uleb128 0x49
 909 00c6 13       		.uleb128 0x13
 910 00c7 02       		.uleb128 0x2
 911 00c8 06       		.uleb128 0x6
 912 00c9 00       		.byte	0x0
 913 00ca 00       		.byte	0x0
 914 00cb 0E       		.uleb128 0xe
 915 00cc 01       		.uleb128 0x1
 916 00cd 01       		.byte	0x1
 917 00ce 01       		.uleb128 0x1
 918 00cf 13       		.uleb128 0x13
 919 00d0 49       		.uleb128 0x49
 920 00d1 13       		.uleb128 0x13
 921 00d2 00       		.byte	0x0
 922 00d3 00       		.byte	0x0
 923 00d4 0F       		.uleb128 0xf
 924 00d5 21       		.uleb128 0x21
 925 00d6 00       		.byte	0x0
 926 00d7 49       		.uleb128 0x49
 927 00d8 13       		.uleb128 0x13
 928 00d9 2F       		.uleb128 0x2f
 929 00da 05       		.uleb128 0x5
 930 00db 00       		.byte	0x0
 931 00dc 00       		.byte	0x0
 932 00dd 10       		.uleb128 0x10
 933 00de 34       		.uleb128 0x34
 934 00df 00       		.byte	0x0
 935 00e0 03       		.uleb128 0x3
 936 00e1 0E       		.uleb128 0xe
 937 00e2 3A       		.uleb128 0x3a
 938 00e3 0B       		.uleb128 0xb
 939 00e4 3B       		.uleb128 0x3b
 940 00e5 0B       		.uleb128 0xb
 941 00e6 49       		.uleb128 0x49
 942 00e7 13       		.uleb128 0x13
 943 00e8 1C       		.uleb128 0x1c
 944 00e9 0B       		.uleb128 0xb
 945 00ea 00       		.byte	0x0
 946 00eb 00       		.byte	0x0
 947 00ec 11       		.uleb128 0x11
 948 00ed 26       		.uleb128 0x26
 949 00ee 00       		.byte	0x0
 950 00ef 49       		.uleb128 0x49
ARM GAS  /cygdrive/c/DOCUME~1/mkwapisz/LOCALS~1/Temp/cc90xA4J.s 			page 20


 951 00f0 13       		.uleb128 0x13
 952 00f1 00       		.byte	0x0
 953 00f2 00       		.byte	0x0
 954 00f3 12       		.uleb128 0x12
 955 00f4 34       		.uleb128 0x34
 956 00f5 00       		.byte	0x0
 957 00f6 03       		.uleb128 0x3
 958 00f7 0E       		.uleb128 0xe
 959 00f8 3A       		.uleb128 0x3a
 960 00f9 0B       		.uleb128 0xb
 961 00fa 3B       		.uleb128 0x3b
 962 00fb 0B       		.uleb128 0xb
 963 00fc 49       		.uleb128 0x49
 964 00fd 13       		.uleb128 0x13
 965 00fe 3F       		.uleb128 0x3f
 966 00ff 0C       		.uleb128 0xc
 967 0100 02       		.uleb128 0x2
 968 0101 0A       		.uleb128 0xa
 969 0102 00       		.byte	0x0
 970 0103 00       		.byte	0x0
 971 0104 13       		.uleb128 0x13
 972 0105 34       		.uleb128 0x34
 973 0106 00       		.byte	0x0
 974 0107 03       		.uleb128 0x3
 975 0108 08       		.uleb128 0x8
 976 0109 3A       		.uleb128 0x3a
 977 010a 0B       		.uleb128 0xb
 978 010b 3B       		.uleb128 0x3b
 979 010c 0B       		.uleb128 0xb
 980 010d 49       		.uleb128 0x49
 981 010e 13       		.uleb128 0x13
 982 010f 3F       		.uleb128 0x3f
 983 0110 0C       		.uleb128 0xc
 984 0111 02       		.uleb128 0x2
 985 0112 0A       		.uleb128 0xa
 986 0113 00       		.byte	0x0
 987 0114 00       		.byte	0x0
 988 0115 14       		.uleb128 0x14
 989 0116 35       		.uleb128 0x35
 990 0117 00       		.byte	0x0
 991 0118 49       		.uleb128 0x49
 992 0119 13       		.uleb128 0x13
 993 011a 00       		.byte	0x0
 994 011b 00       		.byte	0x0
 995 011c 00       		.byte	0x0
 996              		.section	.debug_pubnames,"",%progbits
 997 0000 38000000 		.4byte	0x38
 998 0004 0200     		.2byte	0x2
 999 0006 00000000 		.4byte	.Ldebug_info0
 1000 000a 32020000 		.4byte	0x232
 1001 000e 9C000000 		.4byte	0x9c
 1002 0012 61707054 		.ascii	"appTick\000"
 1002      69636B00 
 1003 001a C1000000 		.4byte	0xc1
 1004 001e 6D61696E 		.ascii	"main\000"
 1004      00
 1005 0023 09020000 		.4byte	0x209
ARM GAS  /cygdrive/c/DOCUME~1/mkwapisz/LOCALS~1/Temp/cc90xA4J.s 			page 21


 1006 0027 68696768 		.ascii	"highScore\000"
 1006      53636F72 
 1006      6500
 1007 0031 1B020000 		.4byte	0x21b
 1008 0035 6D7300   		.ascii	"ms\000"
 1009 0038 00000000 		.4byte	0x0
 1010              		.section	.debug_aranges,"",%progbits
 1011 0000 1C000000 		.4byte	0x1c
 1012 0004 0200     		.2byte	0x2
 1013 0006 00000000 		.4byte	.Ldebug_info0
 1014 000a 04       		.byte	0x4
 1015 000b 00       		.byte	0x0
 1016 000c 0000     		.2byte	0x0
 1017 000e 0000     		.2byte	0x0
 1018 0010 00000000 		.4byte	.Ltext0
 1019 0014 28010000 		.4byte	.Letext0-.Ltext0
 1020 0018 00000000 		.4byte	0x0
 1021 001c 00000000 		.4byte	0x0
 1022              		.section	.debug_str,"MS",%progbits,1
 1023              	.LASF5:
 1024 0000 73686F72 		.ascii	"short int\000"
 1024      7420696E 
 1024      7400
 1025              	.LASF17:
 1026 000a 6C656473 		.ascii	"leds\000"
 1026      00
 1027              	.LASF13:
 1028 000f 6D61696E 		.ascii	"main\000"
 1028      00
 1029              	.LASF2:
 1030 0014 74553332 		.ascii	"tU32\000"
 1030      00
 1031              	.LASF19:
 1032 0019 67616D65 		.ascii	"gameProcessStack\000"
 1032      50726F63 
 1032      65737353 
 1032      7461636B 
 1032      00
 1033              	.LASF26:
 1034 002a 474E5520 		.ascii	"GNU C 4.1.1\000"
 1034      4320342E 
 1034      312E3100 
 1035              	.LASF9:
 1036 0036 6C6F6E67 		.ascii	"long long int\000"
 1036      206C6F6E 
 1036      6720696E 
 1036      7400
 1037              	.LASF7:
 1038 0044 6C6F6E67 		.ascii	"long int\000"
 1038      20696E74 
 1038      00
 1039              	.LASF12:
 1040 004d 61707054 		.ascii	"appTick\000"
 1040      69636B00 
 1041              	.LASF22:
 1042 0055 70696431 		.ascii	"pid1\000"
 1042      00
ARM GAS  /cygdrive/c/DOCUME~1/mkwapisz/LOCALS~1/Temp/cc90xA4J.s 			page 22


 1043              	.LASF23:
 1044 005a 70696432 		.ascii	"pid2\000"
 1044      00
 1045              	.LASF6:
 1046 005f 74533332 		.ascii	"tS32\000"
 1046      00
 1047              	.LASF24:
 1048 0064 636F6E74 		.ascii	"contrast\000"
 1048      72617374 
 1048      00
 1049              	.LASF0:
 1050 006d 756E7369 		.ascii	"unsigned char\000"
 1050      676E6564 
 1050      20636861 
 1050      7200
 1051              	.LASF4:
 1052 007b 7369676E 		.ascii	"signed char\000"
 1052      65642063 
 1052      68617200 
 1053              	.LASF10:
 1054 0087 6C6F6E67 		.ascii	"long long unsigned int\000"
 1054      206C6F6E 
 1054      6720756E 
 1054      7369676E 
 1054      65642069 
 1055              	.LASF3:
 1056 009e 756E7369 		.ascii	"unsigned int\000"
 1056      676E6564 
 1056      20696E74 
 1056      00
 1057              	.LASF1:
 1058 00ab 73686F72 		.ascii	"short unsigned int\000"
 1058      7420756E 
 1058      7369676E 
 1058      65642069 
 1058      6E7400
 1059              	.LASF11:
 1060 00be 63686172 		.ascii	"char\000"
 1060      00
 1061              	.LASF21:
 1062 00c3 746B536E 		.ascii	"tkSnakeStack\000"
 1062      616B6553 
 1062      7461636B 
 1062      00
 1063              	.LASF15:
 1064 00d0 656C6170 		.ascii	"elapsedTime\000"
 1064      73656454 
 1064      696D6500 
 1065              	.LASF27:
 1066 00dc 6D61696E 		.ascii	"main.c\000"
 1066      2E6300
 1067              	.LASF8:
 1068 00e3 6C6F6E67 		.ascii	"long unsigned int\000"
 1068      20756E73 
 1068      69676E65 
 1068      6420696E 
 1068      7400
ARM GAS  /cygdrive/c/DOCUME~1/mkwapisz/LOCALS~1/Temp/cc90xA4J.s 			page 23


 1069              	.LASF16:
 1070 00f5 696E6974 		.ascii	"initializeTKSnake\000"
 1070      69616C69 
 1070      7A65544B 
 1070      536E616B 
 1070      6500
 1071              	.LASF14:
 1072 0107 6572726F 		.ascii	"error\000"
 1072      7200
 1073              	.LASF20:
 1074 010d 6C656473 		.ascii	"ledsStack\000"
 1074      53746163 
 1074      6B00
 1075              	.LASF28:
 1076 0117 2F637967 		.ascii	"/cygdrive/z/IntergatedSystems\000"
 1076      64726976 
 1076      652F7A2F 
 1076      496E7465 
 1076      72676174 
 1077              	.LASF25:
 1078 0135 68696768 		.ascii	"highScore\000"
 1078      53636F72 
 1078      6500
 1079              	.LASF18:
 1080 013f 696E6974 		.ascii	"initializeGameProcess\000"
 1080      69616C69 
 1080      7A654761 
 1080      6D655072 
 1080      6F636573 
 1081              		.ident	"GCC: (GNU) 4.1.1"
ARM GAS  /cygdrive/c/DOCUME~1/mkwapisz/LOCALS~1/Temp/cc90xA4J.s 			page 24


DEFINED SYMBOLS
                            *ABS*:00000000 main.c
/cygdrive/c/DOCUME~1/mkwapisz/LOCALS~1/Temp/cc90xA4J.s:1      .text:00000000 $t
/cygdrive/c/DOCUME~1/mkwapisz/LOCALS~1/Temp/cc90xA4J.s:16     .text:00000000 appTick
/cygdrive/c/DOCUME~1/mkwapisz/LOCALS~1/Temp/cc90xA4J.s:35     .text:0000000c $d
                            *COM*:00000004 ms
/cygdrive/c/DOCUME~1/mkwapisz/LOCALS~1/Temp/cc90xA4J.s:43     .text:00000010 main
/cygdrive/c/DOCUME~1/mkwapisz/LOCALS~1/Temp/cc90xA4J.s:40     .text:00000010 $t
/cygdrive/c/DOCUME~1/mkwapisz/LOCALS~1/Temp/cc90xA4J.s:85     .text:00000050 $d
/cygdrive/c/DOCUME~1/mkwapisz/LOCALS~1/Temp/cc90xA4J.s:93     .text:00000058 initializeTKSnake
/cygdrive/c/DOCUME~1/mkwapisz/LOCALS~1/Temp/cc90xA4J.s:243    .bss:000005dc tkSnakeStack
/cygdrive/c/DOCUME~1/mkwapisz/LOCALS~1/Temp/cc90xA4J.s:90     .text:00000058 $t
/cygdrive/c/DOCUME~1/mkwapisz/LOCALS~1/Temp/cc90xA4J.s:152    .text:000000b4 $d
/cygdrive/c/DOCUME~1/mkwapisz/LOCALS~1/Temp/cc90xA4J.s:245    .bss:0000076c pid1
/cygdrive/c/DOCUME~1/mkwapisz/LOCALS~1/Temp/cc90xA4J.s:182    .text:000000d8 initializeGameProcess
/cygdrive/c/DOCUME~1/mkwapisz/LOCALS~1/Temp/cc90xA4J.s:239    .bss:00000000 gameProcessStack
/cygdrive/c/DOCUME~1/mkwapisz/LOCALS~1/Temp/cc90xA4J.s:247    .bss:0000076d pid2
/cygdrive/c/DOCUME~1/mkwapisz/LOCALS~1/Temp/cc90xA4J.s:165    .text:000000d0 leds
/cygdrive/c/DOCUME~1/mkwapisz/LOCALS~1/Temp/cc90xA4J.s:241    .bss:000002ee ledsStack
/cygdrive/c/DOCUME~1/mkwapisz/LOCALS~1/Temp/cc90xA4J.s:162    .text:000000d0 $t
/cygdrive/c/DOCUME~1/mkwapisz/LOCALS~1/Temp/cc90xA4J.s:233    .text:0000011c $d
                            *COM*:00000004 highScore

UNDEFINED SYMBOLS
osInit
osCreateProcess
osStartProcess
osStart
eaInit
i2cInit
osDeleteProcess
lightLedPatternOne
lcdInit
initKeyProc
lcdContrast
initSecondLCD
initDac
getLastHScore
playSnake
