ARM GAS  /cygdrive/c/DOCUME~1/mkwapisz/LOCALS~1/Temp/ccw8ZsiV.s 			page 1


   1              		.code	16
   2              		.file	"snake.c"
   3              		.section	.debug_abbrev,"",%progbits
   4              	.Ldebug_abbrev0:
   5              		.section	.debug_info,"",%progbits
   6              	.Ldebug_info0:
   7              		.section	.debug_line,"",%progbits
   8              	.Ldebug_line0:
   9 0000 38010000 		.text
   9      02008800 
   9      00000201 
   9      FB0E0D00 
   9      01010101 
  10              	.Ltext0:
  11              		.align	2
  12              		.code 16
  13              		.thumb_func
  14              		.type	addSegment, %function
  15              	addSegment:
  16              	.LFB4:
  17              		.file 1 "snake.c"
   1:snake.c       **** 
   2:snake.c       **** #include "../pre_emptive_os/api/osapi.h"
   3:snake.c       **** #include "../pre_emptive_os/api/general.h"
   4:snake.c       **** #include <printf_P.h>
   5:snake.c       **** #include <ea_init.h>
   6:snake.c       **** #include <stdlib.h>
   7:snake.c       **** #include "lcd/lcd.h"
   8:snake.c       **** #include "joystick/joystick.h"
   9:snake.c       **** #include "select.h"
  10:snake.c       **** #include "motor/motor.h"
  11:snake.c       **** #include "secondLCD/secondLCD.h"
  12:snake.c       **** #include "speaker/speaker.h"
  13:snake.c       **** #include "hscore/hscore.h"
  14:snake.c       **** 
  15:snake.c       **** #define MAXROW 27
  16:snake.c       **** #define MAXCOL 31
  17:snake.c       **** 
  18:snake.c       **** #define SNAKE_START_COL 15
  19:snake.c       **** #define SNAKE_START_ROW  7
  20:snake.c       **** #define PAUSE_LENGTH     2
  21:snake.c       **** 
  22:snake.c       **** static void showScore();
  23:snake.c       **** static void addSegment();
  24:snake.c       **** static void setupLevel();
  25:snake.c       **** static void gotoxy(tU8 x, tU8 y, tU8 color);
  26:snake.c       **** 
  27:snake.c       **** static volatile tS32 score;
  28:snake.c       **** static tS32 snakeLength;
  29:snake.c       **** static tS32 speed;
  30:snake.c       **** static tS32 obstacles;
  31:snake.c       **** static tS32 level;
  32:snake.c       **** static tBool firstPress;
  33:snake.c       **** static tS32 high_score = 0;
  34:snake.c       **** static tS8 screenGrid[MAXROW][MAXCOL];
  35:snake.c       **** static tS8 direction = KEY_RIGHT;
  36:snake.c       **** 
ARM GAS  /cygdrive/c/DOCUME~1/mkwapisz/LOCALS~1/Temp/ccw8ZsiV.s 			page 2


  37:snake.c       **** struct snakeSegment {
  38:snake.c       **** 	tS32 row;
  39:snake.c       **** 	tS32 col;
  40:snake.c       **** } snake[100];
  41:snake.c       **** 
  42:snake.c       **** extern volatile tU32 ms;
  43:snake.c       **** 
  44:snake.c       **** /**
  45:snake.c       ****   Implement Snake game
  46:snake.c       **** */
  47:snake.c       **** void playSnake(void) {
  48:snake.c       **** 	tU8 keypress;
  49:snake.c       **** 	tU8 done = FALSE;
  50:snake.c       **** 
  51:snake.c       **** 	//game loop
  52:snake.c       **** 	do {
  53:snake.c       **** 		obstacles = 4;
  54:snake.c       **** 		level = 1;
  55:snake.c       **** 		score = 0;
  56:snake.c       **** 		speed = 14;
  57:snake.c       **** 		srand(ms); //Ensure random seed initiated
  58:snake.c       **** 		setupLevel();
  59:snake.c       **** 		//main loop
  60:snake.c       **** 		do {
  61:snake.c       **** 			tS32 i;
  62:snake.c       **** 			displayScoreAndTime(score);
  63:snake.c       **** 			//delay between snake moves
  64:snake.c       **** 			osSleep(speed * PAUSE_LENGTH);
  65:snake.c       **** 
  66:snake.c       **** 			//check if key press
  67:snake.c       **** 			keypress = getPressedKey();
  68:snake.c       **** 			if (keypress != KEY_NOTHING) {
  69:snake.c       **** 				if (keypress != KEY_CENTER)
  70:snake.c       **** 					direction = keypress;
  71:snake.c       **** 			}
  72:snake.c       **** 
  73:snake.c       **** 			//add a segment to the end of the snake
  74:snake.c       **** 			addSegment();
  75:snake.c       **** 
  76:snake.c       **** 			//removed last segment of snake
  77:snake.c       **** 			gotoxy(snake[0].col, snake[0].row, 0);
  78:snake.c       **** 
  79:snake.c       **** 			//remove last segment from the array
  80:snake.c       **** 			for (i = 1; i <= snakeLength; i++)
  81:snake.c       **** 				snake[i - 1] = snake[i];
  82:snake.c       **** 
  83:snake.c       **** 			//display snake in yellow
  84:snake.c       **** 			for (i = 0; i <= snakeLength; i++)
  85:snake.c       **** 				gotoxy(snake[i].col, snake[i].row, 0xfc);
  86:snake.c       **** 
  87:snake.c       **** 			//if first press on each level, pause until a key is pressed
  88:snake.c       **** 			if (firstPress == TRUE) {
  89:snake.c       **** 				while (KEY_NOTHING == getPressedKey())
  90:snake.c       **** 					;
  91:snake.c       **** 				firstPress = FALSE;
  92:snake.c       **** 			}
  93:snake.c       **** 
ARM GAS  /cygdrive/c/DOCUME~1/mkwapisz/LOCALS~1/Temp/ccw8ZsiV.s 			page 3


  94:snake.c       **** 			/* collision detection - walls (bad!) */
  95:snake.c       **** 			if ((snake[snakeLength - 1].row >= MAXROW)
  96:snake.c       **** 					|| (snake[snakeLength - 1].row < 0)
  97:snake.c       **** 					|| (snake[snakeLength - 1].col >= MAXCOL)
  98:snake.c       **** 					|| (snake[snakeLength - 1].col < 0)
  99:snake.c       **** 					||
 100:snake.c       **** 
 101:snake.c       **** 					/* collision detection - obstacles (bad!) */
 102:snake.c       **** 					(screenGrid[snake[snakeLength - 1].row][snake[snakeLength
 103:snake.c       **** 							- 1].col] == 'x'))
 104:snake.c       **** 				keypress = KEY_CENTER;
 105:snake.c       **** 
 106:snake.c       **** 			//collision detection - snake (bad!)
 107:snake.c       **** 			for (i = 0; i < snakeLength - 1; i++)
 108:snake.c       **** 				if ((snake[snakeLength - 1].row) == (snake[i].row)
 109:snake.c       **** 						&& (snake[snakeLength - 1].col) == (snake[i].col)) {
 110:snake.c       **** 					keypress = KEY_CENTER; //exit loop - game over
 111:snake.c       **** 					break;
 112:snake.c       **** 				}
 113:snake.c       **** 
 114:snake.c       **** 			//collision detection - food (good!)
 115:snake.c       **** 			if (screenGrid[snake[snakeLength - 1].row][snake[snakeLength - 1].col]
 116:snake.c       **** 					== '.') {
 117:snake.c       **** 				//increase score and length of snake
 118:snake.c       **** 				score += snakeLength * obstacles;
 119:snake.c       **** 				snakeLength++;
 120:snake.c       **** 				addSegment();
 121:snake.c       **** 
 122:snake.c       **** 				//if length of snake reaches certain size, onto next level
 123:snake.c       **** 				if (snakeLength == (level + 3) * 2) {
 124:snake.c       **** 					score += level * 1000;
 125:snake.c       **** 					obstacles += 2; //add obstacles
 126:snake.c       **** 					level++;
 127:snake.c       **** 
 128:snake.c       **** 					//check if time to inclrease speed (every 5 levels)
 129:snake.c       **** 					if ((level % 5 == 0) && (speed > 1))
 130:snake.c       **** 						speed--;
 131:snake.c       **** 
 132:snake.c       **** 					//draw next level
 133:snake.c       **** 					setupLevel();
 134:snake.c       **** 				}
 135:snake.c       **** 			}
 136:snake.c       **** 
 137:snake.c       **** 		} while (keypress != KEY_CENTER);
 138:snake.c       **** 
 139:snake.c       **** 		//game over message
 140:snake.c       **** 		if (score > high_score) {
 141:snake.c       **** 			high_score = score;
 142:snake.c       **** 			highScore = high_score;
 143:snake.c       **** 			procMotor();
 144:snake.c       **** 
 145:snake.c       **** 		} else
 146:snake.c       **** 			playBuu();
 147:snake.c       **** 		//osSleep(400);
 148:snake.c       **** 		tMenu menu;
 149:snake.c       **** 		menu.xPos = 10;
 150:snake.c       **** 		menu.yPos = 40;
ARM GAS  /cygdrive/c/DOCUME~1/mkwapisz/LOCALS~1/Temp/ccw8ZsiV.s 			page 4


 151:snake.c       **** 		menu.xLen = 6 + (12 * 8);
 152:snake.c       **** 		menu.yLen = 4 * 14;
 153:snake.c       **** 		menu.noOfChoices = 1;
 154:snake.c       **** 		menu.initialChoice = 0;
 155:snake.c       **** 		menu.pHeaderText = "Game over!";
 156:snake.c       **** 		menu.headerTextXpos = 20;
 157:snake.c       **** 		menu.pChoice[0] = "Restart game";
 158:snake.c       **** 		menu.bgColor = 0;
 159:snake.c       **** 		menu.borderColor = 0x6d;
 160:snake.c       **** 		menu.headerColor = 0;
 161:snake.c       **** 		menu.choicesColor = 0xfd;
 162:snake.c       **** 		menu.selectedColor = 0xe0;
 163:snake.c       **** 
 164:snake.c       **** 		switch (drawMenu(menu)) {
 165:snake.c       **** 		case 0:
 166:snake.c       **** 			done = FALSE;
 167:snake.c       **** 			break; //Restart game
 168:snake.c       **** 		case 1:
 169:snake.c       **** 			done = TRUE;
 170:snake.c       **** 			break; //End game
 171:snake.c       **** 		default:
 172:snake.c       **** 			break;
 173:snake.c       **** 		}
 174:snake.c       **** 
 175:snake.c       **** 	} while (done == FALSE);
 176:snake.c       **** }
 177:snake.c       **** 
 178:snake.c       **** /**
 179:snake.c       ****      Initialize one level of the game. Draw game board.
 180:snake.c       ****  */
 181:snake.c       **** void setupLevel() {
 182:snake.c       **** 	tS32 row, col, i;
 183:snake.c       **** 
 184:snake.c       **** 	//clear screen
 185:snake.c       **** 	lcdColor(0, 0xe0);
 186:snake.c       **** 	lcdClrscr();
 187:snake.c       **** 
 188:snake.c       **** 	//draw frame
 189:snake.c       **** 	lcdGotoxy(42, 0);
 190:snake.c       **** 	lcdPuts("Snake");
 191:snake.c       **** 
 192:snake.c       **** 	//draw game board rectangle
 193:snake.c       **** 	lcdRect(0, 14, (4 * MAXCOL) + 4, (4 * MAXROW) + 4, 3);
 194:snake.c       **** 	lcdRect(2, 16, 4 * MAXCOL, 4 * MAXROW, 1);
 195:snake.c       **** 
 196:snake.c       **** 	//set up global variables for new level
 197:snake.c       **** 	snakeLength = level + 4;
 198:snake.c       **** 	direction = KEY_RIGHT;
 199:snake.c       **** 	firstPress = TRUE;
 200:snake.c       **** 
 201:snake.c       **** 	//fill grid with blanks
 202:snake.c       **** 	for (row = 0; row < MAXROW; row++)
 203:snake.c       **** 		for (col = 0; col < MAXCOL; col++)
 204:snake.c       **** 			screenGrid[row][col] = ' ';
 205:snake.c       **** 
 206:snake.c       **** 	//fill grid with Xs and food
 207:snake.c       **** 	for (i = 0; i < obstacles * 2; i++) {
ARM GAS  /cygdrive/c/DOCUME~1/mkwapisz/LOCALS~1/Temp/ccw8ZsiV.s 			page 5


 208:snake.c       **** 		row = rand() % MAXROW;
 209:snake.c       **** 		col = rand() % MAXCOL;
 210:snake.c       **** 		if (i < obstacles)
 211:snake.c       **** 			screenGrid[row][col] = 'x'; //= obstacle
 212:snake.c       **** 		else
 213:snake.c       **** 			screenGrid[row][col] = '.'; //= food
 214:snake.c       **** 	}
 215:snake.c       **** 
 216:snake.c       **** 	//create snake array of length snakeLength
 217:snake.c       **** 	for (i = 0; i < snakeLength; i++) {
 218:snake.c       **** 		snake[i].row = SNAKE_START_ROW;
 219:snake.c       **** 		snake[i].col = SNAKE_START_COL + i;
 220:snake.c       **** 	}
 221:snake.c       **** 
 222:snake.c       **** 	//draw game board
 223:snake.c       **** 	for (row = 0; row < MAXROW; row++) {
 224:snake.c       **** 		for (col = 0; col < MAXCOL; col++) {
 225:snake.c       **** 			switch (screenGrid[row][col]) {
 226:snake.c       **** 			case ' ':
 227:snake.c       **** 				gotoxy(col, row, 0);
 228:snake.c       **** 				break;
 229:snake.c       **** 			case '.':
 230:snake.c       **** 				gotoxy(col, row, 0x1c);
 231:snake.c       **** 				break;
 232:snake.c       **** 			case 'x':
 233:snake.c       **** 				gotoxy(col, row, 0xe0);
 234:snake.c       **** 				break;
 235:snake.c       **** 			default:
 236:snake.c       **** 				break;
 237:snake.c       **** 			}
 238:snake.c       **** 		}
 239:snake.c       **** 	}
 240:snake.c       **** }
 241:snake.c       **** 
 242:snake.c       **** /**
 243:snake.c       ****    Add one snake segment
 244:snake.c       **** */
 245:snake.c       **** void addSegment() {
  18              		.loc 1 245 0
 246:snake.c       **** 	switch (direction) {
  19              		.loc 1 246 0
  20 0000 204B     		ldr	r3, .L11
  21 0002 1B78     		ldrb	r3, [r3]
  22 0004 1B06     		lsl	r3, r3, #24
  23 0006 1B16     		asr	r3, r3, #24
  24              		.loc 1 245 0
  25              		@ lr needed for prologue
  26              		.loc 1 246 0
  27 0008 022B     		cmp	r3, #2
  28 000a 09D0     		beq	.L4
  29 000c 022B     		cmp	r3, #2
  30 000e 02DC     		bgt	.L7
  31 0010 012B     		cmp	r3, #1
  32 0012 35D1     		bne	.L8
  33 0014 1EE0     		b	.L3
  34              	.L7:
  35 0016 042B     		cmp	r3, #4
ARM GAS  /cygdrive/c/DOCUME~1/mkwapisz/LOCALS~1/Temp/ccw8ZsiV.s 			page 6


  36 0018 25D0     		beq	.L5
  37 001a 082B     		cmp	r3, #8
  38 001c 30D1     		bne	.L8
  39 001e 0CE0     		b	.L6
  40              	.L4:
 247:snake.c       **** 	case (KEY_RIGHT):
 248:snake.c       **** 		snake[snakeLength].row = snake[snakeLength - 1].row;
  41              		.loc 1 248 0
  42 0020 194B     		ldr	r3, .L11+4
  43 0022 1A68     		ldr	r2, [r3]
  44 0024 1948     		ldr	r0, .L11+8
  45 0026 511E     		sub	r1, r2, #1
  46 0028 C900     		lsl	r1, r1, #3
  47 002a 0B58     		ldr	r3, [r1, r0]
  48 002c D200     		lsl	r2, r2, #3
 249:snake.c       **** 		snake[snakeLength].col = snake[snakeLength - 1].col + 1;
  49              		.loc 1 249 0
  50 002e 0918     		add	r1, r1, r0
  51              		.loc 1 248 0
  52 0030 1350     		str	r3, [r2, r0]
  53              		.loc 1 249 0
  54 0032 4B68     		ldr	r3, [r1, #4]
  55 0034 1218     		add	r2, r2, r0
  56 0036 0133     		add	r3, r3, #1
  57 0038 21E0     		b	.L9
  58              	.L6:
 250:snake.c       **** 		break;
 251:snake.c       **** 	case (KEY_LEFT):
 252:snake.c       **** 		snake[snakeLength].row = snake[snakeLength - 1].row;
  59              		.loc 1 252 0
  60 003a 134B     		ldr	r3, .L11+4
  61 003c 1A68     		ldr	r2, [r3]
  62 003e 1348     		ldr	r0, .L11+8
  63 0040 511E     		sub	r1, r2, #1
  64 0042 C900     		lsl	r1, r1, #3
  65 0044 0B58     		ldr	r3, [r1, r0]
  66 0046 D200     		lsl	r2, r2, #3
 253:snake.c       **** 		snake[snakeLength].col = snake[snakeLength - 1].col - 1;
  67              		.loc 1 253 0
  68 0048 0918     		add	r1, r1, r0
  69              		.loc 1 252 0
  70 004a 1350     		str	r3, [r2, r0]
  71              		.loc 1 253 0
  72 004c 4B68     		ldr	r3, [r1, #4]
  73 004e 1218     		add	r2, r2, r0
  74 0050 013B     		sub	r3, r3, #1
  75 0052 14E0     		b	.L9
  76              	.L3:
 254:snake.c       **** 		break;
 255:snake.c       **** 	case (KEY_UP):
 256:snake.c       **** 		snake[snakeLength].row = snake[snakeLength - 1].row - 1;
  77              		.loc 1 256 0
  78 0054 0C4B     		ldr	r3, .L11+4
  79 0056 1A68     		ldr	r2, [r3]
  80 0058 0C48     		ldr	r0, .L11+8
  81 005a 511E     		sub	r1, r2, #1
  82 005c C900     		lsl	r1, r1, #3
ARM GAS  /cygdrive/c/DOCUME~1/mkwapisz/LOCALS~1/Temp/ccw8ZsiV.s 			page 7


  83 005e 0B58     		ldr	r3, [r1, r0]
  84 0060 D200     		lsl	r2, r2, #3
  85 0062 013B     		sub	r3, r3, #1
  86 0064 07E0     		b	.L10
  87              	.L5:
 257:snake.c       **** 		snake[snakeLength].col = snake[snakeLength - 1].col;
 258:snake.c       **** 		break;
 259:snake.c       **** 	case (KEY_DOWN):
 260:snake.c       **** 		snake[snakeLength].row = snake[snakeLength - 1].row + 1;
  88              		.loc 1 260 0
  89 0066 084B     		ldr	r3, .L11+4
  90 0068 1A68     		ldr	r2, [r3]
  91 006a 0848     		ldr	r0, .L11+8
  92 006c 511E     		sub	r1, r2, #1
  93 006e C900     		lsl	r1, r1, #3
  94 0070 0B58     		ldr	r3, [r1, r0]
  95 0072 D200     		lsl	r2, r2, #3
  96 0074 0133     		add	r3, r3, #1
  97              	.L10:
 261:snake.c       **** 		snake[snakeLength].col = snake[snakeLength - 1].col;
  98              		.loc 1 261 0
  99 0076 0918     		add	r1, r1, r0
 100              		.loc 1 260 0
 101 0078 1350     		str	r3, [r2, r0]
 102              		.loc 1 261 0
 103 007a 4B68     		ldr	r3, [r1, #4]
 104 007c 1218     		add	r2, r2, r0
 105              	.L9:
 106 007e 5360     		str	r3, [r2, #4]
 107              	.L8:
 262:snake.c       **** 	}
 263:snake.c       **** }
 108              		.loc 1 263 0
 109              		@ sp needed for prologue
 110 0080 7047     		bx	lr
 111              	.L12:
 112 0082 0000     		.align	2
 113              	.L11:
 114 0084 00000000 		.word	direction
 115 0088 08000000 		.word	snakeLength
 116 008c 00000000 		.word	snake
 117              	.LFE4:
 118              		.size	addSegment, .-addSegment
 119              		.align	2
 120              		.code 16
 121              		.thumb_func
 122              		.type	gotoxy, %function
 123              	gotoxy:
 124              	.LFB5:
 264:snake.c       **** 
 265:snake.c       **** /**
 266:snake.c       ****     Goto a specifc xy position and draw a 4x4 pixel rectangle in
 267:snake.c       ****     specified color
 268:snake.c       **** */
 269:snake.c       **** void gotoxy(tU8 x, tU8 y, tU8 color) {
 125              		.loc 1 269 0
 126 0090 00B5     		push	{lr}
ARM GAS  /cygdrive/c/DOCUME~1/mkwapisz/LOCALS~1/Temp/ccw8ZsiV.s 			page 8


 127              	.LCFI0:
 128              	.LVL0:
 270:snake.c       **** 	lcdRect(2 + (x * 4), 16 + (y * 4), 4, 4, color);
 129              		.loc 1 270 0
 130 0092 8023     		mov	r3, #128
 131 0094 9B04     		lsl	r3, r3, #18
 132 0096 8006     		lsl	r0, r0, #26
 133              	.LVL1:
 134 0098 C018     		add	r0, r0, r3
 135 009a 8023     		mov	r3, #128
 136 009c 5B05     		lsl	r3, r3, #21
 137              		.loc 1 269 0
 138 009e 1206     		lsl	r2, r2, #24
 139              	.LVL2:
 140              		.loc 1 270 0
 141 00a0 8906     		lsl	r1, r1, #26
 142              	.LVL3:
 143              		.loc 1 269 0
 144 00a2 81B0     		sub	sp, sp, #4
 145              	.LCFI1:
 146              		.loc 1 269 0
 147 00a4 120E     		lsr	r2, r2, #24
 148              	.LVL4:
 149              		.loc 1 270 0
 150 00a6 C918     		add	r1, r1, r3
 151 00a8 0092     		str	r2, [sp]
 152 00aa 000E     		lsr	r0, r0, #24
 153 00ac 090E     		lsr	r1, r1, #24
 154 00ae 0422     		mov	r2, #4
 155              	.LVL5:
 156 00b0 0423     		mov	r3, #4
 157 00b2 FFF7FEFF 		bl	lcdRect
 271:snake.c       **** }
 158              		.loc 1 271 0
 159 00b6 01B0     		add	sp, sp, #4
 160              		@ sp needed for prologue
 161 00b8 01BC     		pop	{r0}
 162 00ba 0047     		bx	r0
 163              	.LFE5:
 164              		.size	gotoxy, .-gotoxy
 165              		.section	.rodata.str1.4,"aMS",%progbits,1
 166              		.align	2
 167              	.LC4:
 168 0000 536E616B 		.ascii	"Snake\000"
 168      6500
 169              		.global	__modsi3
 170              		.text
 171              		.align	2
 172              		.code 16
 173              		.thumb_func
 174              		.type	setupLevel, %function
 175              	setupLevel:
 176              	.LFB3:
 177              		.loc 1 181 0
 178 00bc 70B5     		push	{r4, r5, r6, lr}
 179              	.LCFI2:
 180 00be 81B0     		sub	sp, sp, #4
ARM GAS  /cygdrive/c/DOCUME~1/mkwapisz/LOCALS~1/Temp/ccw8ZsiV.s 			page 9


 181              	.LCFI3:
 182              		.loc 1 185 0
 183 00c0 0020     		mov	r0, #0
 184 00c2 E021     		mov	r1, #224
 185 00c4 FFF7FEFF 		bl	lcdColor
 186              		.loc 1 186 0
 187 00c8 FFF7FEFF 		bl	lcdClrscr
 188              		.loc 1 189 0
 189 00cc 0021     		mov	r1, #0
 190 00ce 2A20     		mov	r0, #42
 191 00d0 FFF7FEFF 		bl	lcdGotoxy
 192              		.loc 1 190 0
 193 00d4 4348     		ldr	r0, .L49
 194 00d6 FFF7FEFF 		bl	lcdPuts
 195              		.loc 1 193 0
 196 00da 0323     		mov	r3, #3
 197 00dc 0093     		str	r3, [sp]
 198 00de 0020     		mov	r0, #0
 199 00e0 0E21     		mov	r1, #14
 200 00e2 8022     		mov	r2, #128
 201 00e4 7023     		mov	r3, #112
 202 00e6 FFF7FEFF 		bl	lcdRect
 203              		.loc 1 194 0
 204 00ea 0124     		mov	r4, #1
 205 00ec 0220     		mov	r0, #2
 206 00ee 7C22     		mov	r2, #124
 207 00f0 6C23     		mov	r3, #108
 208 00f2 1021     		mov	r1, #16
 209 00f4 0094     		str	r4, [sp]
 210 00f6 FFF7FEFF 		bl	lcdRect
 211              		.loc 1 197 0
 212 00fa 3B4B     		ldr	r3, .L49+4
 213 00fc 1B68     		ldr	r3, [r3]
 214 00fe 3B4A     		ldr	r2, .L49+8
 215 0100 0433     		add	r3, r3, #4
 216 0102 1360     		str	r3, [r2]
 217              		.loc 1 198 0
 218 0104 3A4A     		ldr	r2, .L49+12
 219 0106 0223     		mov	r3, #2
 220 0108 1370     		strb	r3, [r2]
 221              		.loc 1 199 0
 222 010a 3A4B     		ldr	r3, .L49+16
 223 010c 0020     		mov	r0, #0
 224              	.LVL6:
 225 010e 1C70     		strb	r4, [r3]
 226 0110 56E0     		b	.L16
 227              	.LVL7:
 228              	.L17:
 229              		.loc 1 204 0
 230 0112 2023     		mov	r3, #32
 231              		.loc 1 203 0
 232 0114 0132     		add	r2, r2, #1
 233              		.loc 1 204 0
 234 0116 0B70     		strb	r3, [r1]
 235              		.loc 1 203 0
 236 0118 0131     		add	r1, r1, #1
 237 011a 1F2A     		cmp	r2, #31
ARM GAS  /cygdrive/c/DOCUME~1/mkwapisz/LOCALS~1/Temp/ccw8ZsiV.s 			page 10


 238 011c F9D1     		bne	.L17
 239              		.loc 1 202 0
 240 011e 0130     		add	r0, r0, #1
 241 0120 1B28     		cmp	r0, #27
 242 0122 4DD1     		bne	.L16
 243 0124 0026     		mov	r6, #0
 244              	.LVL8:
 245 0126 19E0     		b	.L20
 246              	.LVL9:
 247              	.L21:
 248              		.loc 1 208 0
 249 0128 FFF7FEFF 		bl	rand
 250              	.LVL10:
 251 012c 1B21     		mov	r1, #27
 252 012e FFF7FEFF 		bl	__modsi3
 253 0132 041C     		mov	r4, r0
 254              		.loc 1 209 0
 255 0134 FFF7FEFF 		bl	rand
 256 0138 1F21     		mov	r1, #31
 257 013a FFF7FEFF 		bl	__modsi3
 258              		.loc 1 210 0
 259 013e 2B68     		ldr	r3, [r5]
 260              		.loc 1 209 0
 261 0140 011C     		mov	r1, r0
 262              	.LVL11:
 263 0142 6201     		lsl	r2, r4, #5
 264 0144 2C48     		ldr	r0, .L49+20
 265              		.loc 1 210 0
 266 0146 9E42     		cmp	r6, r3
 267 0148 03DA     		bge	.L22
 268              		.loc 1 211 0
 269 014a 131B     		sub	r3, r2, r4
 270 014c 1B18     		add	r3, r3, r0
 271 014e 7822     		mov	r2, #120
 272 0150 02E0     		b	.L47
 273              	.L22:
 274              		.loc 1 213 0
 275 0152 131B     		sub	r3, r2, r4
 276 0154 1B18     		add	r3, r3, r0
 277 0156 2E22     		mov	r2, #46
 278              	.L47:
 279 0158 5A54     		strb	r2, [r3, r1]
 280              		.loc 1 207 0
 281 015a 0136     		add	r6, r6, #1
 282              	.LVL12:
 283              	.L20:
 284 015c 274D     		ldr	r5, .L49+24
 285 015e 2B68     		ldr	r3, [r5]
 286 0160 5B00     		lsl	r3, r3, #1
 287 0162 9E42     		cmp	r6, r3
 288 0164 E0DB     		blt	.L21
 289              		.loc 1 217 0
 290 0166 214B     		ldr	r3, .L49+8
 291 0168 254A     		ldr	r2, .L49+28
 292              	.LVL13:
 293 016a 1868     		ldr	r0, [r3]
 294              	.LVL14:
ARM GAS  /cygdrive/c/DOCUME~1/mkwapisz/LOCALS~1/Temp/ccw8ZsiV.s 			page 11


 295 016c 0021     		mov	r1, #0
 296              	.LVL15:
 297 016e 06E0     		b	.L26
 298              	.L27:
 299              		.loc 1 218 0
 300 0170 0723     		mov	r3, #7
 301 0172 1360     		str	r3, [r2]
 302              		.loc 1 219 0
 303 0174 0B1C     		mov	r3, r1
 304 0176 0F33     		add	r3, r3, #15
 305 0178 5360     		str	r3, [r2, #4]
 306              		.loc 1 217 0
 307 017a 0131     		add	r1, r1, #1
 308 017c 0832     		add	r2, r2, #8
 309              	.L26:
 310 017e 8142     		cmp	r1, r0
 311 0180 F6DB     		blt	.L27
 312 0182 23E0     		b	.L44
 313              	.LVL16:
 314              	.L29:
 315              		.loc 1 225 0
 316 0184 3378     		ldrb	r3, [r6]
 317 0186 1B06     		lsl	r3, r3, #24
 318 0188 1B16     		asr	r3, r3, #24
 319 018a 2E2B     		cmp	r3, #46
 320 018c 07D0     		beq	.L32
 321 018e 782B     		cmp	r3, #120
 322 0190 09D0     		beq	.L33
 323 0192 202B     		cmp	r3, #32
 324 0194 0CD1     		bne	.L30
 325              		.loc 1 227 0
 326 0196 281C     		mov	r0, r5
 327 0198 211C     		mov	r1, r4
 328              	.LVL17:
 329 019a 0022     		mov	r2, #0
 330 019c 06E0     		b	.L48
 331              	.LVL18:
 332              	.L32:
 333              		.loc 1 230 0
 334 019e 281C     		mov	r0, r5
 335 01a0 211C     		mov	r1, r4
 336              	.LVL19:
 337 01a2 1C22     		mov	r2, #28
 338 01a4 02E0     		b	.L48
 339              	.LVL20:
 340              	.L33:
 341              		.loc 1 233 0
 342 01a6 281C     		mov	r0, r5
 343 01a8 211C     		mov	r1, r4
 344              	.LVL21:
 345 01aa E022     		mov	r2, #224
 346              	.LVL22:
 347              	.L48:
 348 01ac FFF770FF 		bl	gotoxy
 349              	.LVL23:
 350              	.L30:
 351              		.loc 1 224 0
ARM GAS  /cygdrive/c/DOCUME~1/mkwapisz/LOCALS~1/Temp/ccw8ZsiV.s 			page 12


 352 01b0 0135     		add	r5, r5, #1
 353 01b2 0136     		add	r6, r6, #1
 354 01b4 1F2D     		cmp	r5, #31
 355 01b6 E5D1     		bne	.L29
 356              		.loc 1 223 0
 357 01b8 0134     		add	r4, r4, #1
 358 01ba 1B2C     		cmp	r4, #27
 359 01bc 0DD0     		beq	.L46
 360 01be 06E0     		b	.L35
 361              	.LVL24:
 362              	.L16:
 363              		.loc 1 240 0
 364 01c0 0D4A     		ldr	r2, .L49+20
 365              	.LVL25:
 366 01c2 4301     		lsl	r3, r0, #5
 367 01c4 1B1A     		sub	r3, r3, r0
 368 01c6 9918     		add	r1, r3, r2
 369 01c8 0022     		mov	r2, #0
 370              	.LVL26:
 371 01ca A2E7     		b	.L17
 372              	.LVL27:
 373              	.L44:
 374 01cc 0024     		mov	r4, #0
 375              	.LVL28:
 376              	.L35:
 377 01ce 6301     		lsl	r3, r4, #5
 378 01d0 094A     		ldr	r2, .L49+20
 379 01d2 1B1B     		sub	r3, r3, r4
 380 01d4 9E18     		add	r6, r3, r2
 381              	.LVL29:
 382 01d6 0025     		mov	r5, #0
 383 01d8 D4E7     		b	.L29
 384              	.L46:
 385 01da 01B0     		add	sp, sp, #4
 386              		@ sp needed for prologue
 387              	.LVL30:
 388              	.LVL31:
 389 01dc 70BC     		pop	{r4, r5, r6}
 390 01de 01BC     		pop	{r0}
 391 01e0 0047     		bx	r0
 392              	.L50:
 393 01e2 0000     		.align	2
 394              	.L49:
 395 01e4 00000000 		.word	.LC4
 396 01e8 14000000 		.word	level
 397 01ec 08000000 		.word	snakeLength
 398 01f0 00000000 		.word	direction
 399 01f4 18000000 		.word	firstPress
 400 01f8 19000000 		.word	screenGrid
 401 01fc 10000000 		.word	obstacles
 402 0200 00000000 		.word	snake
 403              	.LFE3:
 404              		.size	setupLevel, .-setupLevel
 405              		.section	.rodata.str1.4
 406 0006 0000     		.align	2
 407              	.LC27:
 408 0008 47616D65 		.ascii	"Game over!\000"
ARM GAS  /cygdrive/c/DOCUME~1/mkwapisz/LOCALS~1/Temp/ccw8ZsiV.s 			page 13


 408      206F7665 
 408      722100
 409 0013 00       		.align	2
 410              	.LC29:
 411 0014 52657374 		.ascii	"Restart game\000"
 411      61727420 
 411      67616D65 
 411      00
 412 0021 000000   		.text
 413              		.align	2
 414              		.global	playSnake
 415              		.code 16
 416              		.thumb_func
 417              		.type	playSnake, %function
 418              	playSnake:
 419              	.LFB2:
 420              		.loc 1 47 0
 421 0204 F0B5     		push	{r4, r5, r6, r7, lr}
 422              	.LCFI4:
 423 0206 96B0     		sub	sp, sp, #88
 424              	.LCFI5:
 425              	.LVL32:
 426              	.L101:
 427              	.LBB2:
 428              		.loc 1 53 0
 429 0208 814A     		ldr	r2, .L102
 430 020a 0423     		mov	r3, #4
 431 020c 1360     		str	r3, [r2]
 432              		.loc 1 54 0
 433 020e 814A     		ldr	r2, .L102+4
 434 0210 0123     		mov	r3, #1
 435 0212 1360     		str	r3, [r2]
 436              		.loc 1 55 0
 437 0214 804A     		ldr	r2, .L102+8
 438 0216 0023     		mov	r3, #0
 439 0218 1360     		str	r3, [r2]
 440              		.loc 1 56 0
 441 021a 804A     		ldr	r2, .L102+12
 442 021c 0E23     		mov	r3, #14
 443 021e 1360     		str	r3, [r2]
 444              		.loc 1 57 0
 445 0220 7F4B     		ldr	r3, .L102+16
 446 0222 1868     		ldr	r0, [r3]
 447 0224 FFF7FEFF 		bl	srand
 448              		.loc 1 58 0
 449 0228 FFF748FF 		bl	setupLevel
 450              	.LVL33:
 451              	.L54:
 452              	.LBB3:
 453              		.loc 1 62 0
 454 022c 7A4B     		ldr	r3, .L102+8
 455 022e 1868     		ldr	r0, [r3]
 456 0230 FFF7FEFF 		bl	displayScoreAndTime
 457              		.loc 1 64 0
 458 0234 794B     		ldr	r3, .L102+12
 459 0236 1868     		ldr	r0, [r3]
 460 0238 4000     		lsl	r0, r0, #1
ARM GAS  /cygdrive/c/DOCUME~1/mkwapisz/LOCALS~1/Temp/ccw8ZsiV.s 			page 14


 461 023a FFF7FEFF 		bl	osSleep
 462              		.loc 1 67 0
 463 023e FFF7FEFF 		bl	getPressedKey
 464 0242 0990     		str	r0, [sp, #36]
 465              		.loc 1 68 0
 466 0244 0028     		cmp	r0, #0
 467 0246 03D0     		beq	.L55
 468              		.loc 1 69 0
 469 0248 1028     		cmp	r0, #16
 470 024a 01D0     		beq	.L55
 471              		.loc 1 70 0
 472 024c 754B     		ldr	r3, .L102+20
 473 024e 1870     		strb	r0, [r3]
 474              	.L55:
 475              		.loc 1 74 0
 476 0250 FFF7D6FE 		bl	addSegment
 477              		.loc 1 77 0
 478 0254 744C     		ldr	r4, .L102+24
 479              	.LVL34:
 480 0256 0022     		mov	r2, #0
 481 0258 2079     		ldrb	r0, [r4, #4]
 482 025a 2178     		ldrb	r1, [r4]
 483 025c FFF718FF 		bl	gotoxy
 484              		.loc 1 80 0
 485 0260 724B     		ldr	r3, .L102+28
 486 0262 1868     		ldr	r0, [r3]
 487 0264 0121     		mov	r1, #1
 488              	.LVL35:
 489 0266 05E0     		b	.L58
 490              	.L59:
 491              		.loc 1 81 0
 492 0268 A268     		ldr	r2, [r4, #8]
 493 026a E368     		ldr	r3, [r4, #12]
 494 026c 2260     		str	r2, [r4]
 495 026e 6360     		str	r3, [r4, #4]
 496              		.loc 1 80 0
 497 0270 0131     		add	r1, r1, #1
 498 0272 0834     		add	r4, r4, #8
 499              	.L58:
 500 0274 8142     		cmp	r1, r0
 501 0276 F7DD     		ble	.L59
 502 0278 6D4C     		ldr	r4, .L102+32
 503 027a 0025     		mov	r5, #0
 504              	.LVL36:
 505 027c 07E0     		b	.L61
 506              	.L62:
 507              		.loc 1 85 0
 508 027e 231F     		sub	r3, r4, #4
 509 0280 2078     		ldrb	r0, [r4]
 510 0282 1978     		ldrb	r1, [r3]
 511              	.LVL37:
 512 0284 FC22     		mov	r2, #252
 513 0286 FFF703FF 		bl	gotoxy
 514              		.loc 1 84 0
 515 028a 0135     		add	r5, r5, #1
 516 028c 0834     		add	r4, r4, #8
 517              	.LVL38:
ARM GAS  /cygdrive/c/DOCUME~1/mkwapisz/LOCALS~1/Temp/ccw8ZsiV.s 			page 15


 518              	.L61:
 519 028e 674B     		ldr	r3, .L102+28
 520 0290 1B68     		ldr	r3, [r3]
 521 0292 9D42     		cmp	r5, r3
 522 0294 F3DD     		ble	.L62
 523              		.loc 1 88 0
 524 0296 674B     		ldr	r3, .L102+36
 525 0298 1B78     		ldrb	r3, [r3]
 526 029a 012B     		cmp	r3, #1
 527 029c 06D1     		bne	.L64
 528              	.L94:
 529              		.loc 1 89 0
 530 029e FFF7FEFF 		bl	getPressedKey
 531              	.LVL39:
 532 02a2 0028     		cmp	r0, #0
 533 02a4 FBD0     		beq	.L94
 534              		.loc 1 91 0
 535 02a6 634A     		ldr	r2, .L102+36
 536 02a8 0023     		mov	r3, #0
 537 02aa 1370     		strb	r3, [r2]
 538              	.LVL40:
 539              	.L64:
 540              		.loc 1 95 0
 541 02ac 5F4B     		ldr	r3, .L102+28
 542 02ae 1E68     		ldr	r6, [r3]
 543 02b0 5D4A     		ldr	r2, .L102+24
 544 02b2 751E     		sub	r5, r6, #1
 545              	.LVL41:
 546 02b4 EB00     		lsl	r3, r5, #3
 547 02b6 9858     		ldr	r0, [r3, r2]
 548 02b8 1A28     		cmp	r0, #26
 549 02ba 0CD8     		bhi	.L67
 550 02bc 9B18     		add	r3, r3, r2
 551 02be 5968     		ldr	r1, [r3, #4]
 552              	.LVL42:
 553 02c0 1E29     		cmp	r1, #30
 554 02c2 08DC     		bgt	.L67
 555 02c4 0029     		cmp	r1, #0
 556 02c6 06DB     		blt	.L67
 557 02c8 5B4B     		ldr	r3, .L102+40
 558 02ca 4201     		lsl	r2, r0, #5
 559 02cc 121A     		sub	r2, r2, r0
 560 02ce D218     		add	r2, r2, r3
 561 02d0 5356     		ldrsb	r3, [r2, r1]
 562 02d2 782B     		cmp	r3, #120
 563 02d4 01D1     		bne	.L71
 564              	.LVL43:
 565              	.L67:
 566 02d6 1022     		mov	r2, #16
 567 02d8 0992     		str	r2, [sp, #36]
 568              	.L71:
 569 02da 5349     		ldr	r1, .L102+24
 570              	.LVL44:
 571 02dc 0024     		mov	r4, #0
 572              	.LVL45:
 573 02de 0F1C     		mov	r7, r1
 574 02e0 0DE0     		b	.L72
ARM GAS  /cygdrive/c/DOCUME~1/mkwapisz/LOCALS~1/Temp/ccw8ZsiV.s 			page 16


 575              	.L73:
 576              		.loc 1 108 0
 577 02e2 0B68     		ldr	r3, [r1]
 578 02e4 9842     		cmp	r0, r3
 579 02e6 08D1     		bne	.L74
 580 02e8 EB00     		lsl	r3, r5, #3
 581 02ea DB19     		add	r3, r3, r7
 582 02ec 5A68     		ldr	r2, [r3, #4]
 583 02ee 4B68     		ldr	r3, [r1, #4]
 584 02f0 9A42     		cmp	r2, r3
 585 02f2 02D1     		bne	.L74
 586 02f4 1023     		mov	r3, #16
 587 02f6 0993     		str	r3, [sp, #36]
 588 02f8 03E0     		b	.L77
 589              	.L74:
 590              		.loc 1 107 0
 591 02fa 0134     		add	r4, r4, #1
 592 02fc 0831     		add	r1, r1, #8
 593              	.L72:
 594 02fe AC42     		cmp	r4, r5
 595 0300 EFDB     		blt	.L73
 596              	.L77:
 597              		.loc 1 115 0
 598 0302 494A     		ldr	r2, .L102+24
 599 0304 EB00     		lsl	r3, r5, #3
 600 0306 9B18     		add	r3, r3, r2
 601 0308 5A68     		ldr	r2, [r3, #4]
 602 030a 4B49     		ldr	r1, .L102+40
 603 030c 4301     		lsl	r3, r0, #5
 604 030e 1B1A     		sub	r3, r3, r0
 605 0310 5B18     		add	r3, r3, r1
 606 0312 9B56     		ldrsb	r3, [r3, r2]
 607 0314 2E2B     		cmp	r3, #46
 608 0316 2DD1     		bne	.L78
 609              		.loc 1 118 0
 610 0318 3D4C     		ldr	r4, .L102
 611              	.LVL46:
 612 031a 2768     		ldr	r7, [r4]
 613 031c 3B1C     		mov	r3, r7
 614 031e 7343     		mul	r3, r6
 615 0320 3D4D     		ldr	r5, .L102+8
 616 0322 2A68     		ldr	r2, [r5]
 617 0324 D218     		add	r2, r2, r3
 618              		.loc 1 119 0
 619 0326 414B     		ldr	r3, .L102+28
 620              		.loc 1 118 0
 621 0328 0894     		str	r4, [sp, #32]
 622              		.loc 1 119 0
 623 032a 741C     		add	r4, r6, #1
 624 032c 1C60     		str	r4, [r3]
 625              		.loc 1 118 0
 626 032e 2A60     		str	r2, [r5]
 627              		.loc 1 120 0
 628 0330 FFF766FE 		bl	addSegment
 629              		.loc 1 123 0
 630 0334 3749     		ldr	r1, .L102+4
 631 0336 0868     		ldr	r0, [r1]
ARM GAS  /cygdrive/c/DOCUME~1/mkwapisz/LOCALS~1/Temp/ccw8ZsiV.s 			page 17


 632 0338 4300     		lsl	r3, r0, #1
 633 033a 0633     		add	r3, r3, #6
 634 033c 9C42     		cmp	r4, r3
 635 033e 19D1     		bne	.L78
 636              		.loc 1 124 0
 637 0340 4301     		lsl	r3, r0, #5
 638 0342 1B1A     		sub	r3, r3, r0
 639 0344 9B00     		lsl	r3, r3, #2
 640 0346 2A68     		ldr	r2, [r5]
 641 0348 1B18     		add	r3, r3, r0
 642 034a DB00     		lsl	r3, r3, #3
 643 034c D218     		add	r2, r2, r3
 644 034e 2A60     		str	r2, [r5]
 645              		.loc 1 125 0
 646 0350 089D     		ldr	r5, [sp, #32]
 647 0352 BB1C     		add	r3, r7, #2
 648              		.loc 1 126 0
 649 0354 0130     		add	r0, r0, #1
 650 0356 0860     		str	r0, [r1]
 651              		.loc 1 125 0
 652 0358 2B60     		str	r3, [r5]
 653              		.loc 1 129 0
 654 035a 0521     		mov	r1, #5
 655 035c FFF7FEFF 		bl	__modsi3
 656 0360 0028     		cmp	r0, #0
 657 0362 05D1     		bne	.L81
 658 0364 2D4A     		ldr	r2, .L102+12
 659 0366 1368     		ldr	r3, [r2]
 660 0368 012B     		cmp	r3, #1
 661 036a 01DD     		ble	.L81
 662              		.loc 1 130 0
 663 036c 013B     		sub	r3, r3, #1
 664 036e 1360     		str	r3, [r2]
 665              	.L81:
 666              		.loc 1 133 0
 667 0370 FFF7A4FE 		bl	setupLevel
 668              	.LVL47:
 669              	.L78:
 670              	.LBE3:
 671              		.loc 1 137 0
 672 0374 0998     		ldr	r0, [sp, #36]
 673 0376 1028     		cmp	r0, #16
 674 0378 00D0     		beq	.LCB734
 675 037a 57E7     		b	.L54	@long jump
 676              	.LCB734:
 677              		.loc 1 140 0
 678 037c 2648     		ldr	r0, .L102+8
 679 037e 2F49     		ldr	r1, .L102+44
 680 0380 0268     		ldr	r2, [r0]
 681 0382 0B68     		ldr	r3, [r1]
 682 0384 9A42     		cmp	r2, r3
 683 0386 06DD     		ble	.L85
 684              		.loc 1 141 0
 685 0388 0268     		ldr	r2, [r0]
 686              		.loc 1 142 0
 687 038a 2D4B     		ldr	r3, .L102+48
 688              		.loc 1 141 0
ARM GAS  /cygdrive/c/DOCUME~1/mkwapisz/LOCALS~1/Temp/ccw8ZsiV.s 			page 18


 689 038c 0A60     		str	r2, [r1]
 690              		.loc 1 142 0
 691 038e 1A60     		str	r2, [r3]
 692              		.loc 1 143 0
 693 0390 FFF7FEFF 		bl	procMotor
 694 0394 01E0     		b	.L87
 695              	.L85:
 696              		.loc 1 146 0
 697 0396 FFF7FEFF 		bl	playBuu
 698              	.L87:
 699              		.loc 1 149 0
 700 039a 0AA9     		add	r1, sp, #40
 701 039c 0A23     		mov	r3, #10
 702 039e 0B70     		strb	r3, [r1]
 703              		.loc 1 150 0
 704 03a0 2823     		mov	r3, #40
 705 03a2 4B70     		strb	r3, [r1, #1]
 706              		.loc 1 151 0
 707 03a4 6623     		mov	r3, #102
 708 03a6 8B70     		strb	r3, [r1, #2]
 709              		.loc 1 152 0
 710 03a8 3823     		mov	r3, #56
 711 03aa CB70     		strb	r3, [r1, #3]
 712              		.loc 1 153 0
 713 03ac 0123     		mov	r3, #1
 714 03ae 0B71     		strb	r3, [r1, #4]
 715              		.loc 1 156 0
 716 03b0 1423     		mov	r3, #20
 717 03b2 0B73     		strb	r3, [r1, #12]
 718              		.loc 1 157 0
 719 03b4 234B     		ldr	r3, .L102+52
 720              		.loc 1 154 0
 721 03b6 0020     		mov	r0, #0
 722              		.loc 1 157 0
 723 03b8 0E93     		str	r3, [sp, #56]
 724              		.loc 1 158 0
 725 03ba 14AB     		add	r3, sp, #80
 726              		.loc 1 154 0
 727 03bc 4871     		strb	r0, [r1, #5]
 728              		.loc 1 158 0
 729 03be 1870     		strb	r0, [r3]
 730              		.loc 1 159 0
 731 03c0 6D21     		mov	r1, #109
 732 03c2 0133     		add	r3, r3, #1
 733 03c4 1970     		strb	r1, [r3]
 734              		.loc 1 160 0
 735 03c6 0133     		add	r3, r3, #1
 736 03c8 1870     		strb	r0, [r3]
 737              		.loc 1 161 0
 738 03ca 6946     		mov	r1, sp
 739 03cc 0323     		mov	r3, #3
 740 03ce 5B42     		neg	r3, r3
 741 03d0 5331     		add	r1, r1, #83
 742 03d2 0B70     		strb	r3, [r1]
 743              		.loc 1 155 0
 744 03d4 1C4A     		ldr	r2, .L102+56
 745              		.loc 1 162 0
ARM GAS  /cygdrive/c/DOCUME~1/mkwapisz/LOCALS~1/Temp/ccw8ZsiV.s 			page 19


 746 03d6 2023     		mov	r3, #32
 747 03d8 5B42     		neg	r3, r3
 748 03da 15A9     		add	r1, sp, #84
 749 03dc 0B70     		strb	r3, [r1]
 750              		.loc 1 155 0
 751 03de 0C92     		str	r2, [sp, #48]
 752              		.loc 1 164 0
 753 03e0 0EAB     		add	r3, sp, #56
 754 03e2 6946     		mov	r1, sp
 755 03e4 31CB     		ldmia	r3!, {r0, r4, r5}
 756 03e6 31C1     		stmia	r1!, {r0, r4, r5}
 757              	.LVL48:
 758 03e8 31CB     		ldmia	r3!, {r0, r4, r5}
 759 03ea 31C1     		stmia	r1!, {r0, r4, r5}
 760 03ec 30CB     		ldmia	r3!, {r4, r5}
 761 03ee 30C1     		stmia	r1!, {r4, r5}
 762 03f0 0A98     		ldr	r0, [sp, #40]
 763 03f2 0B99     		ldr	r1, [sp, #44]
 764 03f4 0D9B     		ldr	r3, [sp, #52]
 765 03f6 FFF7FEFF 		bl	drawMenu
 766 03fa 0028     		cmp	r0, #0
 767 03fc 00D1     		bne	.LCB826
 768 03fe 03E7     		b	.L101	@long jump
 769              	.LCB826:
 770 0400 0128     		cmp	r0, #1
 771 0402 00D0     		beq	.LCB828
 772 0404 00E7     		b	.L101	@long jump
 773              	.LCB828:
 774              	.LBE2:
 775              		.loc 1 176 0
 776 0406 16B0     		add	sp, sp, #88
 777              		@ sp needed for prologue
 778 0408 F0BC     		pop	{r4, r5, r6, r7}
 779 040a 01BC     		pop	{r0}
 780 040c 0047     		bx	r0
 781              	.L103:
 782 040e 0000     		.align	2
 783              	.L102:
 784 0410 10000000 		.word	obstacles
 785 0414 14000000 		.word	level
 786 0418 04000000 		.word	score
 787 041c 0C000000 		.word	speed
 788 0420 00000000 		.word	ms
 789 0424 00000000 		.word	direction
 790 0428 00000000 		.word	snake
 791 042c 08000000 		.word	snakeLength
 792 0430 04000000 		.word	snake+4
 793 0434 18000000 		.word	firstPress
 794 0438 19000000 		.word	screenGrid
 795 043c 00000000 		.word	high_score
 796 0440 00000000 		.word	highScore
 797 0444 14000000 		.word	.LC29
 798 0448 08000000 		.word	.LC27
 799              	.LFE2:
 800              		.size	playSnake, .-playSnake
 801              		.data
 802              		.type	direction, %object
ARM GAS  /cygdrive/c/DOCUME~1/mkwapisz/LOCALS~1/Temp/ccw8ZsiV.s 			page 20


 803              		.size	direction, 1
 804              	direction:
 805 0000 02       		.byte	2
 806              		.bss
 807              		.align	2
 808              	high_score:
 809 0000 00000000 		.space	4
 810              		.align	2
 811              	score:
 812 0004 00000000 		.space	4
 813              		.align	2
 814              	snakeLength:
 815 0008 00000000 		.space	4
 816              		.align	2
 817              	speed:
 818 000c 00000000 		.space	4
 819              		.align	2
 820              	obstacles:
 821 0010 00000000 		.space	4
 822              		.align	2
 823              	level:
 824 0014 00000000 		.space	4
 825              	firstPress:
 826 0018 00       		.space	1
 827              	screenGrid:
 828 0019 00000000 		.space	837
 828      00000000 
 828      00000000 
 828      00000000 
 828      00000000 
 829              		.comm	spin,1,1
 830              		.comm	highScore,4,4
 831              		.comm	snake,800,4
 832 035e 0000     		.section	.debug_frame,"",%progbits
 833              	.Lframe0:
 834 0000 0C000000 		.4byte	.LECIE0-.LSCIE0
 835              	.LSCIE0:
 836 0004 FFFFFFFF 		.4byte	0xffffffff
 837 0008 01       		.byte	0x1
 838 0009 00       		.ascii	"\000"
 839 000a 01       		.uleb128 0x1
 840 000b 7C       		.sleb128 -4
 841 000c 0E       		.byte	0xe
 842 000d 0C       		.byte	0xc
 843 000e 0D       		.uleb128 0xd
 844 000f 00       		.uleb128 0x0
 845              		.align	2
 846              	.LECIE0:
 847              	.LSFDE0:
 848 0010 0C000000 		.4byte	.LEFDE0-.LASFDE0
 849              	.LASFDE0:
 850 0014 00000000 		.4byte	.Lframe0
 851 0018 00000000 		.4byte	.LFB4
 852 001c 90000000 		.4byte	.LFE4-.LFB4
 853              		.align	2
 854              	.LEFDE0:
 855              	.LSFDE2:
ARM GAS  /cygdrive/c/DOCUME~1/mkwapisz/LOCALS~1/Temp/ccw8ZsiV.s 			page 21


 856 0020 14000000 		.4byte	.LEFDE2-.LASFDE2
 857              	.LASFDE2:
 858 0024 00000000 		.4byte	.Lframe0
 859 0028 90000000 		.4byte	.LFB5
 860 002c 2C000000 		.4byte	.LFE5-.LFB5
 861 0030 42       		.byte	0x4
 862              		.4byte	.LCFI0-.LFB5
 863 0031 0E       		.byte	0xe
 864 0032 04       		.uleb128 0x4
 865 0033 8E       		.byte	0x8e
 866 0034 01       		.uleb128 0x1
 867 0035 52       		.byte	0x4
 868              		.4byte	.LCFI1-.LCFI0
 869 0036 0E       		.byte	0xe
 870 0037 08       		.uleb128 0x8
 871              		.align	2
 872              	.LEFDE2:
 873              	.LSFDE4:
 874 0038 1C000000 		.4byte	.LEFDE4-.LASFDE4
 875              	.LASFDE4:
 876 003c 00000000 		.4byte	.Lframe0
 877 0040 BC000000 		.4byte	.LFB3
 878 0044 48010000 		.4byte	.LFE3-.LFB3
 879 0048 42       		.byte	0x4
 880              		.4byte	.LCFI2-.LFB3
 881 0049 0E       		.byte	0xe
 882 004a 10       		.uleb128 0x10
 883 004b 84       		.byte	0x84
 884 004c 04       		.uleb128 0x4
 885 004d 85       		.byte	0x85
 886 004e 03       		.uleb128 0x3
 887 004f 86       		.byte	0x86
 888 0050 02       		.uleb128 0x2
 889 0051 8E       		.byte	0x8e
 890 0052 01       		.uleb128 0x1
 891 0053 42       		.byte	0x4
 892              		.4byte	.LCFI3-.LCFI2
 893 0054 0E       		.byte	0xe
 894 0055 14       		.uleb128 0x14
 895 0056 0000     		.align	2
 896              	.LEFDE4:
 897              	.LSFDE6:
 898 0058 1C000000 		.4byte	.LEFDE6-.LASFDE6
 899              	.LASFDE6:
 900 005c 00000000 		.4byte	.Lframe0
 901 0060 04020000 		.4byte	.LFB2
 902 0064 48020000 		.4byte	.LFE2-.LFB2
 903 0068 42       		.byte	0x4
 904              		.4byte	.LCFI4-.LFB2
 905 0069 0E       		.byte	0xe
 906 006a 14       		.uleb128 0x14
 907 006b 84       		.byte	0x84
 908 006c 05       		.uleb128 0x5
 909 006d 85       		.byte	0x85
 910 006e 04       		.uleb128 0x4
 911 006f 86       		.byte	0x86
 912 0070 03       		.uleb128 0x3
ARM GAS  /cygdrive/c/DOCUME~1/mkwapisz/LOCALS~1/Temp/ccw8ZsiV.s 			page 22


 913 0071 87       		.byte	0x87
 914 0072 02       		.uleb128 0x2
 915 0073 8E       		.byte	0x8e
 916 0074 01       		.uleb128 0x1
 917 0075 42       		.byte	0x4
 918              		.4byte	.LCFI5-.LCFI4
 919 0076 0E       		.byte	0xe
 920 0077 6C       		.uleb128 0x6c
 921              		.align	2
 922              	.LEFDE6:
 923              		.file 2 "./startup/../pre_emptive_os/api/../api/general.h"
 924              		.file 3 "select.h"
 925              		.file 4 "motor/motor.h"
 926              		.file 5 "secondLCD/secondLCD.h"
 927              		.text
 928              	.Letext0:
 929              		.section	.debug_loc,"",%progbits
 930              	.Ldebug_loc0:
 931              	.LLST1:
 932 0000 90000000 		.4byte	.LFB5-.Ltext0
 933 0004 92000000 		.4byte	.LCFI0-.Ltext0
 934 0008 0100     		.2byte	0x1
 935 000a 5D       		.byte	0x5d
 936 000b 92000000 		.4byte	.LCFI0-.Ltext0
 937 000f A4000000 		.4byte	.LCFI1-.Ltext0
 938 0013 0200     		.2byte	0x2
 939 0015 7D       		.byte	0x7d
 940 0016 04       		.sleb128 4
 941 0017 A4000000 		.4byte	.LCFI1-.Ltext0
 942 001b BC000000 		.4byte	.LFE5-.Ltext0
 943 001f 0200     		.2byte	0x2
 944 0021 7D       		.byte	0x7d
 945 0022 08       		.sleb128 8
 946 0023 00000000 		.4byte	0x0
 947 0027 00000000 		.4byte	0x0
 948              	.LLST2:
 949 002b 92000000 		.4byte	.LVL0-.Ltext0
 950 002f 98000000 		.4byte	.LVL1-.Ltext0
 951 0033 0100     		.2byte	0x1
 952 0035 50       		.byte	0x50
 953 0036 00000000 		.4byte	0x0
 954 003a 00000000 		.4byte	0x0
 955              	.LLST3:
 956 003e 92000000 		.4byte	.LVL0-.Ltext0
 957 0042 A2000000 		.4byte	.LVL3-.Ltext0
 958 0046 0100     		.2byte	0x1
 959 0048 51       		.byte	0x51
 960 0049 00000000 		.4byte	0x0
 961 004d 00000000 		.4byte	0x0
 962              	.LLST4:
 963 0051 92000000 		.4byte	.LVL0-.Ltext0
 964 0055 A0000000 		.4byte	.LVL2-.Ltext0
 965 0059 0100     		.2byte	0x1
 966 005b 52       		.byte	0x52
 967 005c A6000000 		.4byte	.LVL4-.Ltext0
 968 0060 B0000000 		.4byte	.LVL5-.Ltext0
 969 0064 0100     		.2byte	0x1
ARM GAS  /cygdrive/c/DOCUME~1/mkwapisz/LOCALS~1/Temp/ccw8ZsiV.s 			page 23


 970 0066 52       		.byte	0x52
 971 0067 00000000 		.4byte	0x0
 972 006b 00000000 		.4byte	0x0
 973              	.LLST5:
 974 006f BC000000 		.4byte	.LFB3-.Ltext0
 975 0073 BE000000 		.4byte	.LCFI2-.Ltext0
 976 0077 0100     		.2byte	0x1
 977 0079 5D       		.byte	0x5d
 978 007a BE000000 		.4byte	.LCFI2-.Ltext0
 979 007e C0000000 		.4byte	.LCFI3-.Ltext0
 980 0082 0200     		.2byte	0x2
 981 0084 7D       		.byte	0x7d
 982 0085 10       		.sleb128 16
 983 0086 C0000000 		.4byte	.LCFI3-.Ltext0
 984 008a 04020000 		.4byte	.LFE3-.Ltext0
 985 008e 0200     		.2byte	0x2
 986 0090 7D       		.byte	0x7d
 987 0091 14       		.sleb128 20
 988 0092 00000000 		.4byte	0x0
 989 0096 00000000 		.4byte	0x0
 990              	.LLST6:
 991 009a 0E010000 		.4byte	.LVL6-.Ltext0
 992 009e 28010000 		.4byte	.LVL9-.Ltext0
 993 00a2 0100     		.2byte	0x1
 994 00a4 50       		.byte	0x50
 995 00a5 28010000 		.4byte	.LVL9-.Ltext0
 996 00a9 2C010000 		.4byte	.LVL10-.Ltext0
 997 00ad 0100     		.2byte	0x1
 998 00af 54       		.byte	0x54
 999 00b0 5C010000 		.4byte	.LVL12-.Ltext0
 1000 00b4 6C010000 		.4byte	.LVL14-.Ltext0
 1001 00b8 0100     		.2byte	0x1
 1002 00ba 50       		.byte	0x50
 1003 00bb 84010000 		.4byte	.LVL16-.Ltext0
 1004 00bf AC010000 		.4byte	.LVL22-.Ltext0
 1005 00c3 0100     		.2byte	0x1
 1006 00c5 54       		.byte	0x54
 1007 00c6 AC010000 		.4byte	.LVL22-.Ltext0
 1008 00ca B0010000 		.4byte	.LVL23-.Ltext0
 1009 00ce 0100     		.2byte	0x1
 1010 00d0 51       		.byte	0x51
 1011 00d1 B0010000 		.4byte	.LVL23-.Ltext0
 1012 00d5 C0010000 		.4byte	.LVL24-.Ltext0
 1013 00d9 0100     		.2byte	0x1
 1014 00db 54       		.byte	0x54
 1015 00dc C0010000 		.4byte	.LVL24-.Ltext0
 1016 00e0 C0010000 		.4byte	.LVL24-.Ltext0
 1017 00e4 0100     		.2byte	0x1
 1018 00e6 50       		.byte	0x50
 1019 00e7 CC010000 		.4byte	.LVL27-.Ltext0
 1020 00eb CC010000 		.4byte	.LVL27-.Ltext0
 1021 00ef 0100     		.2byte	0x1
 1022 00f1 54       		.byte	0x54
 1023 00f2 CE010000 		.4byte	.LVL28-.Ltext0
 1024 00f6 CE010000 		.4byte	.LVL28-.Ltext0
 1025 00fa 0100     		.2byte	0x1
 1026 00fc 54       		.byte	0x54
ARM GAS  /cygdrive/c/DOCUME~1/mkwapisz/LOCALS~1/Temp/ccw8ZsiV.s 			page 24


 1027 00fd 00000000 		.4byte	0x0
 1028 0101 00000000 		.4byte	0x0
 1029              	.LLST7:
 1030 0105 12010000 		.4byte	.LVL7-.Ltext0
 1031 0109 28010000 		.4byte	.LVL9-.Ltext0
 1032 010d 0100     		.2byte	0x1
 1033 010f 52       		.byte	0x52
 1034 0110 28010000 		.4byte	.LVL9-.Ltext0
 1035 0114 2C010000 		.4byte	.LVL10-.Ltext0
 1036 0118 0100     		.2byte	0x1
 1037 011a 51       		.byte	0x51
 1038 011b 42010000 		.4byte	.LVL11-.Ltext0
 1039 011f 5C010000 		.4byte	.LVL12-.Ltext0
 1040 0123 0100     		.2byte	0x1
 1041 0125 51       		.byte	0x51
 1042 0126 5C010000 		.4byte	.LVL12-.Ltext0
 1043 012a 6A010000 		.4byte	.LVL13-.Ltext0
 1044 012e 0100     		.2byte	0x1
 1045 0130 52       		.byte	0x52
 1046 0131 84010000 		.4byte	.LVL16-.Ltext0
 1047 0135 AC010000 		.4byte	.LVL22-.Ltext0
 1048 0139 0100     		.2byte	0x1
 1049 013b 55       		.byte	0x55
 1050 013c AC010000 		.4byte	.LVL22-.Ltext0
 1051 0140 B0010000 		.4byte	.LVL23-.Ltext0
 1052 0144 0100     		.2byte	0x1
 1053 0146 50       		.byte	0x50
 1054 0147 B0010000 		.4byte	.LVL23-.Ltext0
 1055 014b C0010000 		.4byte	.LVL24-.Ltext0
 1056 014f 0100     		.2byte	0x1
 1057 0151 55       		.byte	0x55
 1058 0152 C0010000 		.4byte	.LVL24-.Ltext0
 1059 0156 C0010000 		.4byte	.LVL24-.Ltext0
 1060 015a 0100     		.2byte	0x1
 1061 015c 52       		.byte	0x52
 1062 015d CA010000 		.4byte	.LVL26-.Ltext0
 1063 0161 CC010000 		.4byte	.LVL27-.Ltext0
 1064 0165 0100     		.2byte	0x1
 1065 0167 52       		.byte	0x52
 1066 0168 CE010000 		.4byte	.LVL28-.Ltext0
 1067 016c DC010000 		.4byte	.LVL31-.Ltext0
 1068 0170 0100     		.2byte	0x1
 1069 0172 55       		.byte	0x55
 1070 0173 00000000 		.4byte	0x0
 1071 0177 00000000 		.4byte	0x0
 1072              	.LLST8:
 1073 017b 26010000 		.4byte	.LVL8-.Ltext0
 1074 017f 6E010000 		.4byte	.LVL15-.Ltext0
 1075 0183 0100     		.2byte	0x1
 1076 0185 56       		.byte	0x56
 1077 0186 6E010000 		.4byte	.LVL15-.Ltext0
 1078 018a 84010000 		.4byte	.LVL16-.Ltext0
 1079 018e 0100     		.2byte	0x1
 1080 0190 51       		.byte	0x51
 1081 0191 9E010000 		.4byte	.LVL18-.Ltext0
 1082 0195 A2010000 		.4byte	.LVL19-.Ltext0
 1083 0199 0100     		.2byte	0x1
ARM GAS  /cygdrive/c/DOCUME~1/mkwapisz/LOCALS~1/Temp/ccw8ZsiV.s 			page 25


 1084 019b 51       		.byte	0x51
 1085 019c A6010000 		.4byte	.LVL20-.Ltext0
 1086 01a0 AA010000 		.4byte	.LVL21-.Ltext0
 1087 01a4 0100     		.2byte	0x1
 1088 01a6 51       		.byte	0x51
 1089 01a7 B0010000 		.4byte	.LVL23-.Ltext0
 1090 01ab C0010000 		.4byte	.LVL24-.Ltext0
 1091 01af 0100     		.2byte	0x1
 1092 01b1 51       		.byte	0x51
 1093 01b2 CC010000 		.4byte	.LVL27-.Ltext0
 1094 01b6 CC010000 		.4byte	.LVL27-.Ltext0
 1095 01ba 0100     		.2byte	0x1
 1096 01bc 51       		.byte	0x51
 1097 01bd CC010000 		.4byte	.LVL27-.Ltext0
 1098 01c1 D6010000 		.4byte	.LVL29-.Ltext0
 1099 01c5 0100     		.2byte	0x1
 1100 01c7 56       		.byte	0x56
 1101 01c8 00000000 		.4byte	0x0
 1102 01cc 00000000 		.4byte	0x0
 1103              	.LLST9:
 1104 01d0 04020000 		.4byte	.LFB2-.Ltext0
 1105 01d4 06020000 		.4byte	.LCFI4-.Ltext0
 1106 01d8 0100     		.2byte	0x1
 1107 01da 5D       		.byte	0x5d
 1108 01db 06020000 		.4byte	.LCFI4-.Ltext0
 1109 01df 08020000 		.4byte	.LCFI5-.Ltext0
 1110 01e3 0200     		.2byte	0x2
 1111 01e5 7D       		.byte	0x7d
 1112 01e6 14       		.sleb128 20
 1113 01e7 08020000 		.4byte	.LCFI5-.Ltext0
 1114 01eb 4C040000 		.4byte	.LFE2-.Ltext0
 1115 01ef 0300     		.2byte	0x3
 1116 01f1 7D       		.byte	0x7d
 1117 01f2 EC00     		.sleb128 108
 1118 01f4 00000000 		.4byte	0x0
 1119 01f8 00000000 		.4byte	0x0
 1120              	.LLST10:
 1121 01fc 2C020000 		.4byte	.LVL33-.Ltext0
 1122 0200 56020000 		.4byte	.LVL34-.Ltext0
 1123 0204 0100     		.2byte	0x1
 1124 0206 54       		.byte	0x54
 1125 0207 66020000 		.4byte	.LVL35-.Ltext0
 1126 020b 7C020000 		.4byte	.LVL36-.Ltext0
 1127 020f 0100     		.2byte	0x1
 1128 0211 51       		.byte	0x51
 1129 0212 7C020000 		.4byte	.LVL36-.Ltext0
 1130 0216 84020000 		.4byte	.LVL37-.Ltext0
 1131 021a 0100     		.2byte	0x1
 1132 021c 55       		.byte	0x55
 1133 021d 8E020000 		.4byte	.LVL38-.Ltext0
 1134 0221 A2020000 		.4byte	.LVL39-.Ltext0
 1135 0225 0100     		.2byte	0x1
 1136 0227 51       		.byte	0x51
 1137 0228 AC020000 		.4byte	.LVL40-.Ltext0
 1138 022c B4020000 		.4byte	.LVL41-.Ltext0
 1139 0230 0100     		.2byte	0x1
 1140 0232 51       		.byte	0x51
ARM GAS  /cygdrive/c/DOCUME~1/mkwapisz/LOCALS~1/Temp/ccw8ZsiV.s 			page 26


 1141 0233 D6020000 		.4byte	.LVL43-.Ltext0
 1142 0237 DC020000 		.4byte	.LVL44-.Ltext0
 1143 023b 0100     		.2byte	0x1
 1144 023d 51       		.byte	0x51
 1145 023e DE020000 		.4byte	.LVL45-.Ltext0
 1146 0242 1A030000 		.4byte	.LVL46-.Ltext0
 1147 0246 0100     		.2byte	0x1
 1148 0248 54       		.byte	0x54
 1149 0249 74030000 		.4byte	.LVL47-.Ltext0
 1150 024d E8030000 		.4byte	.LVL48-.Ltext0
 1151 0251 0100     		.2byte	0x1
 1152 0253 54       		.byte	0x54
 1153 0254 00000000 		.4byte	0x0
 1154 0258 00000000 		.4byte	0x0
 1155              		.section	.debug_info
 1156 0000 D1030000 		.4byte	0x3d1
 1157 0004 0200     		.2byte	0x2
 1158 0006 00000000 		.4byte	.Ldebug_abbrev0
 1159 000a 04       		.byte	0x4
 1160 000b 01       		.uleb128 0x1
 1161 000c 00000000 		.4byte	.Ldebug_line0
 1162 0010 4C040000 		.4byte	.Letext0
 1163 0014 00000000 		.4byte	.Ltext0
 1164 0018 AA010000 		.4byte	.LASF46
 1165 001c 01       		.byte	0x1
 1166 001d EC010000 		.4byte	.LASF47
 1167 0021 A1000000 		.4byte	.LASF48
 1168 0025 02       		.uleb128 0x2
 1169 0026 74553800 		.ascii	"tU8\000"
 1170 002a 02       		.byte	0x2
 1171 002b 46       		.byte	0x46
 1172 002c 30000000 		.4byte	0x30
 1173 0030 03       		.uleb128 0x3
 1174 0031 9C010000 		.4byte	.LASF0
 1175 0035 01       		.byte	0x1
 1176 0036 08       		.byte	0x8
 1177 0037 03       		.uleb128 0x3
 1178 0038 39010000 		.4byte	.LASF1
 1179 003c 02       		.byte	0x2
 1180 003d 07       		.byte	0x7
 1181 003e 04       		.uleb128 0x4
 1182 003f 55010000 		.4byte	.LASF2
 1183 0043 02       		.byte	0x2
 1184 0044 48       		.byte	0x48
 1185 0045 49000000 		.4byte	0x49
 1186 0049 03       		.uleb128 0x3
 1187 004a FB000000 		.4byte	.LASF3
 1188 004e 04       		.byte	0x4
 1189 004f 07       		.byte	0x7
 1190 0050 02       		.uleb128 0x2
 1191 0051 74533800 		.ascii	"tS8\000"
 1192 0055 02       		.byte	0x2
 1193 0056 49       		.byte	0x49
 1194 0057 5B000000 		.4byte	0x5b
 1195 005b 03       		.uleb128 0x3
 1196 005c 10000000 		.4byte	.LASF4
 1197 0060 01       		.byte	0x1
ARM GAS  /cygdrive/c/DOCUME~1/mkwapisz/LOCALS~1/Temp/ccw8ZsiV.s 			page 27


 1198 0061 06       		.byte	0x6
 1199 0062 03       		.uleb128 0x3
 1200 0063 C2010000 		.4byte	.LASF5
 1201 0067 02       		.byte	0x2
 1202 0068 05       		.byte	0x5
 1203 0069 04       		.uleb128 0x4
 1204 006a D6010000 		.4byte	.LASF6
 1205 006e 02       		.byte	0x2
 1206 006f 4B       		.byte	0x4b
 1207 0070 74000000 		.4byte	0x74
 1208 0074 05       		.uleb128 0x5
 1209 0075 696E7400 		.ascii	"int\000"
 1210 0079 04       		.byte	0x4
 1211 007a 05       		.byte	0x5
 1212 007b 04       		.uleb128 0x4
 1213 007c 8C000000 		.4byte	.LASF7
 1214 0080 02       		.byte	0x2
 1215 0081 4C       		.byte	0x4c
 1216 0082 30000000 		.4byte	0x30
 1217 0086 06       		.uleb128 0x6
 1218 0087 04       		.byte	0x4
 1219 0088 25000000 		.4byte	0x25
 1220 008c 03       		.uleb128 0x3
 1221 008d 17010000 		.4byte	.LASF8
 1222 0091 04       		.byte	0x4
 1223 0092 07       		.byte	0x7
 1224 0093 03       		.uleb128 0x3
 1225 0094 17010000 		.4byte	.LASF8
 1226 0098 04       		.byte	0x4
 1227 0099 07       		.byte	0x7
 1228 009a 03       		.uleb128 0x3
 1229 009b 98000000 		.4byte	.LASF9
 1230 009f 04       		.byte	0x4
 1231 00a0 05       		.byte	0x5
 1232 00a1 03       		.uleb128 0x3
 1233 00a2 7E000000 		.4byte	.LASF10
 1234 00a6 08       		.byte	0x8
 1235 00a7 05       		.byte	0x5
 1236 00a8 03       		.uleb128 0x3
 1237 00a9 D1010000 		.4byte	.LASF11
 1238 00ad 01       		.byte	0x1
 1239 00ae 08       		.byte	0x8
 1240 00af 03       		.uleb128 0x3
 1241 00b0 38000000 		.4byte	.LASF12
 1242 00b4 08       		.byte	0x8
 1243 00b5 07       		.byte	0x7
 1244 00b6 07       		.uleb128 0x7
 1245 00b7 83010000 		.4byte	0x183
 1246 00bb 30       		.byte	0x30
 1247 00bc 03       		.byte	0x3
 1248 00bd 06       		.byte	0x6
 1249 00be 08       		.uleb128 0x8
 1250 00bf FB010000 		.4byte	.LASF13
 1251 00c3 03       		.byte	0x3
 1252 00c4 07       		.byte	0x7
 1253 00c5 25000000 		.4byte	0x25
 1254 00c9 02       		.byte	0x2
ARM GAS  /cygdrive/c/DOCUME~1/mkwapisz/LOCALS~1/Temp/ccw8ZsiV.s 			page 28


 1255 00ca 23       		.byte	0x23
 1256 00cb 00       		.uleb128 0x0
 1257 00cc 08       		.uleb128 0x8
 1258 00cd DB010000 		.4byte	.LASF14
 1259 00d1 03       		.byte	0x3
 1260 00d2 08       		.byte	0x8
 1261 00d3 25000000 		.4byte	0x25
 1262 00d7 02       		.byte	0x2
 1263 00d8 23       		.byte	0x23
 1264 00d9 01       		.uleb128 0x1
 1265 00da 08       		.uleb128 0x8
 1266 00db CC010000 		.4byte	.LASF15
 1267 00df 03       		.byte	0x3
 1268 00e0 09       		.byte	0x9
 1269 00e1 25000000 		.4byte	0x25
 1270 00e5 02       		.byte	0x2
 1271 00e6 23       		.byte	0x23
 1272 00e7 02       		.uleb128 0x2
 1273 00e8 08       		.uleb128 0x8
 1274 00e9 BF000000 		.4byte	.LASF16
 1275 00ed 03       		.byte	0x3
 1276 00ee 0A       		.byte	0xa
 1277 00ef 25000000 		.4byte	0x25
 1278 00f3 02       		.byte	0x2
 1279 00f4 23       		.byte	0x23
 1280 00f5 03       		.uleb128 0x3
 1281 00f6 08       		.uleb128 0x8
 1282 00f7 CF000000 		.4byte	.LASF17
 1283 00fb 03       		.byte	0x3
 1284 00fc 0B       		.byte	0xb
 1285 00fd 25000000 		.4byte	0x25
 1286 0101 02       		.byte	0x2
 1287 0102 23       		.byte	0x23
 1288 0103 04       		.uleb128 0x4
 1289 0104 08       		.uleb128 0x8
 1290 0105 ED000000 		.4byte	.LASF18
 1291 0109 03       		.byte	0x3
 1292 010a 0C       		.byte	0xc
 1293 010b 25000000 		.4byte	0x25
 1294 010f 02       		.byte	0x2
 1295 0110 23       		.byte	0x23
 1296 0111 05       		.uleb128 0x5
 1297 0112 08       		.uleb128 0x8
 1298 0113 06020000 		.4byte	.LASF19
 1299 0117 03       		.byte	0x3
 1300 0118 0D       		.byte	0xd
 1301 0119 86000000 		.4byte	0x86
 1302 011d 02       		.byte	0x2
 1303 011e 23       		.byte	0x23
 1304 011f 08       		.uleb128 0x8
 1305 0120 08       		.uleb128 0x8
 1306 0121 08010000 		.4byte	.LASF20
 1307 0125 03       		.byte	0x3
 1308 0126 0E       		.byte	0xe
 1309 0127 25000000 		.4byte	0x25
 1310 012b 02       		.byte	0x2
 1311 012c 23       		.byte	0x23
ARM GAS  /cygdrive/c/DOCUME~1/mkwapisz/LOCALS~1/Temp/ccw8ZsiV.s 			page 29


 1312 012d 0C       		.uleb128 0xc
 1313 012e 08       		.uleb128 0x8
 1314 012f 6A010000 		.4byte	.LASF21
 1315 0133 03       		.byte	0x3
 1316 0134 0F       		.byte	0xf
 1317 0135 83010000 		.4byte	0x183
 1318 0139 02       		.byte	0x2
 1319 013a 23       		.byte	0x23
 1320 013b 10       		.uleb128 0x10
 1321 013c 08       		.uleb128 0x8
 1322 013d 72010000 		.4byte	.LASF22
 1323 0141 03       		.byte	0x3
 1324 0142 10       		.byte	0x10
 1325 0143 25000000 		.4byte	0x25
 1326 0147 02       		.byte	0x2
 1327 0148 23       		.byte	0x23
 1328 0149 28       		.uleb128 0x28
 1329 014a 08       		.uleb128 0x8
 1330 014b 68000000 		.4byte	.LASF23
 1331 014f 03       		.byte	0x3
 1332 0150 11       		.byte	0x11
 1333 0151 25000000 		.4byte	0x25
 1334 0155 02       		.byte	0x2
 1335 0156 23       		.byte	0x23
 1336 0157 29       		.uleb128 0x29
 1337 0158 08       		.uleb128 0x8
 1338 0159 E0010000 		.4byte	.LASF24
 1339 015d 03       		.byte	0x3
 1340 015e 12       		.byte	0x12
 1341 015f 25000000 		.4byte	0x25
 1342 0163 02       		.byte	0x2
 1343 0164 23       		.byte	0x23
 1344 0165 2A       		.uleb128 0x2a
 1345 0166 08       		.uleb128 0x8
 1346 0167 E0000000 		.4byte	.LASF25
 1347 016b 03       		.byte	0x3
 1348 016c 13       		.byte	0x13
 1349 016d 25000000 		.4byte	0x25
 1350 0171 02       		.byte	0x2
 1351 0172 23       		.byte	0x23
 1352 0173 2B       		.uleb128 0x2b
 1353 0174 08       		.uleb128 0x8
 1354 0175 4F000000 		.4byte	.LASF26
 1355 0179 03       		.byte	0x3
 1356 017a 14       		.byte	0x14
 1357 017b 25000000 		.4byte	0x25
 1358 017f 02       		.byte	0x2
 1359 0180 23       		.byte	0x23
 1360 0181 2C       		.uleb128 0x2c
 1361 0182 00       		.byte	0x0
 1362 0183 09       		.uleb128 0x9
 1363 0184 93010000 		.4byte	0x193
 1364 0188 86000000 		.4byte	0x86
 1365 018c 0A       		.uleb128 0xa
 1366 018d 8C000000 		.4byte	0x8c
 1367 0191 05       		.byte	0x5
 1368 0192 00       		.byte	0x0
ARM GAS  /cygdrive/c/DOCUME~1/mkwapisz/LOCALS~1/Temp/ccw8ZsiV.s 			page 30


 1369 0193 04       		.uleb128 0x4
 1370 0194 96010000 		.4byte	.LASF27
 1371 0198 03       		.byte	0x3
 1372 0199 15       		.byte	0x15
 1373 019a B6000000 		.4byte	0xb6
 1374 019e 0B       		.uleb128 0xb
 1375 019f C7010000 		.4byte	0x1c7
 1376 01a3 2B000000 		.4byte	.LASF49
 1377 01a7 08       		.byte	0x8
 1378 01a8 01       		.byte	0x1
 1379 01a9 25       		.byte	0x25
 1380 01aa 0C       		.uleb128 0xc
 1381 01ab 726F7700 		.ascii	"row\000"
 1382 01af 01       		.byte	0x1
 1383 01b0 26       		.byte	0x26
 1384 01b1 69000000 		.4byte	0x69
 1385 01b5 02       		.byte	0x2
 1386 01b6 23       		.byte	0x23
 1387 01b7 00       		.uleb128 0x0
 1388 01b8 0C       		.uleb128 0xc
 1389 01b9 636F6C00 		.ascii	"col\000"
 1390 01bd 01       		.byte	0x1
 1391 01be 27       		.byte	0x27
 1392 01bf 69000000 		.4byte	0x69
 1393 01c3 02       		.byte	0x2
 1394 01c4 23       		.byte	0x23
 1395 01c5 04       		.uleb128 0x4
 1396 01c6 00       		.byte	0x0
 1397 01c7 0D       		.uleb128 0xd
 1398 01c8 00000000 		.4byte	.LASF50
 1399 01cc 01       		.byte	0x1
 1400 01cd F5       		.byte	0xf5
 1401 01ce 00000000 		.4byte	.LFB4
 1402 01d2 90000000 		.4byte	.LFE4
 1403 01d6 01       		.byte	0x1
 1404 01d7 5D       		.byte	0x5d
 1405 01d8 0E       		.uleb128 0xe
 1406 01d9 1E020000 		.4byte	0x21e
 1407 01dd F4010000 		.4byte	.LASF29
 1408 01e1 01       		.byte	0x1
 1409 01e2 0D01     		.2byte	0x10d
 1410 01e4 01       		.byte	0x1
 1411 01e5 90000000 		.4byte	.LFB5
 1412 01e9 BC000000 		.4byte	.LFE5
 1413 01ed 00000000 		.4byte	.LLST1
 1414 01f1 0F       		.uleb128 0xf
 1415 01f2 7800     		.ascii	"x\000"
 1416 01f4 01       		.byte	0x1
 1417 01f5 0D01     		.2byte	0x10d
 1418 01f7 25000000 		.4byte	0x25
 1419 01fb 2B000000 		.4byte	.LLST2
 1420 01ff 0F       		.uleb128 0xf
 1421 0200 7900     		.ascii	"y\000"
 1422 0202 01       		.byte	0x1
 1423 0203 0D01     		.2byte	0x10d
 1424 0205 25000000 		.4byte	0x25
 1425 0209 3E000000 		.4byte	.LLST3
ARM GAS  /cygdrive/c/DOCUME~1/mkwapisz/LOCALS~1/Temp/ccw8ZsiV.s 			page 31


 1426 020d 10       		.uleb128 0x10
 1427 020e 92000000 		.4byte	.LASF28
 1428 0212 01       		.byte	0x1
 1429 0213 0D01     		.2byte	0x10d
 1430 0215 25000000 		.4byte	0x25
 1431 0219 51000000 		.4byte	.LLST4
 1432 021d 00       		.byte	0x0
 1433 021e 11       		.uleb128 0x11
 1434 021f 61020000 		.4byte	0x261
 1435 0223 7A010000 		.4byte	.LASF30
 1436 0227 01       		.byte	0x1
 1437 0228 B5       		.byte	0xb5
 1438 0229 BC000000 		.4byte	.LFB3
 1439 022d 04020000 		.4byte	.LFE3
 1440 0231 6F000000 		.4byte	.LLST5
 1441 0235 12       		.uleb128 0x12
 1442 0236 726F7700 		.ascii	"row\000"
 1443 023a 01       		.byte	0x1
 1444 023b B6       		.byte	0xb6
 1445 023c 69000000 		.4byte	0x69
 1446 0240 9A000000 		.4byte	.LLST6
 1447 0244 12       		.uleb128 0x12
 1448 0245 636F6C00 		.ascii	"col\000"
 1449 0249 01       		.byte	0x1
 1450 024a B6       		.byte	0xb6
 1451 024b 69000000 		.4byte	0x69
 1452 024f 05010000 		.4byte	.LLST7
 1453 0253 12       		.uleb128 0x12
 1454 0254 6900     		.ascii	"i\000"
 1455 0256 01       		.byte	0x1
 1456 0257 B6       		.byte	0xb6
 1457 0258 69000000 		.4byte	0x69
 1458 025c 7B010000 		.4byte	.LLST8
 1459 0260 00       		.byte	0x0
 1460 0261 13       		.uleb128 0x13
 1461 0262 C4020000 		.4byte	0x2c4
 1462 0266 01       		.byte	0x1
 1463 0267 21000000 		.4byte	.LASF51
 1464 026b 01       		.byte	0x1
 1465 026c 2F       		.byte	0x2f
 1466 026d 01       		.byte	0x1
 1467 026e 04020000 		.4byte	.LFB2
 1468 0272 4C040000 		.4byte	.LFE2
 1469 0276 D0010000 		.4byte	.LLST9
 1470 027a 14       		.uleb128 0x14
 1471 027b 4C010000 		.4byte	.LASF31
 1472 027f 01       		.byte	0x1
 1473 0280 30       		.byte	0x30
 1474 0281 25000000 		.4byte	0x25
 1475 0285 02       		.byte	0x2
 1476 0286 91       		.byte	0x91
 1477 0287 4C       		.sleb128 -52
 1478 0288 15       		.uleb128 0x15
 1479 0289 1C000000 		.4byte	.LASF32
 1480 028d 01       		.byte	0x1
 1481 028e 31       		.byte	0x31
 1482 028f 25000000 		.4byte	0x25
ARM GAS  /cygdrive/c/DOCUME~1/mkwapisz/LOCALS~1/Temp/ccw8ZsiV.s 			page 32


 1483 0293 16       		.uleb128 0x16
 1484 0294 08020000 		.4byte	.LBB2
 1485 0298 06040000 		.4byte	.LBE2
 1486 029c 14       		.uleb128 0x14
 1487 029d DB000000 		.4byte	.LASF33
 1488 02a1 01       		.byte	0x1
 1489 02a2 94       		.byte	0x94
 1490 02a3 93010000 		.4byte	0x193
 1491 02a7 03       		.byte	0x3
 1492 02a8 91       		.byte	0x91
 1493 02a9 BC7F     		.sleb128 -68
 1494 02ab 16       		.uleb128 0x16
 1495 02ac 2C020000 		.4byte	.LBB3
 1496 02b0 74030000 		.4byte	.LBE3
 1497 02b4 12       		.uleb128 0x12
 1498 02b5 6900     		.ascii	"i\000"
 1499 02b7 01       		.byte	0x1
 1500 02b8 3D       		.byte	0x3d
 1501 02b9 69000000 		.4byte	0x69
 1502 02bd FC010000 		.4byte	.LLST10
 1503 02c1 00       		.byte	0x0
 1504 02c2 00       		.byte	0x0
 1505 02c3 00       		.byte	0x0
 1506 02c4 14       		.uleb128 0x14
 1507 02c5 00020000 		.4byte	.LASF34
 1508 02c9 01       		.byte	0x1
 1509 02ca 1B       		.byte	0x1b
 1510 02cb D5020000 		.4byte	0x2d5
 1511 02cf 05       		.byte	0x5
 1512 02d0 03       		.byte	0x3
 1513 02d1 04000000 		.4byte	score
 1514 02d5 17       		.uleb128 0x17
 1515 02d6 69000000 		.4byte	0x69
 1516 02da 14       		.uleb128 0x14
 1517 02db B6010000 		.4byte	.LASF35
 1518 02df 01       		.byte	0x1
 1519 02e0 1C       		.byte	0x1c
 1520 02e1 69000000 		.4byte	0x69
 1521 02e5 05       		.byte	0x5
 1522 02e6 03       		.byte	0x3
 1523 02e7 08000000 		.4byte	snakeLength
 1524 02eb 14       		.uleb128 0x14
 1525 02ec 5A010000 		.4byte	.LASF36
 1526 02f0 01       		.byte	0x1
 1527 02f1 1D       		.byte	0x1d
 1528 02f2 69000000 		.4byte	0x69
 1529 02f6 05       		.byte	0x5
 1530 02f7 03       		.byte	0x3
 1531 02f8 0C000000 		.4byte	speed
 1532 02fc 14       		.uleb128 0x14
 1533 02fd 74000000 		.4byte	.LASF37
 1534 0301 01       		.byte	0x1
 1535 0302 1E       		.byte	0x1e
 1536 0303 69000000 		.4byte	0x69
 1537 0307 05       		.byte	0x5
 1538 0308 03       		.byte	0x3
 1539 0309 10000000 		.4byte	obstacles
ARM GAS  /cygdrive/c/DOCUME~1/mkwapisz/LOCALS~1/Temp/ccw8ZsiV.s 			page 33


 1540 030d 14       		.uleb128 0x14
 1541 030e 33010000 		.4byte	.LASF38
 1542 0312 01       		.byte	0x1
 1543 0313 1F       		.byte	0x1f
 1544 0314 69000000 		.4byte	0x69
 1545 0318 05       		.byte	0x5
 1546 0319 03       		.byte	0x3
 1547 031a 14000000 		.4byte	level
 1548 031e 14       		.uleb128 0x14
 1549 031f 85010000 		.4byte	.LASF39
 1550 0323 01       		.byte	0x1
 1551 0324 20       		.byte	0x20
 1552 0325 7B000000 		.4byte	0x7b
 1553 0329 05       		.byte	0x5
 1554 032a 03       		.byte	0x3
 1555 032b 18000000 		.4byte	firstPress
 1556 032f 14       		.uleb128 0x14
 1557 0330 5D000000 		.4byte	.LASF40
 1558 0334 01       		.byte	0x1
 1559 0335 21       		.byte	0x21
 1560 0336 69000000 		.4byte	0x69
 1561 033a 05       		.byte	0x5
 1562 033b 03       		.byte	0x3
 1563 033c 00000000 		.4byte	high_score
 1564 0340 09       		.uleb128 0x9
 1565 0341 56030000 		.4byte	0x356
 1566 0345 50000000 		.4byte	0x50
 1567 0349 0A       		.uleb128 0xa
 1568 034a 8C000000 		.4byte	0x8c
 1569 034e 1A       		.byte	0x1a
 1570 034f 0A       		.uleb128 0xa
 1571 0350 8C000000 		.4byte	0x8c
 1572 0354 1E       		.byte	0x1e
 1573 0355 00       		.byte	0x0
 1574 0356 14       		.uleb128 0x14
 1575 0357 C4000000 		.4byte	.LASF41
 1576 035b 01       		.byte	0x1
 1577 035c 22       		.byte	0x22
 1578 035d 40030000 		.4byte	0x340
 1579 0361 05       		.byte	0x5
 1580 0362 03       		.byte	0x3
 1581 0363 19000000 		.4byte	screenGrid
 1582 0367 14       		.uleb128 0x14
 1583 0368 29010000 		.4byte	.LASF42
 1584 036c 01       		.byte	0x1
 1585 036d 23       		.byte	0x23
 1586 036e 50000000 		.4byte	0x50
 1587 0372 05       		.byte	0x5
 1588 0373 03       		.byte	0x3
 1589 0374 00000000 		.4byte	direction
 1590 0378 18       		.uleb128 0x18
 1591 0379 0B000000 		.4byte	.LASF43
 1592 037d 04       		.byte	0x4
 1593 037e 0B       		.byte	0xb
 1594 037f 8A030000 		.4byte	0x38a
 1595 0383 01       		.byte	0x1
 1596 0384 05       		.byte	0x5
ARM GAS  /cygdrive/c/DOCUME~1/mkwapisz/LOCALS~1/Temp/ccw8ZsiV.s 			page 34


 1597 0385 03       		.byte	0x3
 1598 0386 00000000 		.4byte	spin
 1599 038a 17       		.uleb128 0x17
 1600 038b 7B000000 		.4byte	0x7b
 1601 038f 18       		.uleb128 0x18
 1602 0390 60010000 		.4byte	.LASF44
 1603 0394 05       		.byte	0x5
 1604 0395 17       		.byte	0x17
 1605 0396 69000000 		.4byte	0x69
 1606 039a 01       		.byte	0x1
 1607 039b 05       		.byte	0x5
 1608 039c 03       		.byte	0x3
 1609 039d 00000000 		.4byte	highScore
 1610 03a1 09       		.uleb128 0x9
 1611 03a2 B1030000 		.4byte	0x3b1
 1612 03a6 9E010000 		.4byte	0x19e
 1613 03aa 0A       		.uleb128 0xa
 1614 03ab 8C000000 		.4byte	0x8c
 1615 03af 63       		.byte	0x63
 1616 03b0 00       		.byte	0x0
 1617 03b1 18       		.uleb128 0x18
 1618 03b2 90010000 		.4byte	.LASF45
 1619 03b6 01       		.byte	0x1
 1620 03b7 28       		.byte	0x28
 1621 03b8 A1030000 		.4byte	0x3a1
 1622 03bc 01       		.byte	0x1
 1623 03bd 05       		.byte	0x5
 1624 03be 03       		.byte	0x3
 1625 03bf 00000000 		.4byte	snake
 1626 03c3 19       		.uleb128 0x19
 1627 03c4 6D7300   		.ascii	"ms\000"
 1628 03c7 01       		.byte	0x1
 1629 03c8 2A       		.byte	0x2a
 1630 03c9 CF030000 		.4byte	0x3cf
 1631 03cd 01       		.byte	0x1
 1632 03ce 01       		.byte	0x1
 1633 03cf 17       		.uleb128 0x17
 1634 03d0 3E000000 		.4byte	0x3e
 1635 03d4 00       		.byte	0x0
 1636              		.section	.debug_abbrev
 1637 0000 01       		.uleb128 0x1
 1638 0001 11       		.uleb128 0x11
 1639 0002 01       		.byte	0x1
 1640 0003 10       		.uleb128 0x10
 1641 0004 06       		.uleb128 0x6
 1642 0005 12       		.uleb128 0x12
 1643 0006 01       		.uleb128 0x1
 1644 0007 11       		.uleb128 0x11
 1645 0008 01       		.uleb128 0x1
 1646 0009 25       		.uleb128 0x25
 1647 000a 0E       		.uleb128 0xe
 1648 000b 13       		.uleb128 0x13
 1649 000c 0B       		.uleb128 0xb
 1650 000d 03       		.uleb128 0x3
 1651 000e 0E       		.uleb128 0xe
 1652 000f 1B       		.uleb128 0x1b
 1653 0010 0E       		.uleb128 0xe
ARM GAS  /cygdrive/c/DOCUME~1/mkwapisz/LOCALS~1/Temp/ccw8ZsiV.s 			page 35


 1654 0011 00       		.byte	0x0
 1655 0012 00       		.byte	0x0
 1656 0013 02       		.uleb128 0x2
 1657 0014 16       		.uleb128 0x16
 1658 0015 00       		.byte	0x0
 1659 0016 03       		.uleb128 0x3
 1660 0017 08       		.uleb128 0x8
 1661 0018 3A       		.uleb128 0x3a
 1662 0019 0B       		.uleb128 0xb
 1663 001a 3B       		.uleb128 0x3b
 1664 001b 0B       		.uleb128 0xb
 1665 001c 49       		.uleb128 0x49
 1666 001d 13       		.uleb128 0x13
 1667 001e 00       		.byte	0x0
 1668 001f 00       		.byte	0x0
 1669 0020 03       		.uleb128 0x3
 1670 0021 24       		.uleb128 0x24
 1671 0022 00       		.byte	0x0
 1672 0023 03       		.uleb128 0x3
 1673 0024 0E       		.uleb128 0xe
 1674 0025 0B       		.uleb128 0xb
 1675 0026 0B       		.uleb128 0xb
 1676 0027 3E       		.uleb128 0x3e
 1677 0028 0B       		.uleb128 0xb
 1678 0029 00       		.byte	0x0
 1679 002a 00       		.byte	0x0
 1680 002b 04       		.uleb128 0x4
 1681 002c 16       		.uleb128 0x16
 1682 002d 00       		.byte	0x0
 1683 002e 03       		.uleb128 0x3
 1684 002f 0E       		.uleb128 0xe
 1685 0030 3A       		.uleb128 0x3a
 1686 0031 0B       		.uleb128 0xb
 1687 0032 3B       		.uleb128 0x3b
 1688 0033 0B       		.uleb128 0xb
 1689 0034 49       		.uleb128 0x49
 1690 0035 13       		.uleb128 0x13
 1691 0036 00       		.byte	0x0
 1692 0037 00       		.byte	0x0
 1693 0038 05       		.uleb128 0x5
 1694 0039 24       		.uleb128 0x24
 1695 003a 00       		.byte	0x0
 1696 003b 03       		.uleb128 0x3
 1697 003c 08       		.uleb128 0x8
 1698 003d 0B       		.uleb128 0xb
 1699 003e 0B       		.uleb128 0xb
 1700 003f 3E       		.uleb128 0x3e
 1701 0040 0B       		.uleb128 0xb
 1702 0041 00       		.byte	0x0
 1703 0042 00       		.byte	0x0
 1704 0043 06       		.uleb128 0x6
 1705 0044 0F       		.uleb128 0xf
 1706 0045 00       		.byte	0x0
 1707 0046 0B       		.uleb128 0xb
 1708 0047 0B       		.uleb128 0xb
 1709 0048 49       		.uleb128 0x49
 1710 0049 13       		.uleb128 0x13
ARM GAS  /cygdrive/c/DOCUME~1/mkwapisz/LOCALS~1/Temp/ccw8ZsiV.s 			page 36


 1711 004a 00       		.byte	0x0
 1712 004b 00       		.byte	0x0
 1713 004c 07       		.uleb128 0x7
 1714 004d 13       		.uleb128 0x13
 1715 004e 01       		.byte	0x1
 1716 004f 01       		.uleb128 0x1
 1717 0050 13       		.uleb128 0x13
 1718 0051 0B       		.uleb128 0xb
 1719 0052 0B       		.uleb128 0xb
 1720 0053 3A       		.uleb128 0x3a
 1721 0054 0B       		.uleb128 0xb
 1722 0055 3B       		.uleb128 0x3b
 1723 0056 0B       		.uleb128 0xb
 1724 0057 00       		.byte	0x0
 1725 0058 00       		.byte	0x0
 1726 0059 08       		.uleb128 0x8
 1727 005a 0D       		.uleb128 0xd
 1728 005b 00       		.byte	0x0
 1729 005c 03       		.uleb128 0x3
 1730 005d 0E       		.uleb128 0xe
 1731 005e 3A       		.uleb128 0x3a
 1732 005f 0B       		.uleb128 0xb
 1733 0060 3B       		.uleb128 0x3b
 1734 0061 0B       		.uleb128 0xb
 1735 0062 49       		.uleb128 0x49
 1736 0063 13       		.uleb128 0x13
 1737 0064 38       		.uleb128 0x38
 1738 0065 0A       		.uleb128 0xa
 1739 0066 00       		.byte	0x0
 1740 0067 00       		.byte	0x0
 1741 0068 09       		.uleb128 0x9
 1742 0069 01       		.uleb128 0x1
 1743 006a 01       		.byte	0x1
 1744 006b 01       		.uleb128 0x1
 1745 006c 13       		.uleb128 0x13
 1746 006d 49       		.uleb128 0x49
 1747 006e 13       		.uleb128 0x13
 1748 006f 00       		.byte	0x0
 1749 0070 00       		.byte	0x0
 1750 0071 0A       		.uleb128 0xa
 1751 0072 21       		.uleb128 0x21
 1752 0073 00       		.byte	0x0
 1753 0074 49       		.uleb128 0x49
 1754 0075 13       		.uleb128 0x13
 1755 0076 2F       		.uleb128 0x2f
 1756 0077 0B       		.uleb128 0xb
 1757 0078 00       		.byte	0x0
 1758 0079 00       		.byte	0x0
 1759 007a 0B       		.uleb128 0xb
 1760 007b 13       		.uleb128 0x13
 1761 007c 01       		.byte	0x1
 1762 007d 01       		.uleb128 0x1
 1763 007e 13       		.uleb128 0x13
 1764 007f 03       		.uleb128 0x3
 1765 0080 0E       		.uleb128 0xe
 1766 0081 0B       		.uleb128 0xb
 1767 0082 0B       		.uleb128 0xb
ARM GAS  /cygdrive/c/DOCUME~1/mkwapisz/LOCALS~1/Temp/ccw8ZsiV.s 			page 37


 1768 0083 3A       		.uleb128 0x3a
 1769 0084 0B       		.uleb128 0xb
 1770 0085 3B       		.uleb128 0x3b
 1771 0086 0B       		.uleb128 0xb
 1772 0087 00       		.byte	0x0
 1773 0088 00       		.byte	0x0
 1774 0089 0C       		.uleb128 0xc
 1775 008a 0D       		.uleb128 0xd
 1776 008b 00       		.byte	0x0
 1777 008c 03       		.uleb128 0x3
 1778 008d 08       		.uleb128 0x8
 1779 008e 3A       		.uleb128 0x3a
 1780 008f 0B       		.uleb128 0xb
 1781 0090 3B       		.uleb128 0x3b
 1782 0091 0B       		.uleb128 0xb
 1783 0092 49       		.uleb128 0x49
 1784 0093 13       		.uleb128 0x13
 1785 0094 38       		.uleb128 0x38
 1786 0095 0A       		.uleb128 0xa
 1787 0096 00       		.byte	0x0
 1788 0097 00       		.byte	0x0
 1789 0098 0D       		.uleb128 0xd
 1790 0099 2E       		.uleb128 0x2e
 1791 009a 00       		.byte	0x0
 1792 009b 03       		.uleb128 0x3
 1793 009c 0E       		.uleb128 0xe
 1794 009d 3A       		.uleb128 0x3a
 1795 009e 0B       		.uleb128 0xb
 1796 009f 3B       		.uleb128 0x3b
 1797 00a0 0B       		.uleb128 0xb
 1798 00a1 11       		.uleb128 0x11
 1799 00a2 01       		.uleb128 0x1
 1800 00a3 12       		.uleb128 0x12
 1801 00a4 01       		.uleb128 0x1
 1802 00a5 40       		.uleb128 0x40
 1803 00a6 0A       		.uleb128 0xa
 1804 00a7 00       		.byte	0x0
 1805 00a8 00       		.byte	0x0
 1806 00a9 0E       		.uleb128 0xe
 1807 00aa 2E       		.uleb128 0x2e
 1808 00ab 01       		.byte	0x1
 1809 00ac 01       		.uleb128 0x1
 1810 00ad 13       		.uleb128 0x13
 1811 00ae 03       		.uleb128 0x3
 1812 00af 0E       		.uleb128 0xe
 1813 00b0 3A       		.uleb128 0x3a
 1814 00b1 0B       		.uleb128 0xb
 1815 00b2 3B       		.uleb128 0x3b
 1816 00b3 05       		.uleb128 0x5
 1817 00b4 27       		.uleb128 0x27
 1818 00b5 0C       		.uleb128 0xc
 1819 00b6 11       		.uleb128 0x11
 1820 00b7 01       		.uleb128 0x1
 1821 00b8 12       		.uleb128 0x12
 1822 00b9 01       		.uleb128 0x1
 1823 00ba 40       		.uleb128 0x40
 1824 00bb 06       		.uleb128 0x6
ARM GAS  /cygdrive/c/DOCUME~1/mkwapisz/LOCALS~1/Temp/ccw8ZsiV.s 			page 38


 1825 00bc 00       		.byte	0x0
 1826 00bd 00       		.byte	0x0
 1827 00be 0F       		.uleb128 0xf
 1828 00bf 05       		.uleb128 0x5
 1829 00c0 00       		.byte	0x0
 1830 00c1 03       		.uleb128 0x3
 1831 00c2 08       		.uleb128 0x8
 1832 00c3 3A       		.uleb128 0x3a
 1833 00c4 0B       		.uleb128 0xb
 1834 00c5 3B       		.uleb128 0x3b
 1835 00c6 05       		.uleb128 0x5
 1836 00c7 49       		.uleb128 0x49
 1837 00c8 13       		.uleb128 0x13
 1838 00c9 02       		.uleb128 0x2
 1839 00ca 06       		.uleb128 0x6
 1840 00cb 00       		.byte	0x0
 1841 00cc 00       		.byte	0x0
 1842 00cd 10       		.uleb128 0x10
 1843 00ce 05       		.uleb128 0x5
 1844 00cf 00       		.byte	0x0
 1845 00d0 03       		.uleb128 0x3
 1846 00d1 0E       		.uleb128 0xe
 1847 00d2 3A       		.uleb128 0x3a
 1848 00d3 0B       		.uleb128 0xb
 1849 00d4 3B       		.uleb128 0x3b
 1850 00d5 05       		.uleb128 0x5
 1851 00d6 49       		.uleb128 0x49
 1852 00d7 13       		.uleb128 0x13
 1853 00d8 02       		.uleb128 0x2
 1854 00d9 06       		.uleb128 0x6
 1855 00da 00       		.byte	0x0
 1856 00db 00       		.byte	0x0
 1857 00dc 11       		.uleb128 0x11
 1858 00dd 2E       		.uleb128 0x2e
 1859 00de 01       		.byte	0x1
 1860 00df 01       		.uleb128 0x1
 1861 00e0 13       		.uleb128 0x13
 1862 00e1 03       		.uleb128 0x3
 1863 00e2 0E       		.uleb128 0xe
 1864 00e3 3A       		.uleb128 0x3a
 1865 00e4 0B       		.uleb128 0xb
 1866 00e5 3B       		.uleb128 0x3b
 1867 00e6 0B       		.uleb128 0xb
 1868 00e7 11       		.uleb128 0x11
 1869 00e8 01       		.uleb128 0x1
 1870 00e9 12       		.uleb128 0x12
 1871 00ea 01       		.uleb128 0x1
 1872 00eb 40       		.uleb128 0x40
 1873 00ec 06       		.uleb128 0x6
 1874 00ed 00       		.byte	0x0
 1875 00ee 00       		.byte	0x0
 1876 00ef 12       		.uleb128 0x12
 1877 00f0 34       		.uleb128 0x34
 1878 00f1 00       		.byte	0x0
 1879 00f2 03       		.uleb128 0x3
 1880 00f3 08       		.uleb128 0x8
 1881 00f4 3A       		.uleb128 0x3a
ARM GAS  /cygdrive/c/DOCUME~1/mkwapisz/LOCALS~1/Temp/ccw8ZsiV.s 			page 39


 1882 00f5 0B       		.uleb128 0xb
 1883 00f6 3B       		.uleb128 0x3b
 1884 00f7 0B       		.uleb128 0xb
 1885 00f8 49       		.uleb128 0x49
 1886 00f9 13       		.uleb128 0x13
 1887 00fa 02       		.uleb128 0x2
 1888 00fb 06       		.uleb128 0x6
 1889 00fc 00       		.byte	0x0
 1890 00fd 00       		.byte	0x0
 1891 00fe 13       		.uleb128 0x13
 1892 00ff 2E       		.uleb128 0x2e
 1893 0100 01       		.byte	0x1
 1894 0101 01       		.uleb128 0x1
 1895 0102 13       		.uleb128 0x13
 1896 0103 3F       		.uleb128 0x3f
 1897 0104 0C       		.uleb128 0xc
 1898 0105 03       		.uleb128 0x3
 1899 0106 0E       		.uleb128 0xe
 1900 0107 3A       		.uleb128 0x3a
 1901 0108 0B       		.uleb128 0xb
 1902 0109 3B       		.uleb128 0x3b
 1903 010a 0B       		.uleb128 0xb
 1904 010b 27       		.uleb128 0x27
 1905 010c 0C       		.uleb128 0xc
 1906 010d 11       		.uleb128 0x11
 1907 010e 01       		.uleb128 0x1
 1908 010f 12       		.uleb128 0x12
 1909 0110 01       		.uleb128 0x1
 1910 0111 40       		.uleb128 0x40
 1911 0112 06       		.uleb128 0x6
 1912 0113 00       		.byte	0x0
 1913 0114 00       		.byte	0x0
 1914 0115 14       		.uleb128 0x14
 1915 0116 34       		.uleb128 0x34
 1916 0117 00       		.byte	0x0
 1917 0118 03       		.uleb128 0x3
 1918 0119 0E       		.uleb128 0xe
 1919 011a 3A       		.uleb128 0x3a
 1920 011b 0B       		.uleb128 0xb
 1921 011c 3B       		.uleb128 0x3b
 1922 011d 0B       		.uleb128 0xb
 1923 011e 49       		.uleb128 0x49
 1924 011f 13       		.uleb128 0x13
 1925 0120 02       		.uleb128 0x2
 1926 0121 0A       		.uleb128 0xa
 1927 0122 00       		.byte	0x0
 1928 0123 00       		.byte	0x0
 1929 0124 15       		.uleb128 0x15
 1930 0125 34       		.uleb128 0x34
 1931 0126 00       		.byte	0x0
 1932 0127 03       		.uleb128 0x3
 1933 0128 0E       		.uleb128 0xe
 1934 0129 3A       		.uleb128 0x3a
 1935 012a 0B       		.uleb128 0xb
 1936 012b 3B       		.uleb128 0x3b
 1937 012c 0B       		.uleb128 0xb
 1938 012d 49       		.uleb128 0x49
ARM GAS  /cygdrive/c/DOCUME~1/mkwapisz/LOCALS~1/Temp/ccw8ZsiV.s 			page 40


 1939 012e 13       		.uleb128 0x13
 1940 012f 00       		.byte	0x0
 1941 0130 00       		.byte	0x0
 1942 0131 16       		.uleb128 0x16
 1943 0132 0B       		.uleb128 0xb
 1944 0133 01       		.byte	0x1
 1945 0134 11       		.uleb128 0x11
 1946 0135 01       		.uleb128 0x1
 1947 0136 12       		.uleb128 0x12
 1948 0137 01       		.uleb128 0x1
 1949 0138 00       		.byte	0x0
 1950 0139 00       		.byte	0x0
 1951 013a 17       		.uleb128 0x17
 1952 013b 35       		.uleb128 0x35
 1953 013c 00       		.byte	0x0
 1954 013d 49       		.uleb128 0x49
 1955 013e 13       		.uleb128 0x13
 1956 013f 00       		.byte	0x0
 1957 0140 00       		.byte	0x0
 1958 0141 18       		.uleb128 0x18
 1959 0142 34       		.uleb128 0x34
 1960 0143 00       		.byte	0x0
 1961 0144 03       		.uleb128 0x3
 1962 0145 0E       		.uleb128 0xe
 1963 0146 3A       		.uleb128 0x3a
 1964 0147 0B       		.uleb128 0xb
 1965 0148 3B       		.uleb128 0x3b
 1966 0149 0B       		.uleb128 0xb
 1967 014a 49       		.uleb128 0x49
 1968 014b 13       		.uleb128 0x13
 1969 014c 3F       		.uleb128 0x3f
 1970 014d 0C       		.uleb128 0xc
 1971 014e 02       		.uleb128 0x2
 1972 014f 0A       		.uleb128 0xa
 1973 0150 00       		.byte	0x0
 1974 0151 00       		.byte	0x0
 1975 0152 19       		.uleb128 0x19
 1976 0153 34       		.uleb128 0x34
 1977 0154 00       		.byte	0x0
 1978 0155 03       		.uleb128 0x3
 1979 0156 08       		.uleb128 0x8
 1980 0157 3A       		.uleb128 0x3a
 1981 0158 0B       		.uleb128 0xb
 1982 0159 3B       		.uleb128 0x3b
 1983 015a 0B       		.uleb128 0xb
 1984 015b 49       		.uleb128 0x49
 1985 015c 13       		.uleb128 0x13
 1986 015d 3F       		.uleb128 0x3f
 1987 015e 0C       		.uleb128 0xc
 1988 015f 3C       		.uleb128 0x3c
 1989 0160 0C       		.uleb128 0xc
 1990 0161 00       		.byte	0x0
 1991 0162 00       		.byte	0x0
 1992 0163 00       		.byte	0x0
 1993              		.section	.debug_pubnames,"",%progbits
 1994 0000 3D000000 		.4byte	0x3d
 1995 0004 0200     		.2byte	0x2
ARM GAS  /cygdrive/c/DOCUME~1/mkwapisz/LOCALS~1/Temp/ccw8ZsiV.s 			page 41


 1996 0006 00000000 		.4byte	.Ldebug_info0
 1997 000a D5030000 		.4byte	0x3d5
 1998 000e 61020000 		.4byte	0x261
 1999 0012 706C6179 		.ascii	"playSnake\000"
 1999      536E616B 
 1999      6500
 2000 001c 78030000 		.4byte	0x378
 2001 0020 7370696E 		.ascii	"spin\000"
 2001      00
 2002 0025 8F030000 		.4byte	0x38f
 2003 0029 68696768 		.ascii	"highScore\000"
 2003      53636F72 
 2003      6500
 2004 0033 B1030000 		.4byte	0x3b1
 2005 0037 736E616B 		.ascii	"snake\000"
 2005      6500
 2006 003d 00000000 		.4byte	0x0
 2007              		.section	.debug_aranges,"",%progbits
 2008 0000 1C000000 		.4byte	0x1c
 2009 0004 0200     		.2byte	0x2
 2010 0006 00000000 		.4byte	.Ldebug_info0
 2011 000a 04       		.byte	0x4
 2012 000b 00       		.byte	0x0
 2013 000c 0000     		.2byte	0x0
 2014 000e 0000     		.2byte	0x0
 2015 0010 00000000 		.4byte	.Ltext0
 2016 0014 4C040000 		.4byte	.Letext0-.Ltext0
 2017 0018 00000000 		.4byte	0x0
 2018 001c 00000000 		.4byte	0x0
 2019              		.section	.debug_str,"MS",%progbits,1
 2020              	.LASF50:
 2021 0000 61646453 		.ascii	"addSegment\000"
 2021      65676D65 
 2021      6E7400
 2022              	.LASF43:
 2023 000b 7370696E 		.ascii	"spin\000"
 2023      00
 2024              	.LASF4:
 2025 0010 7369676E 		.ascii	"signed char\000"
 2025      65642063 
 2025      68617200 
 2026              	.LASF32:
 2027 001c 646F6E65 		.ascii	"done\000"
 2027      00
 2028              	.LASF51:
 2029 0021 706C6179 		.ascii	"playSnake\000"
 2029      536E616B 
 2029      6500
 2030              	.LASF49:
 2031 002b 736E616B 		.ascii	"snakeSegment\000"
 2031      65536567 
 2031      6D656E74 
 2031      00
 2032              	.LASF12:
 2033 0038 6C6F6E67 		.ascii	"long long unsigned int\000"
 2033      206C6F6E 
 2033      6720756E 
ARM GAS  /cygdrive/c/DOCUME~1/mkwapisz/LOCALS~1/Temp/ccw8ZsiV.s 			page 42


 2033      7369676E 
 2033      65642069 
 2034              	.LASF26:
 2035 004f 73656C65 		.ascii	"selectedColor\000"
 2035      63746564 
 2035      436F6C6F 
 2035      7200
 2036              	.LASF40:
 2037 005d 68696768 		.ascii	"high_score\000"
 2037      5F73636F 
 2037      726500
 2038              	.LASF23:
 2039 0068 626F7264 		.ascii	"borderColor\000"
 2039      6572436F 
 2039      6C6F7200 
 2040              	.LASF37:
 2041 0074 6F627374 		.ascii	"obstacles\000"
 2041      61636C65 
 2041      7300
 2042              	.LASF10:
 2043 007e 6C6F6E67 		.ascii	"long long int\000"
 2043      206C6F6E 
 2043      6720696E 
 2043      7400
 2044              	.LASF7:
 2045 008c 74426F6F 		.ascii	"tBool\000"
 2045      6C00
 2046              	.LASF28:
 2047 0092 636F6C6F 		.ascii	"color\000"
 2047      7200
 2048              	.LASF9:
 2049 0098 6C6F6E67 		.ascii	"long int\000"
 2049      20696E74 
 2049      00
 2050              	.LASF48:
 2051 00a1 2F637967 		.ascii	"/cygdrive/z/IntergatedSystems\000"
 2051      64726976 
 2051      652F7A2F 
 2051      496E7465 
 2051      72676174 
 2052              	.LASF16:
 2053 00bf 794C656E 		.ascii	"yLen\000"
 2053      00
 2054              	.LASF41:
 2055 00c4 73637265 		.ascii	"screenGrid\000"
 2055      656E4772 
 2055      696400
 2056              	.LASF17:
 2057 00cf 6E6F4F66 		.ascii	"noOfChoices\000"
 2057      43686F69 
 2057      63657300 
 2058              	.LASF33:
 2059 00db 6D656E75 		.ascii	"menu\000"
 2059      00
 2060              	.LASF25:
 2061 00e0 63686F69 		.ascii	"choicesColor\000"
 2061      63657343 
ARM GAS  /cygdrive/c/DOCUME~1/mkwapisz/LOCALS~1/Temp/ccw8ZsiV.s 			page 43


 2061      6F6C6F72 
 2061      00
 2062              	.LASF18:
 2063 00ed 696E6974 		.ascii	"initialChoice\000"
 2063      69616C43 
 2063      686F6963 
 2063      6500
 2064              	.LASF3:
 2065 00fb 756E7369 		.ascii	"unsigned int\000"
 2065      676E6564 
 2065      20696E74 
 2065      00
 2066              	.LASF20:
 2067 0108 68656164 		.ascii	"headerTextXpos\000"
 2067      65725465 
 2067      78745870 
 2067      6F7300
 2068              	.LASF8:
 2069 0117 6C6F6E67 		.ascii	"long unsigned int\000"
 2069      20756E73 
 2069      69676E65 
 2069      6420696E 
 2069      7400
 2070              	.LASF42:
 2071 0129 64697265 		.ascii	"direction\000"
 2071      6374696F 
 2071      6E00
 2072              	.LASF38:
 2073 0133 6C657665 		.ascii	"level\000"
 2073      6C00
 2074              	.LASF1:
 2075 0139 73686F72 		.ascii	"short unsigned int\000"
 2075      7420756E 
 2075      7369676E 
 2075      65642069 
 2075      6E7400
 2076              	.LASF31:
 2077 014c 6B657970 		.ascii	"keypress\000"
 2077      72657373 
 2077      00
 2078              	.LASF2:
 2079 0155 74553332 		.ascii	"tU32\000"
 2079      00
 2080              	.LASF36:
 2081 015a 73706565 		.ascii	"speed\000"
 2081      6400
 2082              	.LASF44:
 2083 0160 68696768 		.ascii	"highScore\000"
 2083      53636F72 
 2083      6500
 2084              	.LASF21:
 2085 016a 7043686F 		.ascii	"pChoice\000"
 2085      69636500 
 2086              	.LASF22:
 2087 0172 6267436F 		.ascii	"bgColor\000"
 2087      6C6F7200 
 2088              	.LASF30:
ARM GAS  /cygdrive/c/DOCUME~1/mkwapisz/LOCALS~1/Temp/ccw8ZsiV.s 			page 44


 2089 017a 73657475 		.ascii	"setupLevel\000"
 2089      704C6576 
 2089      656C00
 2090              	.LASF39:
 2091 0185 66697273 		.ascii	"firstPress\000"
 2091      74507265 
 2091      737300
 2092              	.LASF45:
 2093 0190 736E616B 		.ascii	"snake\000"
 2093      6500
 2094              	.LASF27:
 2095 0196 744D656E 		.ascii	"tMenu\000"
 2095      7500
 2096              	.LASF0:
 2097 019c 756E7369 		.ascii	"unsigned char\000"
 2097      676E6564 
 2097      20636861 
 2097      7200
 2098              	.LASF46:
 2099 01aa 474E5520 		.ascii	"GNU C 4.1.1\000"
 2099      4320342E 
 2099      312E3100 
 2100              	.LASF35:
 2101 01b6 736E616B 		.ascii	"snakeLength\000"
 2101      654C656E 
 2101      67746800 
 2102              	.LASF5:
 2103 01c2 73686F72 		.ascii	"short int\000"
 2103      7420696E 
 2103      7400
 2104              	.LASF15:
 2105 01cc 784C656E 		.ascii	"xLen\000"
 2105      00
 2106              	.LASF11:
 2107 01d1 63686172 		.ascii	"char\000"
 2107      00
 2108              	.LASF6:
 2109 01d6 74533332 		.ascii	"tS32\000"
 2109      00
 2110              	.LASF14:
 2111 01db 79506F73 		.ascii	"yPos\000"
 2111      00
 2112              	.LASF24:
 2113 01e0 68656164 		.ascii	"headerColor\000"
 2113      6572436F 
 2113      6C6F7200 
 2114              	.LASF47:
 2115 01ec 736E616B 		.ascii	"snake.c\000"
 2115      652E6300 
 2116              	.LASF29:
 2117 01f4 676F746F 		.ascii	"gotoxy\000"
 2117      787900
 2118              	.LASF13:
 2119 01fb 78506F73 		.ascii	"xPos\000"
 2119      00
 2120              	.LASF34:
 2121 0200 73636F72 		.ascii	"score\000"
ARM GAS  /cygdrive/c/DOCUME~1/mkwapisz/LOCALS~1/Temp/ccw8ZsiV.s 			page 45


 2121      6500
 2122              	.LASF19:
 2123 0206 70486561 		.ascii	"pHeaderText\000"
 2123      64657254 
 2123      65787400 
 2124              		.ident	"GCC: (GNU) 4.1.1"
ARM GAS  /cygdrive/c/DOCUME~1/mkwapisz/LOCALS~1/Temp/ccw8ZsiV.s 			page 46


DEFINED SYMBOLS
                            *ABS*:00000000 snake.c
/cygdrive/c/DOCUME~1/mkwapisz/LOCALS~1/Temp/ccw8ZsiV.s:1      .text:00000000 $t
/cygdrive/c/DOCUME~1/mkwapisz/LOCALS~1/Temp/ccw8ZsiV.s:15     .text:00000000 addSegment
/cygdrive/c/DOCUME~1/mkwapisz/LOCALS~1/Temp/ccw8ZsiV.s:114    .text:00000084 $d
/cygdrive/c/DOCUME~1/mkwapisz/LOCALS~1/Temp/ccw8ZsiV.s:804    .data:00000000 direction
/cygdrive/c/DOCUME~1/mkwapisz/LOCALS~1/Temp/ccw8ZsiV.s:814    .bss:00000008 snakeLength
                            *COM*:00000320 snake
/cygdrive/c/DOCUME~1/mkwapisz/LOCALS~1/Temp/ccw8ZsiV.s:120    .text:00000090 $t
/cygdrive/c/DOCUME~1/mkwapisz/LOCALS~1/Temp/ccw8ZsiV.s:123    .text:00000090 gotoxy
/cygdrive/c/DOCUME~1/mkwapisz/LOCALS~1/Temp/ccw8ZsiV.s:175    .text:000000bc setupLevel
/cygdrive/c/DOCUME~1/mkwapisz/LOCALS~1/Temp/ccw8ZsiV.s:395    .text:000001e4 $d
/cygdrive/c/DOCUME~1/mkwapisz/LOCALS~1/Temp/ccw8ZsiV.s:823    .bss:00000014 level
/cygdrive/c/DOCUME~1/mkwapisz/LOCALS~1/Temp/ccw8ZsiV.s:825    .bss:00000018 firstPress
/cygdrive/c/DOCUME~1/mkwapisz/LOCALS~1/Temp/ccw8ZsiV.s:827    .bss:00000019 screenGrid
/cygdrive/c/DOCUME~1/mkwapisz/LOCALS~1/Temp/ccw8ZsiV.s:820    .bss:00000010 obstacles
/cygdrive/c/DOCUME~1/mkwapisz/LOCALS~1/Temp/ccw8ZsiV.s:418    .text:00000204 playSnake
/cygdrive/c/DOCUME~1/mkwapisz/LOCALS~1/Temp/ccw8ZsiV.s:415    .text:00000204 $t
/cygdrive/c/DOCUME~1/mkwapisz/LOCALS~1/Temp/ccw8ZsiV.s:784    .text:00000410 $d
/cygdrive/c/DOCUME~1/mkwapisz/LOCALS~1/Temp/ccw8ZsiV.s:811    .bss:00000004 score
/cygdrive/c/DOCUME~1/mkwapisz/LOCALS~1/Temp/ccw8ZsiV.s:817    .bss:0000000c speed
/cygdrive/c/DOCUME~1/mkwapisz/LOCALS~1/Temp/ccw8ZsiV.s:808    .bss:00000000 high_score
                            *COM*:00000004 highScore
                             .bss:00000000 $d
                            *COM*:00000001 spin

UNDEFINED SYMBOLS
lcdRect
__modsi3
lcdColor
lcdClrscr
lcdGotoxy
lcdPuts
rand
srand
displayScoreAndTime
osSleep
getPressedKey
procMotor
playBuu
drawMenu
ms
